---
triple:          'arm64-apple-darwin'
binary-path:     main
relocations:
  - { offsetInCU: 0x4C, offset: 0x4C, size: 0x8, addend: 0x0, symName: __ZN8nlohmann16json_abi_v3_12_06detail12static_constINS1_10to_json_fnEE5valueE, symObjAddr: 0x1CAE1, symBinAddr: 0x1000A9A31, symSize: 0x0 }
  - { offsetInCU: 0x1106, offset: 0x1106, size: 0x8, addend: 0x0, symName: __ZN8nlohmann16json_abi_v3_12_06detail9dtoa_impl36get_cached_power_for_binary_exponentEi, symObjAddr: 0x1A400, symBinAddr: 0x10001AF74, symSize: 0x22C }
  - { offsetInCU: 0x1131, offset: 0x1131, size: 0x8, addend: 0x0, symName: __ZZN8nlohmann16json_abi_v3_12_06detail9dtoa_impl36get_cached_power_for_binary_exponentEiE13kCachedPowers, symObjAddr: 0x1D060, symBinAddr: 0x1000A9FB0, symSize: 0x0 }
  - { offsetInCU: 0x1202, offset: 0x1202, size: 0x8, addend: 0x0, symName: __ZN8nlohmann16json_abi_v3_12_06detail9dtoa_impl6grisu2IdEEvPcRiS5_T_, symObjAddr: 0x19974, symBinAddr: 0x10001A4E8, symSize: 0xEC }
  - { offsetInCU: 0x1272, offset: 0x1272, size: 0x8, addend: 0x0, symName: __ZN8nlohmann16json_abi_v3_12_06detail9dtoa_impl13format_bufferEPciiii, symObjAddr: 0x19A60, symBinAddr: 0x10001A5D4, symSize: 0x36C }
  - { offsetInCU: 0x12FA, offset: 0x12FA, size: 0x8, addend: 0x0, symName: __ZN8nlohmann16json_abi_v3_12_06detail9dtoa_impl18compute_boundariesIdEENS2_10boundariesET_, symObjAddr: 0x19DCC, symBinAddr: 0x10001A940, symSize: 0x24C }
  - { offsetInCU: 0x1408, offset: 0x1408, size: 0x8, addend: 0x0, symName: __ZN8nlohmann16json_abi_v3_12_06detail9dtoa_impl6grisu2EPcRiS4_NS2_5diyfpES5_S5_, symObjAddr: 0x1A018, symBinAddr: 0x10001AB8C, symSize: 0x1C0 }
  - { offsetInCU: 0x14F0, offset: 0x14F0, size: 0x8, addend: 0x0, symName: __ZN8nlohmann16json_abi_v3_12_06detail9dtoa_impl16reinterpret_bitsIydEET_T0_, symObjAddr: 0x1A1D8, symBinAddr: 0x10001AD4C, symSize: 0x1C }
  - { offsetInCU: 0x15F1, offset: 0x15F1, size: 0x8, addend: 0x0, symName: __ZN8nlohmann16json_abi_v3_12_06detail9dtoa_impl16grisu2_digit_genEPcRiS4_NS2_5diyfpES5_S5_, symObjAddr: 0x1A76C, symBinAddr: 0x10001B2E0, symSize: 0x4A4 }
  - { offsetInCU: 0x178F, offset: 0x178F, size: 0x8, addend: 0x0, symName: __ZN8nlohmann16json_abi_v3_12_06detail9dtoa_impl18find_largest_pow10EjRj, symObjAddr: 0x1AD2C, symBinAddr: 0x10001B8A0, symSize: 0x1F8 }
  - { offsetInCU: 0x17CC, offset: 0x17CC, size: 0x8, addend: 0x0, symName: __ZN8nlohmann16json_abi_v3_12_06detail9dtoa_impl12grisu2_roundEPciyyyy, symObjAddr: 0x1AF24, symBinAddr: 0x10001BA98, symSize: 0x24C }
  - { offsetInCU: 0x1841, offset: 0x1841, size: 0x8, addend: 0x0, symName: __ZN8nlohmann16json_abi_v3_12_06detail9dtoa_impl15append_exponentEPci, symObjAddr: 0x1B18C, symBinAddr: 0x10001BD00, symSize: 0x220 }
  - { offsetInCU: 0x1B01, offset: 0x1B01, size: 0x8, addend: 0x0, symName: __ZN8nlohmann16json_abi_v3_12_06detail6concatINSt3__112basic_stringIcNS3_11char_traitsIcEENS3_9allocatorIcEEEEJS9_S9_RKS9_EEET_DpOT0_, symObjAddr: 0x57C8, symBinAddr: 0x10000633C, symSize: 0xD8 }
  - { offsetInCU: 0x1B7B, offset: 0x1B7B, size: 0x8, addend: 0x0, symName: __ZN8nlohmann16json_abi_v3_12_06detail13concat_lengthINSt3__112basic_stringIcNS3_11char_traitsIcEENS3_9allocatorIcEEEEJS9_S9_EEEmRKT_DpRKT0_, symObjAddr: 0x5A08, symBinAddr: 0x10000657C, symSize: 0x48 }
  - { offsetInCU: 0x1BE0, offset: 0x1BE0, size: 0x8, addend: 0x0, symName: __ZN8nlohmann16json_abi_v3_12_06detail11concat_intoINSt3__112basic_stringIcNS3_11char_traitsIcEENS3_9allocatorIcEEEES9_JS9_RKS9_ELi0EEEvRT_OT0_DpOT1_, symObjAddr: 0x5A50, symBinAddr: 0x1000065C4, symSize: 0x44 }
  - { offsetInCU: 0x1C5F, offset: 0x1C5F, size: 0x8, addend: 0x0, symName: __ZN8nlohmann16json_abi_v3_12_06detail13concat_lengthINSt3__112basic_stringIcNS3_11char_traitsIcEENS3_9allocatorIcEEEEJS9_EEEmRKT_DpRKT0_, symObjAddr: 0x5AE0, symBinAddr: 0x100006654, symSize: 0x40 }
  - { offsetInCU: 0x1CB0, offset: 0x1CB0, size: 0x8, addend: 0x0, symName: __ZN8nlohmann16json_abi_v3_12_06detail13concat_lengthINSt3__112basic_stringIcNS3_11char_traitsIcEENS3_9allocatorIcEEEEJEEEmRKT_DpRKT0_, symObjAddr: 0x5B20, symBinAddr: 0x100006694, symSize: 0x38 }
  - { offsetInCU: 0x1CEC, offset: 0x1CEC, size: 0x8, addend: 0x0, symName: __ZN8nlohmann16json_abi_v3_12_06detail13concat_lengthEv, symObjAddr: 0x5B58, symBinAddr: 0x1000066CC, symSize: 0x8 }
  - { offsetInCU: 0x1D0A, offset: 0x1D0A, size: 0x8, addend: 0x0, symName: __ZN8nlohmann16json_abi_v3_12_06detail11concat_intoINSt3__112basic_stringIcNS3_11char_traitsIcEENS3_9allocatorIcEEEES9_JRKS9_ELi0EEEvRT_OT0_DpOT1_, symObjAddr: 0x5BAC, symBinAddr: 0x100006720, symSize: 0x3C }
  - { offsetInCU: 0x1D75, offset: 0x1D75, size: 0x8, addend: 0x0, symName: __ZN8nlohmann16json_abi_v3_12_06detail11concat_intoINSt3__112basic_stringIcNS3_11char_traitsIcEENS3_9allocatorIcEEEERKS9_JELi0EEEvRT_OT0_DpOT1_, symObjAddr: 0x5BE8, symBinAddr: 0x10000675C, symSize: 0x34 }
  - { offsetInCU: 0x1DCB, offset: 0x1DCB, size: 0x8, addend: 0x0, symName: __ZN8nlohmann16json_abi_v3_12_06detail11concat_intoINSt3__112basic_stringIcNS3_11char_traitsIcEENS3_9allocatorIcEEEEEEvRT_, symObjAddr: 0x5C1C, symBinAddr: 0x100006790, symSize: 0x10 }
  - { offsetInCU: 0x1DFA, offset: 0x1DFA, size: 0x8, addend: 0x0, symName: __ZN8nlohmann16json_abi_v3_12_06detail6concatINSt3__112basic_stringIcNS3_11char_traitsIcEENS3_9allocatorIcEEEEJRA17_KcRKS9_cS9_RA3_SA_EEET_DpOT0_, symObjAddr: 0x5C2C, symBinAddr: 0x1000067A0, symSize: 0xF0 }
  - { offsetInCU: 0x1E9C, offset: 0x1E9C, size: 0x8, addend: 0x0, symName: __ZN8nlohmann16json_abi_v3_12_06detail13concat_lengthIJNSt3__112basic_stringIcNS3_11char_traitsIcEENS3_9allocatorIcEEEEcS9_A3_cEEEmPKcDpRKT_, symObjAddr: 0x5D1C, symBinAddr: 0x100006890, symSize: 0x58 }
  - { offsetInCU: 0x1F20, offset: 0x1F20, size: 0x8, addend: 0x0, symName: __ZN8nlohmann16json_abi_v3_12_06detail11concat_intoINSt3__112basic_stringIcNS3_11char_traitsIcEENS3_9allocatorIcEEEERA17_KcJRKS9_cS9_RA3_SA_ELi0EEEvRT_OT0_DpOT1_, symObjAddr: 0x5D74, symBinAddr: 0x1000068E8, symSize: 0x54 }
  - { offsetInCU: 0x1FC7, offset: 0x1FC7, size: 0x8, addend: 0x0, symName: __ZN8nlohmann16json_abi_v3_12_06detail13concat_lengthINSt3__112basic_stringIcNS3_11char_traitsIcEENS3_9allocatorIcEEEEJcS9_A3_cEEEmRKT_DpRKT0_, symObjAddr: 0x5DC8, symBinAddr: 0x10000693C, symSize: 0x54 }
  - { offsetInCU: 0x2040, offset: 0x2040, size: 0x8, addend: 0x0, symName: __ZN8nlohmann16json_abi_v3_12_06detail13concat_lengthIJNSt3__112basic_stringIcNS3_11char_traitsIcEENS3_9allocatorIcEEEEA3_cEEEmcDpRKT_, symObjAddr: 0x5E1C, symBinAddr: 0x100006990, symSize: 0x34 }
  - { offsetInCU: 0x2098, offset: 0x2098, size: 0x8, addend: 0x0, symName: __ZN8nlohmann16json_abi_v3_12_06detail13concat_lengthINSt3__112basic_stringIcNS3_11char_traitsIcEENS3_9allocatorIcEEEEJA3_cEEEmRKT_DpRKT0_, symObjAddr: 0x5E50, symBinAddr: 0x1000069C4, symSize: 0x40 }
  - { offsetInCU: 0x20E9, offset: 0x20E9, size: 0x8, addend: 0x0, symName: __ZN8nlohmann16json_abi_v3_12_06detail13concat_lengthIJEEEmPKcDpRKT_, symObjAddr: 0x5E90, symBinAddr: 0x100006A04, symSize: 0x38 }
  - { offsetInCU: 0x211C, offset: 0x211C, size: 0x8, addend: 0x0, symName: __ZN8nlohmann16json_abi_v3_12_06detail11concat_intoINSt3__112basic_stringIcNS3_11char_traitsIcEENS3_9allocatorIcEEEERKS9_JcS9_RA3_KcELi0EEEvRT_OT0_DpOT1_, symObjAddr: 0x5EC8, symBinAddr: 0x100006A3C, symSize: 0x4C }
  - { offsetInCU: 0x21AF, offset: 0x21AF, size: 0x8, addend: 0x0, symName: __ZN8nlohmann16json_abi_v3_12_06detail11concat_intoINSt3__112basic_stringIcNS3_11char_traitsIcEENS3_9allocatorIcEEEEcJS9_RA3_KcELi0EEEvRT_OT0_DpOT1_, symObjAddr: 0x5F14, symBinAddr: 0x100006A88, symSize: 0x48 }
  - { offsetInCU: 0x222E, offset: 0x222E, size: 0x8, addend: 0x0, symName: __ZN8nlohmann16json_abi_v3_12_06detail11concat_intoINSt3__112basic_stringIcNS3_11char_traitsIcEENS3_9allocatorIcEEEES9_JRA3_KcELi0EEEvRT_OT0_DpOT1_, symObjAddr: 0x5F90, symBinAddr: 0x100006B04, symSize: 0x3C }
  - { offsetInCU: 0x2299, offset: 0x2299, size: 0x8, addend: 0x0, symName: __ZN8nlohmann16json_abi_v3_12_06detail11concat_intoINSt3__112basic_stringIcNS3_11char_traitsIcEENS3_9allocatorIcEEEERA3_KcJELi0EEEvRT_OT0_DpOT1_, symObjAddr: 0x5FCC, symBinAddr: 0x100006B40, symSize: 0x34 }
  - { offsetInCU: 0x22EF, offset: 0x22EF, size: 0x8, addend: 0x0, symName: __ZN8nlohmann16json_abi_v3_12_06detail7to_jsonINS0_10basic_jsonINSt3__13mapENS4_6vectorENS4_12basic_stringIcNS4_11char_traitsIcEENS4_9allocatorIcEEEEbxydSA_NS0_14adl_serializerENS6_IhNSA_IhEEEEvEEiLi0EEEvRT_T0_, symObjAddr: 0x6350, symBinAddr: 0x100006EC4, symSize: 0x2C }
  - { offsetInCU: 0x2371, offset: 0x2371, size: 0x8, addend: 0x0, symName: __ZN8nlohmann16json_abi_v3_12_06detail12unknown_sizeEv, symObjAddr: 0xA718, symBinAddr: 0x10000B28C, symSize: 0x14 }
  - { offsetInCU: 0x2461, offset: 0x2461, size: 0x8, addend: 0x0, symName: __ZN8nlohmann16json_abi_v3_12_06detail6concatINSt3__112basic_stringIcNS3_11char_traitsIcEENS3_9allocatorIcEEEEJRA51_KcPSA_EEET_DpOT0_, symObjAddr: 0xA85C, symBinAddr: 0x10000B3D0, symSize: 0xCC }
  - { offsetInCU: 0x24C7, offset: 0x24C7, size: 0x8, addend: 0x0, symName: __ZN8nlohmann16json_abi_v3_12_06detail13concat_lengthIJPKcEEEmS4_DpRKT_, symObjAddr: 0xBFDC, symBinAddr: 0x10000CB50, symSize: 0x44 }
  - { offsetInCU: 0x250F, offset: 0x250F, size: 0x8, addend: 0x0, symName: __ZN8nlohmann16json_abi_v3_12_06detail11concat_intoINSt3__112basic_stringIcNS3_11char_traitsIcEENS3_9allocatorIcEEEERA51_KcJPSA_ELi0EEEvRT_OT0_DpOT1_, symObjAddr: 0xC020, symBinAddr: 0x10000CB94, symSize: 0x3C }
  - { offsetInCU: 0x257A, offset: 0x257A, size: 0x8, addend: 0x0, symName: __ZN8nlohmann16json_abi_v3_12_06detail11concat_intoINSt3__112basic_stringIcNS3_11char_traitsIcEENS3_9allocatorIcEEEEPKcJELi0EEEvRT_OT0_DpOT1_, symObjAddr: 0xC05C, symBinAddr: 0x10000CBD0, symSize: 0x38 }
  - { offsetInCU: 0x25D0, offset: 0x25D0, size: 0x8, addend: 0x0, symName: __ZN8nlohmann16json_abi_v3_12_06detail6concatINSt3__112basic_stringIcNS3_11char_traitsIcEENS3_9allocatorIcEEEEJRA52_KcPSA_EEET_DpOT0_, symObjAddr: 0xCD34, symBinAddr: 0x10000D8A8, symSize: 0xC4 }
  - { offsetInCU: 0x2636, offset: 0x2636, size: 0x8, addend: 0x0, symName: __ZN8nlohmann16json_abi_v3_12_06detail11concat_intoINSt3__112basic_stringIcNS3_11char_traitsIcEENS3_9allocatorIcEEEERA52_KcJPSA_ELi0EEEvRT_OT0_DpOT1_, symObjAddr: 0xCDF8, symBinAddr: 0x10000D96C, symSize: 0x3C }
  - { offsetInCU: 0x26A1, offset: 0x26A1, size: 0x8, addend: 0x0, symName: __ZN8nlohmann16json_abi_v3_12_06detail6concatINSt3__112basic_stringIcNS3_11char_traitsIcEENS3_9allocatorIcEEEEJRA29_KcPSA_EEET_DpOT0_, symObjAddr: 0x11A9C, symBinAddr: 0x100012610, symSize: 0xC4 }
  - { offsetInCU: 0x2707, offset: 0x2707, size: 0x8, addend: 0x0, symName: __ZN8nlohmann16json_abi_v3_12_06detail11concat_intoINSt3__112basic_stringIcNS3_11char_traitsIcEENS3_9allocatorIcEEEERA29_KcJPSA_ELi0EEEvRT_OT0_DpOT1_, symObjAddr: 0x11B60, symBinAddr: 0x1000126D4, symSize: 0x3C }
  - { offsetInCU: 0x2772, offset: 0x2772, size: 0x8, addend: 0x0, symName: __ZN8nlohmann16json_abi_v3_12_06detail6concatINSt3__112basic_stringIcNS3_11char_traitsIcEENS3_9allocatorIcEEEEJRA29_KcS9_RA5_SA_S9_EEET_DpOT0_, symObjAddr: 0x18974, symBinAddr: 0x1000194E8, symSize: 0xE4 }
  - { offsetInCU: 0x2C01, offset: 0x2C01, size: 0x8, addend: 0x0, symName: __ZN8nlohmann16json_abi_v3_12_06detail6concatINSt3__112basic_stringIcNS3_11char_traitsIcEENS3_9allocatorIcEEEEJRA39_KcS9_EEET_DpOT0_, symObjAddr: 0x18B68, symBinAddr: 0x1000196DC, symSize: 0xCC }
  - { offsetInCU: 0x2C67, offset: 0x2C67, size: 0x8, addend: 0x0, symName: __ZN8nlohmann16json_abi_v3_12_06detail13concat_lengthIJNSt3__112basic_stringIcNS3_11char_traitsIcEENS3_9allocatorIcEEEEA5_cS9_EEEmPKcDpRKT_, symObjAddr: 0x18CB0, symBinAddr: 0x100019824, symSize: 0x50 }
  - { offsetInCU: 0x2CD7, offset: 0x2CD7, size: 0x8, addend: 0x0, symName: __ZN8nlohmann16json_abi_v3_12_06detail11concat_intoINSt3__112basic_stringIcNS3_11char_traitsIcEENS3_9allocatorIcEEEERA29_KcJS9_RA5_SA_S9_ELi0EEEvRT_OT0_DpOT1_, symObjAddr: 0x18D00, symBinAddr: 0x100019874, symSize: 0x4C }
  - { offsetInCU: 0x2D6A, offset: 0x2D6A, size: 0x8, addend: 0x0, symName: __ZN8nlohmann16json_abi_v3_12_06detail13concat_lengthINSt3__112basic_stringIcNS3_11char_traitsIcEENS3_9allocatorIcEEEEJA5_cS9_EEEmRKT_DpRKT0_, symObjAddr: 0x18D4C, symBinAddr: 0x1000198C0, symSize: 0x48 }
  - { offsetInCU: 0x2DCF, offset: 0x2DCF, size: 0x8, addend: 0x0, symName: __ZN8nlohmann16json_abi_v3_12_06detail13concat_lengthIJNSt3__112basic_stringIcNS3_11char_traitsIcEENS3_9allocatorIcEEEEEEEmPKcDpRKT_, symObjAddr: 0x18D94, symBinAddr: 0x100019908, symSize: 0x40 }
  - { offsetInCU: 0x2E17, offset: 0x2E17, size: 0x8, addend: 0x0, symName: __ZN8nlohmann16json_abi_v3_12_06detail11concat_intoINSt3__112basic_stringIcNS3_11char_traitsIcEENS3_9allocatorIcEEEES9_JRA5_KcS9_ELi0EEEvRT_OT0_DpOT1_, symObjAddr: 0x18DD4, symBinAddr: 0x100019948, symSize: 0x44 }
  - { offsetInCU: 0x2E96, offset: 0x2E96, size: 0x8, addend: 0x0, symName: __ZN8nlohmann16json_abi_v3_12_06detail11concat_intoINSt3__112basic_stringIcNS3_11char_traitsIcEENS3_9allocatorIcEEEERA5_KcJS9_ELi0EEEvRT_OT0_DpOT1_, symObjAddr: 0x18E18, symBinAddr: 0x10001998C, symSize: 0x3C }
  - { offsetInCU: 0x2F01, offset: 0x2F01, size: 0x8, addend: 0x0, symName: __ZN8nlohmann16json_abi_v3_12_06detail11concat_intoINSt3__112basic_stringIcNS3_11char_traitsIcEENS3_9allocatorIcEEEES9_JELi0EEEvRT_OT0_DpOT1_, symObjAddr: 0x18E54, symBinAddr: 0x1000199C8, symSize: 0x34 }
  - { offsetInCU: 0x2F57, offset: 0x2F57, size: 0x8, addend: 0x0, symName: __ZN8nlohmann16json_abi_v3_12_06detail11concat_intoINSt3__112basic_stringIcNS3_11char_traitsIcEENS3_9allocatorIcEEEERA39_KcJS9_ELi0EEEvRT_OT0_DpOT1_, symObjAddr: 0x18EB8, symBinAddr: 0x100019A2C, symSize: 0x3C }
  - { offsetInCU: 0x2FC2, offset: 0x2FC2, size: 0x8, addend: 0x0, symName: __ZN8nlohmann16json_abi_v3_12_06detail8to_charsIdEEPcS3_PKcT_, symObjAddr: 0x196E4, symBinAddr: 0x10001A258, symSize: 0x26C }
  - { offsetInCU: 0x1E394, offset: 0x1E394, size: 0x8, addend: 0x0, symName: __ZNSt3__17advanceB7v160006IPN8nlohmann16json_abi_v3_12_010basic_jsonINS_3mapENS_6vectorENS_12basic_stringIcNS_11char_traitsIcEENS_9allocatorIcEEEEbxydS9_NS2_14adl_serializerENS5_IhNS9_IhEEEEvEEllvEEvRT_T0_, symObjAddr: 0x7D64, symBinAddr: 0x1000088D8, symSize: 0x50 }
  - { offsetInCU: 0x1E618, offset: 0x1E618, size: 0x8, addend: 0x0, symName: __ZNSt3__17advanceB7v160006INS_16reverse_iteratorIPN8nlohmann16json_abi_v3_12_010basic_jsonINS_3mapENS_6vectorENS_12basic_stringIcNS_11char_traitsIcEENS_9allocatorIcEEEEbxydSA_NS3_14adl_serializerENS6_IhNSA_IhEEEEvEEEEllvEEvRT_T0_, symObjAddr: 0x81CC, symBinAddr: 0x100008D40, symSize: 0x50 }
  - { offsetInCU: 0x1E91A, offset: 0x1E91A, size: 0x8, addend: 0x0, symName: __ZNSt3__17advanceB7v160006INS_21__tree_const_iteratorINS_12__value_typeINS_12basic_stringIcNS_11char_traitsIcEENS_9allocatorIcEEEEN8nlohmann16json_abi_v3_12_010basic_jsonINS_3mapENS_6vectorES8_bxydS6_NSA_14adl_serializerENSD_IhNS6_IhEEEEvEEEEPNS_11__tree_nodeISI_PvEElEEllvEEvRT_T0_, symObjAddr: 0xE2AC, symBinAddr: 0x10000EE20, symSize: 0x50 }
  - { offsetInCU: 0x1EDC3, offset: 0x1EDC3, size: 0x8, addend: 0x0, symName: __ZNSt3__17advanceB7v160006IPhllvEEvRT_T0_, symObjAddr: 0x10B70, symBinAddr: 0x1000116E4, symSize: 0x50 }
  - { offsetInCU: 0x22A1E, offset: 0x22A1E, size: 0x8, addend: 0x0, symName: __ZNSt3__124__put_character_sequenceB7v160006IcNS_11char_traitsIcEEEERNS_13basic_ostreamIT_T0_EES7_PKS4_m, symObjAddr: 0x13FB0, symBinAddr: 0x100014B24, symSize: 0x1EC }
  - { offsetInCU: 0x22F57, offset: 0x22F57, size: 0x8, addend: 0x0, symName: __ZNSt3__17advanceB7v160006INS_20__map_const_iteratorINS_21__tree_const_iteratorINS_12__value_typeINS_12basic_stringIcNS_11char_traitsIcEENS_9allocatorIcEEEEN8nlohmann16json_abi_v3_12_010basic_jsonINS_3mapENS_6vectorES9_bxydS7_NSB_14adl_serializerENSE_IhNS7_IhEEEEvEEEEPNS_11__tree_nodeISJ_PvEElEEEEllvEEvRT_T0_, symObjAddr: 0x18F08, symBinAddr: 0x100019A7C, symSize: 0x50 }
  - { offsetInCU: 0x2538B, offset: 0x2538B, size: 0x8, addend: 0x0, symName: __ZNSt3__1lsB7v160006INS_11char_traitsIcEEEERNS_13basic_ostreamIcT_EES6_PKc, symObjAddr: 0x55C, symBinAddr: 0x1000010D0, symSize: 0x48 }
  - { offsetInCU: 0x253D1, offset: 0x253D1, size: 0x8, addend: 0x0, symName: __ZNSt3__14endlB7v160006IcNS_11char_traitsIcEEEERNS_13basic_ostreamIT_T0_EES7_, symObjAddr: 0x5D0, symBinAddr: 0x100001144, symSize: 0x58 }
  - { offsetInCU: 0x25411, offset: 0x25411, size: 0x8, addend: 0x0, symName: __ZNSt3__1eqB7v160006IcNS_11char_traitsIcEENS_9allocatorIcEEEEbRKNS_12basic_stringIT_T0_T1_EEPKS6_, symObjAddr: 0x65C, symBinAddr: 0x1000011D0, symSize: 0x5C }
  - { offsetInCU: 0x25CD4, offset: 0x25CD4, size: 0x8, addend: 0x0, symName: __ZNSt3__1lsB7v160006IcNS_11char_traitsIcEENS_9allocatorIcEEEERNS_13basic_ostreamIT_T0_EES9_RKNS_12basic_stringIS6_S7_T1_EE, symObjAddr: 0x84C, symBinAddr: 0x1000013C0, symSize: 0x4C }
  - { offsetInCU: 0x29C6E, offset: 0x29C6E, size: 0x8, addend: 0x0, symName: __ZNSt3__1lsB7v160006INS_11char_traitsIcEEEERNS_13basic_ostreamIcT_EES6_c, symObjAddr: 0xEA4, symBinAddr: 0x100001A18, symSize: 0x34 }
  - { offsetInCU: 0x29CC0, offset: 0x29CC0, size: 0x8, addend: 0x0, symName: __ZNSt3__119__debug_db_insert_cB7v160006INS_12basic_stringIcNS_11char_traitsIcEENS_9allocatorIcEEEEEEvPT_, symObjAddr: 0xFF4, symBinAddr: 0x100001B68, symSize: 0x10 }
  - { offsetInCU: 0x29CF3, offset: 0x29CF3, size: 0x8, addend: 0x0, symName: __ZNSt3__118__constexpr_strlenB7v160006EPKc, symObjAddr: 0x10C0, symBinAddr: 0x100001C34, symSize: 0x24 }
  - { offsetInCU: 0x29D20, offset: 0x29D20, size: 0x8, addend: 0x0, symName: __ZNSt3__1eqB7v160006IcNS_11char_traitsIcEEEEbNS_17basic_string_viewIT_T0_EES6_, symObjAddr: 0x10E4, symBinAddr: 0x100001C58, symSize: 0xB0 }
  - { offsetInCU: 0x29D70, offset: 0x29D70, size: 0x8, addend: 0x0, symName: __ZNSt3__13minB7v160006ImEERKT_S3_S3_, symObjAddr: 0x136C, symBinAddr: 0x100001EE0, symSize: 0x2C }
  - { offsetInCU: 0x29DB6, offset: 0x29DB6, size: 0x8, addend: 0x0, symName: __ZNSt3__13minB7v160006ImNS_6__lessImmEEEERKT_S5_S5_T0_, symObjAddr: 0x141C, symBinAddr: 0x100001F90, symSize: 0x54 }
  - { offsetInCU: 0x29E4F, offset: 0x29E4F, size: 0x8, addend: 0x0, symName: __ZNSt3__118__constexpr_memcmpB7v160006IcEEiPKT_S3_m, symObjAddr: 0x14A4, symBinAddr: 0x100002018, symSize: 0x34 }
  - { offsetInCU: 0x29EA4, offset: 0x29EA4, size: 0x8, addend: 0x0, symName: __ZNSt3__112__to_addressB7v160006IKcEEPT_S3_, symObjAddr: 0x1590, symBinAddr: 0x100002104, symSize: 0x14 }
  - { offsetInCU: 0x29F0E, offset: 0x29F0E, size: 0x8, addend: 0x0, symName: __ZNSt3__128__char_traits_length_checkedB7v160006INS_11char_traitsIcEEEEmPKNT_9char_typeE, symObjAddr: 0x17BC, symBinAddr: 0x100002330, symSize: 0x24 }
  - { offsetInCU: 0x29F62, offset: 0x29F62, size: 0x8, addend: 0x0, symName: __ZNSt3__1eqB7v160006IcNS_11char_traitsIcEEEEbRKNS_19istreambuf_iteratorIT_T0_EES8_, symObjAddr: 0x19C0, symBinAddr: 0x100002534, symSize: 0x30 }
  - { offsetInCU: 0x29FB0, offset: 0x29FB0, size: 0x8, addend: 0x0, symName: __ZNSt3__119__libcpp_deallocateB7v160006EPvmm, symObjAddr: 0x1D6C, symBinAddr: 0x1000028E0, symSize: 0x60 }
  - { offsetInCU: 0x2A015, offset: 0x2A015, size: 0x8, addend: 0x0, symName: __ZNSt3__124__is_overaligned_for_newB7v160006Em, symObjAddr: 0x1DCC, symBinAddr: 0x100002940, symSize: 0x20 }
  - { offsetInCU: 0x2A043, offset: 0x2A043, size: 0x8, addend: 0x0, symName: __ZNSt3__127__do_deallocate_handle_sizeB7v160006IJSt11align_val_tEEEvPvmDpT_, symObjAddr: 0x1DEC, symBinAddr: 0x100002960, symSize: 0x30 }
  - { offsetInCU: 0x2A096, offset: 0x2A096, size: 0x8, addend: 0x0, symName: __ZNSt3__127__do_deallocate_handle_sizeB7v160006IJEEEvPvmDpT_, symObjAddr: 0x1E1C, symBinAddr: 0x100002990, symSize: 0x28 }
  - { offsetInCU: 0x2A0D4, offset: 0x2A0D4, size: 0x8, addend: 0x0, symName: __ZNSt3__124__libcpp_operator_deleteB7v160006IJPvSt11align_val_tEEEvDpT_, symObjAddr: 0x1E44, symBinAddr: 0x1000029B8, symSize: 0x2C }
  - { offsetInCU: 0x2A11D, offset: 0x2A11D, size: 0x8, addend: 0x0, symName: __ZNSt3__124__libcpp_operator_deleteB7v160006IJPvEEEvDpT_, symObjAddr: 0x1E70, symBinAddr: 0x1000029E4, symSize: 0x24 }
  - { offsetInCU: 0x2A153, offset: 0x2A153, size: 0x8, addend: 0x0, symName: __ZNSt3__1neB7v160006IPK5TokenEEbRKNS_11__wrap_iterIT_EES8_, symObjAddr: 0x1F2C, symBinAddr: 0x100002AA0, symSize: 0x34 }
  - { offsetInCU: 0x2A198, offset: 0x2A198, size: 0x8, addend: 0x0, symName: __ZNSt3__15flushB7v160006IcNS_11char_traitsIcEEEERNS_13basic_ostreamIT_T0_EES7_, symObjAddr: 0x268C, symBinAddr: 0x100003200, symSize: 0x28 }
  - { offsetInCU: 0x2A1D9, offset: 0x2A1D9, size: 0x8, addend: 0x0, symName: __ZNSt3__1eqB7v160006IPK5TokenEEbRKNS_11__wrap_iterIT_EES8_, symObjAddr: 0x2748, symBinAddr: 0x1000032BC, symSize: 0x48 }
  - { offsetInCU: 0x2A21F, offset: 0x2A21F, size: 0x8, addend: 0x0, symName: __ZNSt3__1neB7v160006IPKcEEbRKNS_11__wrap_iterIT_EES7_, symObjAddr: 0x2848, symBinAddr: 0x1000033BC, symSize: 0x34 }
  - { offsetInCU: 0x2A265, offset: 0x2A265, size: 0x8, addend: 0x0, symName: __ZNSt3__1eqB7v160006IPKcEEbRKNS_11__wrap_iterIT_EES7_, symObjAddr: 0x2948, symBinAddr: 0x1000034BC, symSize: 0x48 }
  - { offsetInCU: 0x2A2AB, offset: 0x2A2AB, size: 0x8, addend: 0x0, symName: __ZNSt3__1neB7v160006IPKP7AstNodeEEbRKNS_11__wrap_iterIT_EES9_, symObjAddr: 0x2C00, symBinAddr: 0x100003774, symSize: 0x34 }
  - { offsetInCU: 0x2A88A, offset: 0x2A88A, size: 0x8, addend: 0x0, symName: __ZNSt3__1eqB7v160006INS_3mapINS_12basic_stringIcNS_11char_traitsIcEENS_9allocatorIcEEEEN8nlohmann16json_abi_v3_12_010basic_jsonIS1_NS_6vectorES7_bxydS5_NS9_14adl_serializerENSB_IhNS5_IhEEEEvEENS_4lessIvEENS5_INS_4pairIKS7_SF_EEEEEEZNSF_6createISM_JEEEPT_DpOT0_EUlPSM_E_EEbRKNS_10unique_ptrISO_T0_EEDn, symObjAddr: 0x3928, symBinAddr: 0x10000449C, symSize: 0x30 }
  - { offsetInCU: 0x2A8D5, offset: 0x2A8D5, size: 0x8, addend: 0x0, symName: __ZNSt3__117__libcpp_allocateB7v160006Emm, symObjAddr: 0x3AC0, symBinAddr: 0x100004634, symSize: 0x60 }
  - { offsetInCU: 0x2AB1B, offset: 0x2AB1B, size: 0x8, addend: 0x0, symName: __ZNSt3__121__libcpp_operator_newB7v160006IJmSt11align_val_tEEEPvDpT_, symObjAddr: 0x3B3C, symBinAddr: 0x1000046B0, symSize: 0x2C }
  - { offsetInCU: 0x2AB68, offset: 0x2AB68, size: 0x8, addend: 0x0, symName: __ZNSt3__121__libcpp_operator_newB7v160006IJmEEEPvDpT_, symObjAddr: 0x3B68, symBinAddr: 0x1000046DC, symSize: 0x24 }
  - { offsetInCU: 0x2ABC9, offset: 0x2ABC9, size: 0x8, addend: 0x0, symName: __ZNSt3__112construct_atB7v160006INS_3mapINS_12basic_stringIcNS_11char_traitsIcEENS_9allocatorIcEEEEN8nlohmann16json_abi_v3_12_010basic_jsonIS1_NS_6vectorES7_bxydS5_NS9_14adl_serializerENSB_IhNS5_IhEEEEvEENS_4lessIvEENS5_INS_4pairIKS7_SF_EEEEEEJEPSM_EEPT_SP_DpOT0_, symObjAddr: 0x3CA0, symBinAddr: 0x100004814, symSize: 0x34 }
  - { offsetInCU: 0x2B231, offset: 0x2B231, size: 0x8, addend: 0x0, symName: __ZNSt3__1eqB7v160006INS_6vectorIN8nlohmann16json_abi_v3_12_010basic_jsonINS_3mapES1_NS_12basic_stringIcNS_11char_traitsIcEENS_9allocatorIcEEEEbxydS9_NS3_14adl_serializerENS1_IhNS9_IhEEEEvEENS9_ISF_EEEEZNSF_6createISH_JEEEPT_DpOT0_EUlPSH_E_EEbRKNS_10unique_ptrISJ_T0_EEDn, symObjAddr: 0x43D4, symBinAddr: 0x100004F48, symSize: 0x30 }
  - { offsetInCU: 0x2B2A4, offset: 0x2B2A4, size: 0x8, addend: 0x0, symName: __ZNSt3__112construct_atB7v160006INS_6vectorIN8nlohmann16json_abi_v3_12_010basic_jsonINS_3mapES1_NS_12basic_stringIcNS_11char_traitsIcEENS_9allocatorIcEEEEbxydS9_NS3_14adl_serializerENS1_IhNS9_IhEEEEvEENS9_ISF_EEEEJEPSH_EEPT_SK_DpOT0_, symObjAddr: 0x464C, symBinAddr: 0x1000051C0, symSize: 0x34 }
  - { offsetInCU: 0x2B304, offset: 0x2B304, size: 0x8, addend: 0x0, symName: __ZNSt3__119__debug_db_insert_cB7v160006INS_6vectorIN8nlohmann16json_abi_v3_12_010basic_jsonINS_3mapES1_NS_12basic_stringIcNS_11char_traitsIcEENS_9allocatorIcEEEEbxydS9_NS3_14adl_serializerENS1_IhNS9_IhEEEEvEENS9_ISF_EEEEEEvPT_, symObjAddr: 0x4740, symBinAddr: 0x1000052B4, symSize: 0x10 }
  - { offsetInCU: 0x2B681, offset: 0x2B681, size: 0x8, addend: 0x0, symName: __ZNSt3__1eqB7v160006INS_12basic_stringIcNS_11char_traitsIcEENS_9allocatorIcEEEEZN8nlohmann16json_abi_v3_12_010basic_jsonINS_3mapENS_6vectorES6_bxydS4_NS8_14adl_serializerENSB_IhNS4_IhEEEEvE6createIS6_JRA1_KcEEEPT_DpOT0_EUlPS6_E_EEbRKNS_10unique_ptrISK_T0_EEDn, symObjAddr: 0x4B40, symBinAddr: 0x1000056B4, symSize: 0x30 }
  - { offsetInCU: 0x2B6F4, offset: 0x2B6F4, size: 0x8, addend: 0x0, symName: __ZNSt3__112construct_atB7v160006INS_12basic_stringIcNS_11char_traitsIcEENS_9allocatorIcEEEEJRA1_KcEPS6_EEPT_SC_DpOT0_, symObjAddr: 0x4DB8, symBinAddr: 0x10000592C, symSize: 0x3C }
  - { offsetInCU: 0x2BD02, offset: 0x2BD02, size: 0x8, addend: 0x0, symName: __ZNSt3__1eqB7v160006IN8nlohmann16json_abi_v3_12_027byte_container_with_subtypeINS_6vectorIhNS_9allocatorIhEEEEEEZNS2_10basic_jsonINS_3mapES4_NS_12basic_stringIcNS_11char_traitsIcEENS5_IcEEEEbxydS5_NS2_14adl_serializerES7_vE6createIS8_JEEEPT_DpOT0_EUlPS8_E_EEbRKNS_10unique_ptrISJ_T0_EEDn, symObjAddr: 0x5114, symBinAddr: 0x100005C88, symSize: 0x30 }
  - { offsetInCU: 0x2BD75, offset: 0x2BD75, size: 0x8, addend: 0x0, symName: __ZNSt3__112construct_atB7v160006IN8nlohmann16json_abi_v3_12_027byte_container_with_subtypeINS_6vectorIhNS_9allocatorIhEEEEEEJEPS8_EEPT_SB_DpOT0_, symObjAddr: 0x538C, symBinAddr: 0x100005F00, symSize: 0x34 }
  - { offsetInCU: 0x2BDD5, offset: 0x2BDD5, size: 0x8, addend: 0x0, symName: __ZNSt3__119__debug_db_insert_cB7v160006INS_6vectorIhNS_9allocatorIhEEEEEEvPT_, symObjAddr: 0x54B4, symBinAddr: 0x100006028, symSize: 0x10 }
  - { offsetInCU: 0x2BE08, offset: 0x2BE08, size: 0x8, addend: 0x0, symName: __ZNSt3__14moveB7v160006INS_11__wrap_iterIPN8nlohmann16json_abi_v3_12_010basic_jsonINS_3mapENS_6vectorENS_12basic_stringIcNS_11char_traitsIcEENS_9allocatorIcEEEEbxydSA_NS3_14adl_serializerENS6_IhNSA_IhEEEEvEEEENS_20back_insert_iteratorINS6_ISG_NSA_ISG_EEEEEEEET0_T_SO_SN_, symObjAddr: 0x6A70, symBinAddr: 0x1000075E4, symSize: 0x60 }
  - { offsetInCU: 0x2BE66, offset: 0x2BE66, size: 0x8, addend: 0x0, symName: __ZNSt3__113back_inserterB7v160006INS_6vectorIN8nlohmann16json_abi_v3_12_010basic_jsonINS_3mapES1_NS_12basic_stringIcNS_11char_traitsIcEENS_9allocatorIcEEEEbxydS9_NS3_14adl_serializerENS1_IhNS9_IhEEEEvEENS9_ISF_EEEEEENS_20back_insert_iteratorIT_EERSJ_, symObjAddr: 0x6B30, symBinAddr: 0x1000076A4, symSize: 0x2C }
  - { offsetInCU: 0x2BE9C, offset: 0x2BE9C, size: 0x8, addend: 0x0, symName: __ZNSt3__1neB7v160006ERKNS_14__map_iteratorINS_15__tree_iteratorINS_12__value_typeINS_12basic_stringIcNS_11char_traitsIcEENS_9allocatorIcEEEEN8nlohmann16json_abi_v3_12_010basic_jsonINS_3mapENS_6vectorES8_bxydS6_NSA_14adl_serializerENSD_IhNS6_IhEEEEvEEEEPNS_11__tree_nodeISI_PvEElEEEESQ_, symObjAddr: 0x6BF4, symBinAddr: 0x100007768, symSize: 0x30 }
  - { offsetInCU: 0x2C0C4, offset: 0x2C0C4, size: 0x8, addend: 0x0, symName: __ZNSt3__120__throw_length_errorB7v160006EPKc, symObjAddr: 0x727C, symBinAddr: 0x100007DF0, symSize: 0x64 }
  - { offsetInCU: 0x2C0EE, offset: 0x2C0EE, size: 0x8, addend: 0x0, symName: __ZNSt3__119__allocate_at_leastB7v160006INS_9allocatorIN8nlohmann16json_abi_v3_12_010basic_jsonINS_3mapENS_6vectorENS_12basic_stringIcNS_11char_traitsIcEENS1_IcEEEEbxydS1_NS3_14adl_serializerENS6_IhNS1_IhEEEEvEEEEEENS_19__allocation_resultINS_16allocator_traitsIT_E7pointerEEERSJ_m, symObjAddr: 0x74A8, symBinAddr: 0x10000801C, symSize: 0x40 }
  - { offsetInCU: 0x2C133, offset: 0x2C133, size: 0x8, addend: 0x0, symName: __ZNSt3__142__uninitialized_allocator_move_if_noexceptB7v160006INS_9allocatorIN8nlohmann16json_abi_v3_12_010basic_jsonINS_3mapENS_6vectorENS_12basic_stringIcNS_11char_traitsIcEENS1_IcEEEEbxydS1_NS3_14adl_serializerENS6_IhNS1_IhEEEEvEEEENS_16reverse_iteratorIPSF_EESJ_SJ_EET2_RT_T0_T1_SK_, symObjAddr: 0x7728, symBinAddr: 0x10000829C, symSize: 0x12C }
  - { offsetInCU: 0x2C1D4, offset: 0x2C1D4, size: 0x8, addend: 0x0, symName: __ZNSt3__14swapB7v160006IPN8nlohmann16json_abi_v3_12_010basic_jsonINS_3mapENS_6vectorENS_12basic_stringIcNS_11char_traitsIcEENS_9allocatorIcEEEEbxydS9_NS2_14adl_serializerENS5_IhNS9_IhEEEEvEEEENS_9enable_ifIXaasr21is_move_constructibleIT_EE5valuesr18is_move_assignableISI_EE5valueEvE4typeERSI_SL_, symObjAddr: 0x78A0, symBinAddr: 0x100008414, symSize: 0x3C }
  - { offsetInCU: 0x2C229, offset: 0x2C229, size: 0x8, addend: 0x0, symName: __ZNSt3__125__debug_db_invalidate_allB7v160006INS_6vectorIN8nlohmann16json_abi_v3_12_010basic_jsonINS_3mapES1_NS_12basic_stringIcNS_11char_traitsIcEENS_9allocatorIcEEEEbxydS9_NS3_14adl_serializerENS1_IhNS9_IhEEEEvEENS9_ISF_EEEEEEvPT_, symObjAddr: 0x79B0, symBinAddr: 0x100008524, symSize: 0x10 }
  - { offsetInCU: 0x2C25C, offset: 0x2C25C, size: 0x8, addend: 0x0, symName: __ZNSt3__112__to_addressB7v160006IN8nlohmann16json_abi_v3_12_010basic_jsonINS_3mapENS_6vectorENS_12basic_stringIcNS_11char_traitsIcEENS_9allocatorIcEEEEbxydS9_NS2_14adl_serializerENS5_IhNS9_IhEEEEvEEEEPT_SH_, symObjAddr: 0x7A08, symBinAddr: 0x10000857C, symSize: 0x14 }
  - { offsetInCU: 0x2C293, offset: 0x2C293, size: 0x8, addend: 0x0, symName: __ZNSt3__122__make_exception_guardB7v160006INS_29_AllocatorDestroyRangeReverseINS_9allocatorIN8nlohmann16json_abi_v3_12_010basic_jsonINS_3mapENS_6vectorENS_12basic_stringIcNS_11char_traitsIcEENS2_IcEEEEbxydS2_NS4_14adl_serializerENS7_IhNS2_IhEEEEvEEEENS_16reverse_iteratorIPSG_EEEEEENS_28__exception_guard_exceptionsIT_EESN_, symObjAddr: 0x7A1C, symBinAddr: 0x100008590, symSize: 0x4C }
  - { offsetInCU: 0x2C2CB, offset: 0x2C2CB, size: 0x8, addend: 0x0, symName: __ZNSt3__1neB7v160006IPN8nlohmann16json_abi_v3_12_010basic_jsonINS_3mapENS_6vectorENS_12basic_stringIcNS_11char_traitsIcEENS_9allocatorIcEEEEbxydS9_NS2_14adl_serializerENS5_IhNS9_IhEEEEvEESG_EEbRKNS_16reverse_iteratorIT_EERKNSH_IT0_EE, symObjAddr: 0x7AAC, symBinAddr: 0x100008620, symSize: 0x48 }
  - { offsetInCU: 0x2C31A, offset: 0x2C31A, size: 0x8, addend: 0x0, symName: __ZNSt3__112__to_addressB7v160006INS_16reverse_iteratorIPN8nlohmann16json_abi_v3_12_010basic_jsonINS_3mapENS_6vectorENS_12basic_stringIcNS_11char_traitsIcEENS_9allocatorIcEEEEbxydSA_NS3_14adl_serializerENS6_IhNSA_IhEEEEvEEEEvEENS_5decayIDTclsr19__to_address_helperIT_EE6__callclsr3stdE7declvalIRKSK_EEEEE4typeESM_, symObjAddr: 0x7B24, symBinAddr: 0x100008698, symSize: 0x24 }
  - { offsetInCU: 0x2C379, offset: 0x2C379, size: 0x8, addend: 0x0, symName: __ZNSt3__112construct_atB7v160006IN8nlohmann16json_abi_v3_12_010basic_jsonINS_3mapENS_6vectorENS_12basic_stringIcNS_11char_traitsIcEENS_9allocatorIcEEEEbxydS9_NS2_14adl_serializerENS5_IhNS9_IhEEEEvEEJSF_EPSF_EEPT_SI_DpOT0_, symObjAddr: 0x7C74, symBinAddr: 0x1000087E8, symSize: 0x3C }
  - { offsetInCU: 0x2C417, offset: 0x2C417, size: 0x8, addend: 0x0, symName: __ZNSt3__14prevB7v160006IPN8nlohmann16json_abi_v3_12_010basic_jsonINS_3mapENS_6vectorENS_12basic_stringIcNS_11char_traitsIcEENS_9allocatorIcEEEEbxydS9_NS2_14adl_serializerENS5_IhNS9_IhEEEEvEEEENS_9enable_ifIXsr25__is_cpp17_input_iteratorIT_EE5valueESI_E4typeESI_NS_15iterator_traitsISI_E15difference_typeE, symObjAddr: 0x7D14, symBinAddr: 0x100008888, symSize: 0x50 }
  - { offsetInCU: 0x2C45D, offset: 0x2C45D, size: 0x8, addend: 0x0, symName: __ZNSt3__121__convert_to_integralB7v160006El, symObjAddr: 0x7DB4, symBinAddr: 0x100008928, symSize: 0x14 }
  - { offsetInCU: 0x2C48B, offset: 0x2C48B, size: 0x8, addend: 0x0, symName: __ZNSt3__19__advanceB7v160006IPN8nlohmann16json_abi_v3_12_010basic_jsonINS_3mapENS_6vectorENS_12basic_stringIcNS_11char_traitsIcEENS_9allocatorIcEEEEbxydS9_NS2_14adl_serializerENS5_IhNS9_IhEEEEvEEEEvRT_NS_15iterator_traitsISH_E15difference_typeENS_26random_access_iterator_tagE, symObjAddr: 0x7DC8, symBinAddr: 0x10000893C, symSize: 0x28 }
  - { offsetInCU: 0x2C4D7, offset: 0x2C4D7, size: 0x8, addend: 0x0, symName: __ZNSt3__119__allocator_destroyB7v160006INS_9allocatorIN8nlohmann16json_abi_v3_12_010basic_jsonINS_3mapENS_6vectorENS_12basic_stringIcNS_11char_traitsIcEENS1_IcEEEEbxydS1_NS3_14adl_serializerENS6_IhNS1_IhEEEEvEEEENS_16reverse_iteratorINSH_IPSF_EEEESK_EEvRT_T0_T1_, symObjAddr: 0x7EF4, symBinAddr: 0x100008A68, symSize: 0x70 }
  - { offsetInCU: 0x2C53D, offset: 0x2C53D, size: 0x8, addend: 0x0, symName: __ZNSt3__1neB7v160006INS_16reverse_iteratorIPN8nlohmann16json_abi_v3_12_010basic_jsonINS_3mapENS_6vectorENS_12basic_stringIcNS_11char_traitsIcEENS_9allocatorIcEEEEbxydSA_NS3_14adl_serializerENS6_IhNSA_IhEEEEvEEEESI_EEbRKNS1_IT_EERKNS1_IT0_EE, symObjAddr: 0x7FA0, symBinAddr: 0x100008B14, symSize: 0x60 }
  - { offsetInCU: 0x2C58C, offset: 0x2C58C, size: 0x8, addend: 0x0, symName: __ZNSt3__112__to_addressB7v160006INS_16reverse_iteratorINS1_IPN8nlohmann16json_abi_v3_12_010basic_jsonINS_3mapENS_6vectorENS_12basic_stringIcNS_11char_traitsIcEENS_9allocatorIcEEEEbxydSA_NS3_14adl_serializerENS6_IhNSA_IhEEEEvEEEEEEvEENS_5decayIDTclsr19__to_address_helperIT_EE6__callclsr3stdE7declvalIRKSL_EEEEE4typeESN_, symObjAddr: 0x8028, symBinAddr: 0x100008B9C, symSize: 0x24 }
  - { offsetInCU: 0x2C5C4, offset: 0x2C5C4, size: 0x8, addend: 0x0, symName: __ZNSt3__110destroy_atB7v160006IN8nlohmann16json_abi_v3_12_010basic_jsonINS_3mapENS_6vectorENS_12basic_stringIcNS_11char_traitsIcEENS_9allocatorIcEEEEbxydS9_NS2_14adl_serializerENS5_IhNS9_IhEEEEvEELi0EEEvPT_, symObjAddr: 0x80A0, symBinAddr: 0x100008C14, symSize: 0x24 }
  - { offsetInCU: 0x2C5FD, offset: 0x2C5FD, size: 0x8, addend: 0x0, symName: __ZNSt3__112__destroy_atB7v160006IN8nlohmann16json_abi_v3_12_010basic_jsonINS_3mapENS_6vectorENS_12basic_stringIcNS_11char_traitsIcEENS_9allocatorIcEEEEbxydS9_NS2_14adl_serializerENS5_IhNS9_IhEEEEvEELi0EEEvPT_, symObjAddr: 0x80C4, symBinAddr: 0x100008C38, symSize: 0x24 }
  - { offsetInCU: 0x2C65F, offset: 0x2C65F, size: 0x8, addend: 0x0, symName: __ZNSt3__14prevB7v160006INS_16reverse_iteratorIPN8nlohmann16json_abi_v3_12_010basic_jsonINS_3mapENS_6vectorENS_12basic_stringIcNS_11char_traitsIcEENS_9allocatorIcEEEEbxydSA_NS3_14adl_serializerENS6_IhNSA_IhEEEEvEEEEEENS_9enable_ifIXsr25__is_cpp17_input_iteratorIT_EE5valueESK_E4typeESK_NS_15iterator_traitsISK_E15difference_typeE, symObjAddr: 0x816C, symBinAddr: 0x100008CE0, symSize: 0x60 }
  - { offsetInCU: 0x2C6A5, offset: 0x2C6A5, size: 0x8, addend: 0x0, symName: __ZNSt3__19__advanceB7v160006INS_16reverse_iteratorIPN8nlohmann16json_abi_v3_12_010basic_jsonINS_3mapENS_6vectorENS_12basic_stringIcNS_11char_traitsIcEENS_9allocatorIcEEEEbxydSA_NS3_14adl_serializerENS6_IhNSA_IhEEEEvEEEEEEvRT_NS_15iterator_traitsISJ_E15difference_typeENS_26random_access_iterator_tagE, symObjAddr: 0x821C, symBinAddr: 0x100008D90, symSize: 0x2C }
  - { offsetInCU: 0x2C6F2, offset: 0x2C6F2, size: 0x8, addend: 0x0, symName: __ZNSt3__16__moveB7v160006INS_17_ClassicAlgPolicyENS_11__wrap_iterIPN8nlohmann16json_abi_v3_12_010basic_jsonINS_3mapENS_6vectorENS_12basic_stringIcNS_11char_traitsIcEENS_9allocatorIcEEEEbxydSB_NS4_14adl_serializerENS7_IhNSB_IhEEEEvEEEESJ_NS_20back_insert_iteratorINS7_ISH_NSB_ISH_EEEEEEEENS_4pairIT0_T2_EESP_T1_SQ_, symObjAddr: 0x8570, symBinAddr: 0x1000090E4, symSize: 0x5C }
  - { offsetInCU: 0x2C762, offset: 0x2C762, size: 0x8, addend: 0x0, symName: __ZNSt3__123__dispatch_copy_or_moveB7v160006INS_17_ClassicAlgPolicyENS_11__move_loopIS1_EENS_14__move_trivialENS_11__wrap_iterIPN8nlohmann16json_abi_v3_12_010basic_jsonINS_3mapENS_6vectorENS_12basic_stringIcNS_11char_traitsIcEENS_9allocatorIcEEEEbxydSE_NS7_14adl_serializerENSA_IhNSE_IhEEEEvEEEESM_NS_20back_insert_iteratorINSA_ISK_NSE_ISK_EEEEEEEENS_4pairIT2_T4_EESS_T3_ST_, symObjAddr: 0x85CC, symBinAddr: 0x100009140, symSize: 0x5C }
  - { offsetInCU: 0x2C7E4, offset: 0x2C7E4, size: 0x8, addend: 0x0, symName: __ZNSt3__121__unwrap_and_dispatchB7v160006INS_10__overloadINS_11__move_loopINS_17_ClassicAlgPolicyEEENS_14__move_trivialEEENS_11__wrap_iterIPN8nlohmann16json_abi_v3_12_010basic_jsonINS_3mapENS_6vectorENS_12basic_stringIcNS_11char_traitsIcEENS_9allocatorIcEEEEbxydSG_NS9_14adl_serializerENSC_IhNSG_IhEEEEvEEEESO_NS_20back_insert_iteratorINSC_ISM_NSG_ISM_EEEEEELi0EEENS_4pairIT0_T2_EESU_T1_SV_, symObjAddr: 0x8628, symBinAddr: 0x10000919C, symSize: 0xE8 }
  - { offsetInCU: 0x2C879, offset: 0x2C879, size: 0x8, addend: 0x0, symName: __ZNSt3__114__unwrap_rangeB7v160006INS_11__wrap_iterIPN8nlohmann16json_abi_v3_12_010basic_jsonINS_3mapENS_6vectorENS_12basic_stringIcNS_11char_traitsIcEENS_9allocatorIcEEEEbxydSA_NS3_14adl_serializerENS6_IhNSA_IhEEEEvEEEESI_EEDaT_T0_, symObjAddr: 0x8710, symBinAddr: 0x100009284, symSize: 0x4C }
  - { offsetInCU: 0x2C9F7, offset: 0x2C9F7, size: 0x8, addend: 0x0, symName: __ZNSt3__113__unwrap_iterB7v160006INS_20back_insert_iteratorINS_6vectorIN8nlohmann16json_abi_v3_12_010basic_jsonINS_3mapES2_NS_12basic_stringIcNS_11char_traitsIcEENS_9allocatorIcEEEEbxydSA_NS4_14adl_serializerENS2_IhNSA_IhEEEEvEENSA_ISG_EEEEEENS_18__unwrap_iter_implISJ_Lb0EEELi0EEEDTclsrT0_8__unwrapclsr3stdE7declvalIT_EEEESN_, symObjAddr: 0x87F4, symBinAddr: 0x100009368, symSize: 0x34 }
  - { offsetInCU: 0x2CA3C, offset: 0x2CA3C, size: 0x8, addend: 0x0, symName: __ZNSt3__19make_pairB7v160006INS_11__wrap_iterIPN8nlohmann16json_abi_v3_12_010basic_jsonINS_3mapENS_6vectorENS_12basic_stringIcNS_11char_traitsIcEENS_9allocatorIcEEEEbxydSA_NS3_14adl_serializerENS6_IhNSA_IhEEEEvEEEENS_20back_insert_iteratorINS6_ISG_NSA_ISG_EEEEEEEENS_4pairINS_18__unwrap_ref_decayIT_E4typeENSO_IT0_E4typeEEEOSP_OSS_, symObjAddr: 0x8828, symBinAddr: 0x10000939C, symSize: 0x38 }
  - { offsetInCU: 0x2CA8C, offset: 0x2CA8C, size: 0x8, addend: 0x0, symName: __ZNSt3__114__rewrap_rangeB7v160006INS_11__wrap_iterIPN8nlohmann16json_abi_v3_12_010basic_jsonINS_3mapENS_6vectorENS_12basic_stringIcNS_11char_traitsIcEENS_9allocatorIcEEEEbxydSA_NS3_14adl_serializerENS6_IhNSA_IhEEEEvEEEESI_SH_EET0_SJ_T1_, symObjAddr: 0x8860, symBinAddr: 0x1000093D4, symSize: 0x3C }
  - { offsetInCU: 0x2CAE4, offset: 0x2CAE4, size: 0x8, addend: 0x0, symName: __ZNSt3__113__rewrap_iterB7v160006INS_20back_insert_iteratorINS_6vectorIN8nlohmann16json_abi_v3_12_010basic_jsonINS_3mapES2_NS_12basic_stringIcNS_11char_traitsIcEENS_9allocatorIcEEEEbxydSA_NS4_14adl_serializerENS2_IhNSA_IhEEEEvEENSA_ISG_EEEEEESJ_NS_18__unwrap_iter_implISJ_Lb0EEEEET_SM_T0_, symObjAddr: 0x889C, symBinAddr: 0x100009410, symSize: 0x54 }
  - { offsetInCU: 0x2CC58, offset: 0x2CC58, size: 0x8, addend: 0x0, symName: __ZNSt3__113__unwrap_iterB7v160006INS_11__wrap_iterIPN8nlohmann16json_abi_v3_12_010basic_jsonINS_3mapENS_6vectorENS_12basic_stringIcNS_11char_traitsIcEENS_9allocatorIcEEEEbxydSA_NS3_14adl_serializerENS6_IhNSA_IhEEEEvEEEENS_18__unwrap_iter_implISI_Lb1EEELi0EEEDTclsrT0_8__unwrapclsr3stdE7declvalIT_EEEESM_, symObjAddr: 0x8958, symBinAddr: 0x1000094CC, symSize: 0x2C }
  - { offsetInCU: 0x2CCF1, offset: 0x2CCF1, size: 0x8, addend: 0x0, symName: __ZNSt3__112__to_addressB7v160006INS_11__wrap_iterIPN8nlohmann16json_abi_v3_12_010basic_jsonINS_3mapENS_6vectorENS_12basic_stringIcNS_11char_traitsIcEENS_9allocatorIcEEEEbxydSA_NS3_14adl_serializerENS6_IhNSA_IhEEEEvEEEEvEENS_5decayIDTclsr19__to_address_helperIT_EE6__callclsr3stdE7declvalIRKSK_EEEEE4typeESM_, symObjAddr: 0x89E8, symBinAddr: 0x10000955C, symSize: 0x24 }
  - { offsetInCU: 0x2CDFD, offset: 0x2CDFD, size: 0x8, addend: 0x0, symName: __ZNSt3__19make_pairB7v160006IPN8nlohmann16json_abi_v3_12_010basic_jsonINS_3mapENS_6vectorENS_12basic_stringIcNS_11char_traitsIcEENS_9allocatorIcEEEEbxydS9_NS2_14adl_serializerENS5_IhNS9_IhEEEEvEENS_20back_insert_iteratorINS5_ISF_NS9_ISF_EEEEEEEENS_4pairINS_18__unwrap_ref_decayIT_E4typeENSM_IT0_E4typeEEEOSN_OSQ_, symObjAddr: 0x8B3C, symBinAddr: 0x1000096B0, symSize: 0x38 }
  - { offsetInCU: 0x2CF69, offset: 0x2CF69, size: 0x8, addend: 0x0, symName: __ZNSt3__113__rewrap_iterB7v160006INS_11__wrap_iterIPN8nlohmann16json_abi_v3_12_010basic_jsonINS_3mapENS_6vectorENS_12basic_stringIcNS_11char_traitsIcEENS_9allocatorIcEEEEbxydSA_NS3_14adl_serializerENS6_IhNSA_IhEEEEvEEEESH_NS_18__unwrap_iter_implISI_Lb1EEEEET_SL_T0_, symObjAddr: 0x8CB0, symBinAddr: 0x100009824, symSize: 0x4C }
  - { offsetInCU: 0x2CFC0, offset: 0x2CFC0, size: 0x8, addend: 0x0, symName: __ZNSt3__1neB7v160006ERKNS_15__tree_iteratorINS_12__value_typeINS_12basic_stringIcNS_11char_traitsIcEENS_9allocatorIcEEEEN8nlohmann16json_abi_v3_12_010basic_jsonINS_3mapENS_6vectorES7_bxydS5_NS9_14adl_serializerENSC_IhNS5_IhEEEEvEEEEPNS_11__tree_nodeISH_PvEElEESO_, symObjAddr: 0x9034, symBinAddr: 0x100009BA8, symSize: 0x34 }
  - { offsetInCU: 0x2CFFD, offset: 0x2CFFD, size: 0x8, addend: 0x0, symName: __ZNSt3__1eqB7v160006ERKNS_15__tree_iteratorINS_12__value_typeINS_12basic_stringIcNS_11char_traitsIcEENS_9allocatorIcEEEEN8nlohmann16json_abi_v3_12_010basic_jsonINS_3mapENS_6vectorES7_bxydS5_NS9_14adl_serializerENSC_IhNS5_IhEEEEvEEEEPNS_11__tree_nodeISH_PvEElEESO_, symObjAddr: 0x9068, symBinAddr: 0x100009BDC, symSize: 0x30 }
  - { offsetInCU: 0x2D06D, offset: 0x2D06D, size: 0x8, addend: 0x0, symName: __ZNSt3__17launderB7v160006INS_4pairIKNS_12basic_stringIcNS_11char_traitsIcEENS_9allocatorIcEEEEN8nlohmann16json_abi_v3_12_010basic_jsonINS_3mapENS_6vectorES7_bxydS5_NSA_14adl_serializerENSD_IhNS5_IhEEEEvEEEEEEPT_SK_, symObjAddr: 0x9114, symBinAddr: 0x100009C88, symSize: 0x24 }
  - { offsetInCU: 0x2D0A4, offset: 0x2D0A4, size: 0x8, addend: 0x0, symName: __ZNSt3__19__launderB7v160006INS_4pairIKNS_12basic_stringIcNS_11char_traitsIcEENS_9allocatorIcEEEEN8nlohmann16json_abi_v3_12_010basic_jsonINS_3mapENS_6vectorES7_bxydS5_NSA_14adl_serializerENSD_IhNS5_IhEEEEvEEEEEEPT_SK_, symObjAddr: 0x9138, symBinAddr: 0x100009CAC, symSize: 0x14 }
  - { offsetInCU: 0x2D0DC, offset: 0x2D0DC, size: 0x8, addend: 0x0, symName: __ZNSt3__13maxB7v160006ImEERKT_S3_S3_, symObjAddr: 0x9434, symBinAddr: 0x100009FA8, symSize: 0x2C }
  - { offsetInCU: 0x2D122, offset: 0x2D122, size: 0x8, addend: 0x0, symName: __ZNSt3__13maxB7v160006ImNS_6__lessImmEEEERKT_S5_S5_T0_, symObjAddr: 0x9460, symBinAddr: 0x100009FD4, symSize: 0x54 }
  - { offsetInCU: 0x2D180, offset: 0x2D180, size: 0x8, addend: 0x0, symName: __ZNSt3__116__tree_next_iterB7v160006IPNS_15__tree_end_nodeIPNS_16__tree_node_baseIPvEEEES5_EET_T0_, symObjAddr: 0x94EC, symBinAddr: 0x10000A060, symSize: 0x90 }
  - { offsetInCU: 0x2D1C0, offset: 0x2D1C0, size: 0x8, addend: 0x0, symName: __ZNSt3__110__tree_minB7v160006IPNS_16__tree_node_baseIPvEEEET_S5_, symObjAddr: 0x957C, symBinAddr: 0x10000A0F0, symSize: 0x40 }
  - { offsetInCU: 0x2D1F7, offset: 0x2D1F7, size: 0x8, addend: 0x0, symName: __ZNSt3__120__tree_is_left_childB7v160006IPNS_16__tree_node_baseIPvEEEEbT_, symObjAddr: 0x95BC, symBinAddr: 0x10000A130, symSize: 0x2C }
  - { offsetInCU: 0x2D22E, offset: 0x2D22E, size: 0x8, addend: 0x0, symName: __ZNSt3__110destroy_atB7v160006INS_4pairIKNS_12basic_stringIcNS_11char_traitsIcEENS_9allocatorIcEEEEN8nlohmann16json_abi_v3_12_010basic_jsonINS_3mapENS_6vectorES7_bxydS5_NSA_14adl_serializerENSD_IhNS5_IhEEEEvEEEELi0EEEvPT_, symObjAddr: 0x9AAC, symBinAddr: 0x10000A620, symSize: 0x24 }
  - { offsetInCU: 0x2D267, offset: 0x2D267, size: 0x8, addend: 0x0, symName: __ZNSt3__112__destroy_atB7v160006INS_4pairIKNS_12basic_stringIcNS_11char_traitsIcEENS_9allocatorIcEEEEN8nlohmann16json_abi_v3_12_010basic_jsonINS_3mapENS_6vectorES7_bxydS5_NSA_14adl_serializerENSD_IhNS5_IhEEEEvEEEELi0EEEvPT_, symObjAddr: 0x9AD0, symBinAddr: 0x10000A644, symSize: 0x24 }
  - { offsetInCU: 0x2D2A0, offset: 0x2D2A0, size: 0x8, addend: 0x0, symName: __ZNSt3__118__debug_db_erase_cB7v160006INS_6vectorIN8nlohmann16json_abi_v3_12_010basic_jsonINS_3mapES1_NS_12basic_stringIcNS_11char_traitsIcEENS_9allocatorIcEEEEbxydS9_NS3_14adl_serializerENS1_IhNS9_IhEEEEvEENS9_ISF_EEEEEEvPT_, symObjAddr: 0x9D6C, symBinAddr: 0x10000A8E0, symSize: 0x10 }
  - { offsetInCU: 0x2D2D3, offset: 0x2D2D3, size: 0x8, addend: 0x0, symName: __ZNSt3__110destroy_atB7v160006INS_3mapINS_12basic_stringIcNS_11char_traitsIcEENS_9allocatorIcEEEEN8nlohmann16json_abi_v3_12_010basic_jsonIS1_NS_6vectorES7_bxydS5_NS9_14adl_serializerENSB_IhNS5_IhEEEEvEENS_4lessIvEENS5_INS_4pairIKS7_SF_EEEEEELi0EEEvPT_, symObjAddr: 0x9D7C, symBinAddr: 0x10000A8F0, symSize: 0x24 }
  - { offsetInCU: 0x2D30C, offset: 0x2D30C, size: 0x8, addend: 0x0, symName: __ZNSt3__112__destroy_atB7v160006INS_3mapINS_12basic_stringIcNS_11char_traitsIcEENS_9allocatorIcEEEEN8nlohmann16json_abi_v3_12_010basic_jsonIS1_NS_6vectorES7_bxydS5_NS9_14adl_serializerENSB_IhNS5_IhEEEEvEENS_4lessIvEENS5_INS_4pairIKS7_SF_EEEEEELi0EEEvPT_, symObjAddr: 0x9DA0, symBinAddr: 0x10000A914, symSize: 0x24 }
  - { offsetInCU: 0x2D345, offset: 0x2D345, size: 0x8, addend: 0x0, symName: __ZNSt3__110destroy_atB7v160006INS_6vectorIN8nlohmann16json_abi_v3_12_010basic_jsonINS_3mapES1_NS_12basic_stringIcNS_11char_traitsIcEENS_9allocatorIcEEEEbxydS9_NS3_14adl_serializerENS1_IhNS9_IhEEEEvEENS9_ISF_EEEELi0EEEvPT_, symObjAddr: 0x9E80, symBinAddr: 0x10000A9F4, symSize: 0x24 }
  - { offsetInCU: 0x2D37E, offset: 0x2D37E, size: 0x8, addend: 0x0, symName: __ZNSt3__112__destroy_atB7v160006INS_6vectorIN8nlohmann16json_abi_v3_12_010basic_jsonINS_3mapES1_NS_12basic_stringIcNS_11char_traitsIcEENS_9allocatorIcEEEEbxydS9_NS3_14adl_serializerENS1_IhNS9_IhEEEEvEENS9_ISF_EEEELi0EEEvPT_, symObjAddr: 0x9EA4, symBinAddr: 0x10000AA18, symSize: 0x24 }
  - { offsetInCU: 0x2D3B7, offset: 0x2D3B7, size: 0x8, addend: 0x0, symName: __ZNSt3__110destroy_atB7v160006INS_12basic_stringIcNS_11char_traitsIcEENS_9allocatorIcEEEELi0EEEvPT_, symObjAddr: 0x9EC8, symBinAddr: 0x10000AA3C, symSize: 0x24 }
  - { offsetInCU: 0x2D3F0, offset: 0x2D3F0, size: 0x8, addend: 0x0, symName: __ZNSt3__112__destroy_atB7v160006INS_12basic_stringIcNS_11char_traitsIcEENS_9allocatorIcEEEELi0EEEvPT_, symObjAddr: 0x9EEC, symBinAddr: 0x10000AA60, symSize: 0x24 }
  - { offsetInCU: 0x2D429, offset: 0x2D429, size: 0x8, addend: 0x0, symName: __ZNSt3__110destroy_atB7v160006IN8nlohmann16json_abi_v3_12_027byte_container_with_subtypeINS_6vectorIhNS_9allocatorIhEEEEEELi0EEEvPT_, symObjAddr: 0x9F10, symBinAddr: 0x10000AA84, symSize: 0x24 }
  - { offsetInCU: 0x2D462, offset: 0x2D462, size: 0x8, addend: 0x0, symName: __ZNSt3__112__destroy_atB7v160006IN8nlohmann16json_abi_v3_12_027byte_container_with_subtypeINS_6vectorIhNS_9allocatorIhEEEEEELi0EEEvPT_, symObjAddr: 0x9F34, symBinAddr: 0x10000AAA8, symSize: 0x24 }
  - { offsetInCU: 0x2D49B, offset: 0x2D49B, size: 0x8, addend: 0x0, symName: __ZNSt3__118__debug_db_erase_cB7v160006INS_6vectorIhNS_9allocatorIhEEEEEEvPT_, symObjAddr: 0xA19C, symBinAddr: 0x10000AD10, symSize: 0x10 }
  - { offsetInCU: 0x2D4CE, offset: 0x2D4CE, size: 0x8, addend: 0x0, symName: __ZNSt3__112__to_addressB7v160006IhEEPT_S2_, symObjAddr: 0xA2D0, symBinAddr: 0x10000AE44, symSize: 0x14 }
  - { offsetInCU: 0x2D505, offset: 0x2D505, size: 0x8, addend: 0x0, symName: __ZNSt3__110destroy_atB7v160006IhLi0EEEvPT_, symObjAddr: 0xA398, symBinAddr: 0x10000AF0C, symSize: 0x24 }
  - { offsetInCU: 0x2D53E, offset: 0x2D53E, size: 0x8, addend: 0x0, symName: __ZNSt3__112__destroy_atB7v160006IhLi0EEEvPT_, symObjAddr: 0xA3BC, symBinAddr: 0x10000AF30, symSize: 0x10 }
  - { offsetInCU: 0x2D59A, offset: 0x2D59A, size: 0x8, addend: 0x0, symName: __ZNSt3__1ltB7v160006ENS_15strong_orderingENS_20_CmpUnspecifiedParamE, symObjAddr: 0xB1C0, symBinAddr: 0x10000BD34, symSize: 0x24 }
  - { offsetInCU: 0x2D5D3, offset: 0x2D5D3, size: 0x8, addend: 0x0, symName: __ZNSt3__1ssB7v160006IcNS_11char_traitsIcEENS_9allocatorIcEEEEDaRKNS_12basic_stringIT_T0_T1_EESC_, symObjAddr: 0xB1E4, symBinAddr: 0x10000BD58, symSize: 0x5C }
  - { offsetInCU: 0x2D647, offset: 0x2D647, size: 0x8, addend: 0x0, symName: __ZNSt3__1ssB7v160006IcNS_11char_traitsIcEEEEDaNS_17basic_string_viewIT_T0_EES7_, symObjAddr: 0xB274, symBinAddr: 0x10000BDE8, symSize: 0x7C }
  - { offsetInCU: 0x2D696, offset: 0x2D696, size: 0x8, addend: 0x0, symName: __ZNSt3__17launderB7v160006IKNS_4pairIKNS_12basic_stringIcNS_11char_traitsIcEENS_9allocatorIcEEEEN8nlohmann16json_abi_v3_12_010basic_jsonINS_3mapENS_6vectorES7_bxydS5_NSA_14adl_serializerENSD_IhNS5_IhEEEEvEEEEEEPT_SL_, symObjAddr: 0xB308, symBinAddr: 0x10000BE7C, symSize: 0x24 }
  - { offsetInCU: 0x2D6CD, offset: 0x2D6CD, size: 0x8, addend: 0x0, symName: __ZNSt3__19__launderB7v160006IKNS_4pairIKNS_12basic_stringIcNS_11char_traitsIcEENS_9allocatorIcEEEEN8nlohmann16json_abi_v3_12_010basic_jsonINS_3mapENS_6vectorES7_bxydS5_NSA_14adl_serializerENSD_IhNS5_IhEEEEvEEEEEEPT_SL_, symObjAddr: 0xB32C, symBinAddr: 0x10000BEA0, symSize: 0x14 }
  - { offsetInCU: 0x2D74A, offset: 0x2D74A, size: 0x8, addend: 0x0, symName: __ZNSt3__112construct_atB7v160006INS_4pairIKNS_12basic_stringIcNS_11char_traitsIcEENS_9allocatorIcEEEEN8nlohmann16json_abi_v3_12_010basic_jsonINS_3mapENS_6vectorES7_bxydS5_NSA_14adl_serializerENSD_IhNS5_IhEEEEvEEEEJS7_DnEPSI_EEPT_SL_DpOT0_, symObjAddr: 0xB644, symBinAddr: 0x10000C1B8, symSize: 0x44 }
  - { offsetInCU: 0x2D7D3, offset: 0x2D7D3, size: 0x8, addend: 0x0, symName: __ZNSt3__115__debug_db_swapB7v160006INS_12basic_stringIcNS_11char_traitsIcEENS_9allocatorIcEEEEEEvPT_S8_, symObjAddr: 0xB7C0, symBinAddr: 0x10000C334, symSize: 0x14 }
  - { offsetInCU: 0x2D814, offset: 0x2D814, size: 0x8, addend: 0x0, symName: __ZNSt3__127__tree_balance_after_insertB7v160006IPNS_16__tree_node_baseIPvEEEEvT_S5_, symObjAddr: 0xB848, symBinAddr: 0x10000C3BC, symSize: 0x27C }
  - { offsetInCU: 0x2D890, offset: 0x2D890, size: 0x8, addend: 0x0, symName: __ZNSt3__118__tree_left_rotateB7v160006IPNS_16__tree_node_baseIPvEEEEvT_, symObjAddr: 0xBAC4, symBinAddr: 0x10000C638, symSize: 0xD8 }
  - { offsetInCU: 0x2D8D2, offset: 0x2D8D2, size: 0x8, addend: 0x0, symName: __ZNSt3__119__tree_right_rotateB7v160006IPNS_16__tree_node_baseIPvEEEEvT_, symObjAddr: 0xBB9C, symBinAddr: 0x10000C710, symSize: 0xCC }
  - { offsetInCU: 0x2D948, offset: 0x2D948, size: 0x8, addend: 0x0, symName: __ZNSt3__14swapB7v160006IN8nlohmann16json_abi_v3_12_06detail7value_tEEENS_9enable_ifIXaasr21is_move_constructibleIT_EE5valuesr18is_move_assignableIS6_EE5valueEvE4typeERS6_S9_, symObjAddr: 0xC0C0, symBinAddr: 0x10000CC34, symSize: 0x3C }
  - { offsetInCU: 0x2D99D, offset: 0x2D99D, size: 0x8, addend: 0x0, symName: __ZNSt3__14swapB7v160006IN8nlohmann16json_abi_v3_12_010basic_jsonINS_3mapENS_6vectorENS_12basic_stringIcNS_11char_traitsIcEENS_9allocatorIcEEEEbxydS9_NS2_14adl_serializerENS5_IhNS9_IhEEEEvE10json_valueEEENS_9enable_ifIXaasr21is_move_constructibleIT_EE5valuesr18is_move_assignableISI_EE5valueEvE4typeERSI_SL_, symObjAddr: 0xC0FC, symBinAddr: 0x10000CC70, symSize: 0x3C }
  - { offsetInCU: 0x2D9F2, offset: 0x2D9F2, size: 0x8, addend: 0x0, symName: __ZNSt3__16all_ofB7v160006IPKN8nlohmann16json_abi_v3_12_06detail8json_refINS2_10basic_jsonINS_3mapENS_6vectorENS_12basic_stringIcNS_11char_traitsIcEENS_9allocatorIcEEEEbxydSB_NS2_14adl_serializerENS7_IhNSB_IhEEEEvEEEEZNSH_C1ESt16initializer_listISI_EbNS3_7value_tEEUlRSJ_E_EEbT_SQ_T0_, symObjAddr: 0xC4FC, symBinAddr: 0x10000D070, symSize: 0x94 }
  - { offsetInCU: 0x2DD8F, offset: 0x2DD8F, size: 0x8, addend: 0x0, symName: __ZNSt3__1eqB7v160006INS_3mapINS_12basic_stringIcNS_11char_traitsIcEENS_9allocatorIcEEEEN8nlohmann16json_abi_v3_12_010basic_jsonIS1_NS_6vectorES7_bxydS5_NS9_14adl_serializerENSB_IhNS5_IhEEEEvEENS_4lessIvEENS5_INS_4pairIKS7_SF_EEEEEEZNSF_6createISM_JRKSM_EEEPT_DpOT0_EUlPSM_E_EEbRKNS_10unique_ptrISQ_T0_EEDn, symObjAddr: 0xD3C4, symBinAddr: 0x10000DF38, symSize: 0x30 }
  - { offsetInCU: 0x2DDDB, offset: 0x2DDDB, size: 0x8, addend: 0x0, symName: __ZNSt3__112construct_atB7v160006INS_3mapINS_12basic_stringIcNS_11char_traitsIcEENS_9allocatorIcEEEEN8nlohmann16json_abi_v3_12_010basic_jsonIS1_NS_6vectorES7_bxydS5_NS9_14adl_serializerENSB_IhNS5_IhEEEEvEENS_4lessIvEENS5_INS_4pairIKS7_SF_EEEEEEJRKSM_EPSM_EEPT_SR_DpOT0_, symObjAddr: 0xD554, symBinAddr: 0x10000E0C8, symSize: 0x3C }
  - { offsetInCU: 0x2DE4F, offset: 0x2DE4F, size: 0x8, addend: 0x0, symName: __ZNSt3__1neB7v160006ERKNS_20__map_const_iteratorINS_21__tree_const_iteratorINS_12__value_typeINS_12basic_stringIcNS_11char_traitsIcEENS_9allocatorIcEEEEN8nlohmann16json_abi_v3_12_010basic_jsonINS_3mapENS_6vectorES8_bxydS6_NSA_14adl_serializerENSD_IhNS6_IhEEEEvEEEEPNS_11__tree_nodeISI_PvEElEEEESQ_, symObjAddr: 0xD9D4, symBinAddr: 0x10000E548, symSize: 0x30 }
  - { offsetInCU: 0x2DE8C, offset: 0x2DE8C, size: 0x8, addend: 0x0, symName: __ZNSt3__1neB7v160006ERKNS_21__tree_const_iteratorINS_12__value_typeINS_12basic_stringIcNS_11char_traitsIcEENS_9allocatorIcEEEEN8nlohmann16json_abi_v3_12_010basic_jsonINS_3mapENS_6vectorES7_bxydS5_NS9_14adl_serializerENSC_IhNS5_IhEEEEvEEEEPNS_11__tree_nodeISH_PvEElEESO_, symObjAddr: 0xDADC, symBinAddr: 0x10000E650, symSize: 0x34 }
  - { offsetInCU: 0x2DEC9, offset: 0x2DEC9, size: 0x8, addend: 0x0, symName: __ZNSt3__1eqB7v160006ERKNS_21__tree_const_iteratorINS_12__value_typeINS_12basic_stringIcNS_11char_traitsIcEENS_9allocatorIcEEEEN8nlohmann16json_abi_v3_12_010basic_jsonINS_3mapENS_6vectorES7_bxydS5_NS9_14adl_serializerENSC_IhNS5_IhEEEEvEEEEPNS_11__tree_nodeISH_PvEElEESO_, symObjAddr: 0xDB10, symBinAddr: 0x10000E684, symSize: 0x30 }
  - { offsetInCU: 0x2DF2B, offset: 0x2DF2B, size: 0x8, addend: 0x0, symName: __ZNSt3__14nextB7v160006INS_21__tree_const_iteratorINS_12__value_typeINS_12basic_stringIcNS_11char_traitsIcEENS_9allocatorIcEEEEN8nlohmann16json_abi_v3_12_010basic_jsonINS_3mapENS_6vectorES8_bxydS6_NSA_14adl_serializerENSD_IhNS6_IhEEEEvEEEEPNS_11__tree_nodeISI_PvEElEEEENS_9enable_ifIXsr25__is_cpp17_input_iteratorIT_EE5valueESP_E4typeESP_NS_15iterator_traitsISP_E15difference_typeE, symObjAddr: 0xE15C, symBinAddr: 0x10000ECD0, symSize: 0x50 }
  - { offsetInCU: 0x2DF71, offset: 0x2DF71, size: 0x8, addend: 0x0, symName: __ZNSt3__116__tree_prev_iterB7v160006IPNS_16__tree_node_baseIPvEEPNS_15__tree_end_nodeIS4_EEEET_T0_, symObjAddr: 0xE1E4, symBinAddr: 0x10000ED58, symSize: 0x88 }
  - { offsetInCU: 0x2DFC0, offset: 0x2DFC0, size: 0x8, addend: 0x0, symName: __ZNSt3__110__tree_maxB7v160006IPNS_16__tree_node_baseIPvEEEET_S5_, symObjAddr: 0xE26C, symBinAddr: 0x10000EDE0, symSize: 0x40 }
  - { offsetInCU: 0x2DFF7, offset: 0x2DFF7, size: 0x8, addend: 0x0, symName: __ZNSt3__19__advanceB7v160006INS_21__tree_const_iteratorINS_12__value_typeINS_12basic_stringIcNS_11char_traitsIcEENS_9allocatorIcEEEEN8nlohmann16json_abi_v3_12_010basic_jsonINS_3mapENS_6vectorES8_bxydS6_NSA_14adl_serializerENSD_IhNS6_IhEEEEvEEEEPNS_11__tree_nodeISI_PvEElEEEEvRT_NS_15iterator_traitsISO_E15difference_typeENS_26bidirectional_iterator_tagE, symObjAddr: 0xE2FC, symBinAddr: 0x10000EE70, symSize: 0xA4 }
  - { offsetInCU: 0x2E044, offset: 0x2E044, size: 0x8, addend: 0x0, symName: __ZNSt3__112construct_atB7v160006INS_4pairIKNS_12basic_stringIcNS_11char_traitsIcEENS_9allocatorIcEEEEN8nlohmann16json_abi_v3_12_010basic_jsonINS_3mapENS_6vectorES7_bxydS5_NSA_14adl_serializerENSD_IhNS5_IhEEEEvEEEEJRKSI_EPSI_EEPT_SN_DpOT0_, symObjAddr: 0xE408, symBinAddr: 0x10000EF7C, symSize: 0x3C }
  - { offsetInCU: 0x2E42B, offset: 0x2E42B, size: 0x8, addend: 0x0, symName: __ZNSt3__1eqB7v160006INS_6vectorIN8nlohmann16json_abi_v3_12_010basic_jsonINS_3mapES1_NS_12basic_stringIcNS_11char_traitsIcEENS_9allocatorIcEEEEbxydS9_NS3_14adl_serializerENS1_IhNS9_IhEEEEvEENS9_ISF_EEEEZNSF_6createISH_JRKSH_EEEPT_DpOT0_EUlPSH_E_EEbRKNS_10unique_ptrISL_T0_EEDn, symObjAddr: 0xE978, symBinAddr: 0x10000F4EC, symSize: 0x30 }
  - { offsetInCU: 0x2E477, offset: 0x2E477, size: 0x8, addend: 0x0, symName: __ZNSt3__112construct_atB7v160006INS_6vectorIN8nlohmann16json_abi_v3_12_010basic_jsonINS_3mapES1_NS_12basic_stringIcNS_11char_traitsIcEENS_9allocatorIcEEEEbxydS9_NS3_14adl_serializerENS1_IhNS9_IhEEEEvEENS9_ISF_EEEEJRKSH_EPSH_EEPT_SM_DpOT0_, symObjAddr: 0xEB08, symBinAddr: 0x10000F67C, symSize: 0x3C }
  - { offsetInCU: 0x2E4EC, offset: 0x2E4EC, size: 0x8, addend: 0x0, symName: __ZNSt3__122__make_exception_guardB7v160006INS_6vectorIN8nlohmann16json_abi_v3_12_010basic_jsonINS_3mapES1_NS_12basic_stringIcNS_11char_traitsIcEENS_9allocatorIcEEEEbxydS9_NS3_14adl_serializerENS1_IhNS9_IhEEEEvEENS9_ISF_EEE16__destroy_vectorEEENS_28__exception_guard_exceptionsIT_EESK_, symObjAddr: 0xECD4, symBinAddr: 0x10000F848, symSize: 0x40 }
  - { offsetInCU: 0x2E522, offset: 0x2E522, size: 0x8, addend: 0x0, symName: __ZNSt3__130__uninitialized_allocator_copyB7v160006INS_9allocatorIN8nlohmann16json_abi_v3_12_010basic_jsonINS_3mapENS_6vectorENS_12basic_stringIcNS_11char_traitsIcEENS1_IcEEEEbxydS1_NS3_14adl_serializerENS6_IhNS1_IhEEEEvEEEEPSF_SH_SH_EET2_RT_T0_T1_SI_, symObjAddr: 0xEF48, symBinAddr: 0x10000FABC, symSize: 0xF4 }
  - { offsetInCU: 0x2E5C1, offset: 0x2E5C1, size: 0x8, addend: 0x0, symName: __ZNSt3__122__make_exception_guardB7v160006INS_29_AllocatorDestroyRangeReverseINS_9allocatorIN8nlohmann16json_abi_v3_12_010basic_jsonINS_3mapENS_6vectorENS_12basic_stringIcNS_11char_traitsIcEENS2_IcEEEEbxydS2_NS4_14adl_serializerENS7_IhNS2_IhEEEEvEEEEPSG_EEEENS_28__exception_guard_exceptionsIT_EESL_, symObjAddr: 0xF03C, symBinAddr: 0x10000FBB0, symSize: 0x4C }
  - { offsetInCU: 0x2E5F9, offset: 0x2E5F9, size: 0x8, addend: 0x0, symName: __ZNSt3__112construct_atB7v160006IN8nlohmann16json_abi_v3_12_010basic_jsonINS_3mapENS_6vectorENS_12basic_stringIcNS_11char_traitsIcEENS_9allocatorIcEEEEbxydS9_NS2_14adl_serializerENS5_IhNS9_IhEEEEvEEJRSF_EPSF_EEPT_SJ_DpOT0_, symObjAddr: 0xF1E0, symBinAddr: 0x10000FD54, symSize: 0x3C }
  - { offsetInCU: 0x2E66D, offset: 0x2E66D, size: 0x8, addend: 0x0, symName: __ZNSt3__119__allocator_destroyB7v160006INS_9allocatorIN8nlohmann16json_abi_v3_12_010basic_jsonINS_3mapENS_6vectorENS_12basic_stringIcNS_11char_traitsIcEENS1_IcEEEEbxydS1_NS3_14adl_serializerENS6_IhNS1_IhEEEEvEEEENS_16reverse_iteratorIPSF_EESJ_EEvRT_T0_T1_, symObjAddr: 0xF2D4, symBinAddr: 0x10000FE48, symSize: 0x70 }
  - { offsetInCU: 0x2EA10, offset: 0x2EA10, size: 0x8, addend: 0x0, symName: __ZNSt3__1eqB7v160006INS_12basic_stringIcNS_11char_traitsIcEENS_9allocatorIcEEEEZN8nlohmann16json_abi_v3_12_010basic_jsonINS_3mapENS_6vectorES6_bxydS4_NS8_14adl_serializerENSB_IhNS4_IhEEEEvE6createIS6_JRKS6_EEEPT_DpOT0_EUlPS6_E_EEbRKNS_10unique_ptrISJ_T0_EEDn, symObjAddr: 0xF6F4, symBinAddr: 0x100010268, symSize: 0x30 }
  - { offsetInCU: 0x2EA5C, offset: 0x2EA5C, size: 0x8, addend: 0x0, symName: __ZNSt3__112construct_atB7v160006INS_12basic_stringIcNS_11char_traitsIcEENS_9allocatorIcEEEEJRKS6_EPS6_EEPT_SB_DpOT0_, symObjAddr: 0xF884, symBinAddr: 0x1000103F8, symSize: 0x3C }
  - { offsetInCU: 0x2EE10, offset: 0x2EE10, size: 0x8, addend: 0x0, symName: __ZNSt3__1eqB7v160006IN8nlohmann16json_abi_v3_12_027byte_container_with_subtypeINS_6vectorIhNS_9allocatorIhEEEEEEZNS2_10basic_jsonINS_3mapES4_NS_12basic_stringIcNS_11char_traitsIcEENS5_IcEEEEbxydS5_NS2_14adl_serializerES7_vE6createIS8_JRKS8_EEEPT_DpOT0_EUlPS8_E_EEbRKNS_10unique_ptrISL_T0_EEDn, symObjAddr: 0xFC8C, symBinAddr: 0x100010800, symSize: 0x30 }
  - { offsetInCU: 0x2EE5C, offset: 0x2EE5C, size: 0x8, addend: 0x0, symName: __ZNSt3__112construct_atB7v160006IN8nlohmann16json_abi_v3_12_027byte_container_with_subtypeINS_6vectorIhNS_9allocatorIhEEEEEEJRKS8_EPS8_EEPT_SD_DpOT0_, symObjAddr: 0xFE1C, symBinAddr: 0x100010990, symSize: 0x3C }
  - { offsetInCU: 0x2EED1, offset: 0x2EED1, size: 0x8, addend: 0x0, symName: __ZNSt3__122__make_exception_guardB7v160006INS_6vectorIhNS_9allocatorIhEEE16__destroy_vectorEEENS_28__exception_guard_exceptionsIT_EES7_, symObjAddr: 0x10058, symBinAddr: 0x100010BCC, symSize: 0x40 }
  - { offsetInCU: 0x2EF08, offset: 0x2EF08, size: 0x8, addend: 0x0, symName: __ZNSt3__119__allocate_at_leastB7v160006INS_9allocatorIhEEEENS_19__allocation_resultINS_16allocator_traitsIT_E7pointerEEERS5_m, symObjAddr: 0x10380, symBinAddr: 0x100010EF4, symSize: 0x40 }
  - { offsetInCU: 0x2EF4D, offset: 0x2EF4D, size: 0x8, addend: 0x0, symName: __ZNSt3__130__uninitialized_allocator_copyB7v160006INS_9allocatorIhEEPhS3_S3_EET2_RT_T0_T1_S4_, symObjAddr: 0x10588, symBinAddr: 0x1000110FC, symSize: 0xF4 }
  - { offsetInCU: 0x2EFEC, offset: 0x2EFEC, size: 0x8, addend: 0x0, symName: __ZNSt3__122__make_exception_guardB7v160006INS_29_AllocatorDestroyRangeReverseINS_9allocatorIhEEPhEEEENS_28__exception_guard_exceptionsIT_EES7_, symObjAddr: 0x106EC, symBinAddr: 0x100011260, symSize: 0x4C }
  - { offsetInCU: 0x2F04B, offset: 0x2F04B, size: 0x8, addend: 0x0, symName: __ZNSt3__112construct_atB7v160006IhJRhEPhEEPT_S4_DpOT0_, symObjAddr: 0x10890, symBinAddr: 0x100011404, symSize: 0x2C }
  - { offsetInCU: 0x2F0BF, offset: 0x2F0BF, size: 0x8, addend: 0x0, symName: __ZNSt3__119__allocator_destroyB7v160006INS_9allocatorIhEENS_16reverse_iteratorIPhEES5_EEvRT_T0_T1_, symObjAddr: 0x10974, symBinAddr: 0x1000114E8, symSize: 0x70 }
  - { offsetInCU: 0x2F123, offset: 0x2F123, size: 0x8, addend: 0x0, symName: __ZNSt3__1neB7v160006IPhS1_EEbRKNS_16reverse_iteratorIT_EERKNS2_IT0_EE, symObjAddr: 0x10A18, symBinAddr: 0x10001158C, symSize: 0x48 }
  - { offsetInCU: 0x2F172, offset: 0x2F172, size: 0x8, addend: 0x0, symName: __ZNSt3__112__to_addressB7v160006INS_16reverse_iteratorIPhEEvEENS_5decayIDTclsr19__to_address_helperIT_EE6__callclsr3stdE7declvalIRKS5_EEEEE4typeES7_, symObjAddr: 0x10A60, symBinAddr: 0x1000115D4, symSize: 0x24 }
  - { offsetInCU: 0x2F1D3, offset: 0x2F1D3, size: 0x8, addend: 0x0, symName: __ZNSt3__14prevB7v160006IPhEENS_9enable_ifIXsr25__is_cpp17_input_iteratorIT_EE5valueES3_E4typeES3_NS_15iterator_traitsIS3_E15difference_typeE, symObjAddr: 0x10B20, symBinAddr: 0x100011694, symSize: 0x50 }
  - { offsetInCU: 0x2F219, offset: 0x2F219, size: 0x8, addend: 0x0, symName: __ZNSt3__19__advanceB7v160006IPhEEvRT_NS_15iterator_traitsIS2_E15difference_typeENS_26random_access_iterator_tagE, symObjAddr: 0x10BC0, symBinAddr: 0x100011734, symSize: 0x28 }
  - { offsetInCU: 0x2F266, offset: 0x2F266, size: 0x8, addend: 0x0, symName: __ZNSt3__112construct_atB7v160006INS_4pairIKNS_12basic_stringIcNS_11char_traitsIcEENS_9allocatorIcEEEEN8nlohmann16json_abi_v3_12_010basic_jsonINS_3mapENS_6vectorES7_bxydS5_NSA_14adl_serializerENSD_IhNS5_IhEEEEvEEEEJS7_SH_EPSI_EEPT_SL_DpOT0_, symObjAddr: 0x110A4, symBinAddr: 0x100011C18, symSize: 0x44 }
  - { offsetInCU: 0x2F62E, offset: 0x2F62E, size: 0x8, addend: 0x0, symName: __ZNSt3__1eqB7v160006INS_6vectorIN8nlohmann16json_abi_v3_12_010basic_jsonINS_3mapES1_NS_12basic_stringIcNS_11char_traitsIcEENS_9allocatorIcEEEEbxydS9_NS3_14adl_serializerENS1_IhNS9_IhEEEEvEENS9_ISF_EEEEZNSF_6createISH_JPKNS3_6detail8json_refISF_EESN_EEEPT_DpOT0_EUlPSH_E_EEbRKNS_10unique_ptrISO_T0_EEDn, symObjAddr: 0x11208, symBinAddr: 0x100011D7C, symSize: 0x30 }
  - { offsetInCU: 0x2F67A, offset: 0x2F67A, size: 0x8, addend: 0x0, symName: __ZNSt3__112construct_atB7v160006INS_6vectorIN8nlohmann16json_abi_v3_12_010basic_jsonINS_3mapES1_NS_12basic_stringIcNS_11char_traitsIcEENS_9allocatorIcEEEEbxydS9_NS3_14adl_serializerENS1_IhNS9_IhEEEEvEENS9_ISF_EEEEJPKNS3_6detail8json_refISF_EESM_EPSH_EEPT_SP_DpOT0_, symObjAddr: 0x11398, symBinAddr: 0x100011F0C, symSize: 0x4C }
  - { offsetInCU: 0x2F703, offset: 0x2F703, size: 0x8, addend: 0x0, symName: __ZNSt3__18distanceB7v160006IPKN8nlohmann16json_abi_v3_12_06detail8json_refINS2_10basic_jsonINS_3mapENS_6vectorENS_12basic_stringIcNS_11char_traitsIcEENS_9allocatorIcEEEEbxydSB_NS2_14adl_serializerENS7_IhNSB_IhEEEEvEEEEEENS_15iterator_traitsIT_E15difference_typeESM_SM_, symObjAddr: 0x11524, symBinAddr: 0x100012098, symSize: 0x2C }
  - { offsetInCU: 0x2F749, offset: 0x2F749, size: 0x8, addend: 0x0, symName: __ZNSt3__110__distanceB7v160006IPKN8nlohmann16json_abi_v3_12_06detail8json_refINS2_10basic_jsonINS_3mapENS_6vectorENS_12basic_stringIcNS_11char_traitsIcEENS_9allocatorIcEEEEbxydSB_NS2_14adl_serializerENS7_IhNSB_IhEEEEvEEEEEENS_15iterator_traitsIT_E15difference_typeESM_SM_NS_26random_access_iterator_tagE, symObjAddr: 0x115DC, symBinAddr: 0x100012150, symSize: 0x28 }
  - { offsetInCU: 0x2F799, offset: 0x2F799, size: 0x8, addend: 0x0, symName: __ZNSt3__130__uninitialized_allocator_copyB7v160006INS_9allocatorIN8nlohmann16json_abi_v3_12_010basic_jsonINS_3mapENS_6vectorENS_12basic_stringIcNS_11char_traitsIcEENS1_IcEEEEbxydS1_NS3_14adl_serializerENS6_IhNS1_IhEEEEvEEEEPKNS3_6detail8json_refISF_EESL_PSF_EET2_RT_T0_T1_SN_, symObjAddr: 0x11604, symBinAddr: 0x100012178, symSize: 0xF4 }
  - { offsetInCU: 0x2F838, offset: 0x2F838, size: 0x8, addend: 0x0, symName: __ZNSt3__112construct_atB7v160006IN8nlohmann16json_abi_v3_12_010basic_jsonINS_3mapENS_6vectorENS_12basic_stringIcNS_11char_traitsIcEENS_9allocatorIcEEEEbxydS9_NS2_14adl_serializerENS5_IhNS9_IhEEEEvEEJRKNS2_6detail8json_refISF_EEEPSF_EEPT_SN_DpOT0_, symObjAddr: 0x11728, symBinAddr: 0x10001229C, symSize: 0x3C }
  - { offsetInCU: 0x2F8AD, offset: 0x2F8AD, size: 0x8, addend: 0x0, symName: __ZNSt3__1eqB7v160006IPKP7AstNodeEEbRKNS_11__wrap_iterIT_EES9_, symObjAddr: 0x11A3C, symBinAddr: 0x1000125B0, symSize: 0x48 }
  - { offsetInCU: 0x2F8F3, offset: 0x2F8F3, size: 0x8, addend: 0x0, symName: __ZNSt3__118__debug_db_erase_cB7v160006INS_6vectorIP5ScopeNS_9allocatorIS3_EEEEEEvPT_, symObjAddr: 0x11E2C, symBinAddr: 0x1000129A0, symSize: 0x10 }
  - { offsetInCU: 0x2F926, offset: 0x2F926, size: 0x8, addend: 0x0, symName: __ZNSt3__112__to_addressB7v160006IP5ScopeEEPT_S4_, symObjAddr: 0x11F70, symBinAddr: 0x100012AE4, symSize: 0x14 }
  - { offsetInCU: 0x2F95D, offset: 0x2F95D, size: 0x8, addend: 0x0, symName: __ZNSt3__110destroy_atB7v160006IP5ScopeLi0EEEvPT_, symObjAddr: 0x12038, symBinAddr: 0x100012BAC, symSize: 0x24 }
  - { offsetInCU: 0x2F996, offset: 0x2F996, size: 0x8, addend: 0x0, symName: __ZNSt3__112__destroy_atB7v160006IP5ScopeLi0EEEvPT_, symObjAddr: 0x1205C, symBinAddr: 0x100012BD0, symSize: 0x10 }
  - { offsetInCU: 0x2F9CF, offset: 0x2F9CF, size: 0x8, addend: 0x0, symName: __ZNSt3__118__debug_db_erase_cB7v160006INS_6vectorIP8PyObjectNS_9allocatorIS3_EEEEEEvPT_, symObjAddr: 0x12388, symBinAddr: 0x100012EFC, symSize: 0x10 }
  - { offsetInCU: 0x2FA02, offset: 0x2FA02, size: 0x8, addend: 0x0, symName: __ZNSt3__112__to_addressB7v160006IP8PyObjectEEPT_S4_, symObjAddr: 0x124CC, symBinAddr: 0x100013040, symSize: 0x14 }
  - { offsetInCU: 0x2FA39, offset: 0x2FA39, size: 0x8, addend: 0x0, symName: __ZNSt3__110destroy_atB7v160006IP8PyObjectLi0EEEvPT_, symObjAddr: 0x12594, symBinAddr: 0x100013108, symSize: 0x24 }
  - { offsetInCU: 0x2FA72, offset: 0x2FA72, size: 0x8, addend: 0x0, symName: __ZNSt3__112__destroy_atB7v160006IP8PyObjectLi0EEEvPT_, symObjAddr: 0x125B8, symBinAddr: 0x10001312C, symSize: 0x10 }
  - { offsetInCU: 0x2FAAB, offset: 0x2FAAB, size: 0x8, addend: 0x0, symName: __ZNSt3__118__debug_db_erase_cB7v160006INS_6vectorI5TokenNS_9allocatorIS2_EEEEEEvPT_, symObjAddr: 0x128A8, symBinAddr: 0x10001341C, symSize: 0x10 }
  - { offsetInCU: 0x2FADE, offset: 0x2FADE, size: 0x8, addend: 0x0, symName: __ZNSt3__112__to_addressB7v160006I5TokenEEPT_S3_, symObjAddr: 0x129EC, symBinAddr: 0x100013560, symSize: 0x14 }
  - { offsetInCU: 0x2FB15, offset: 0x2FB15, size: 0x8, addend: 0x0, symName: __ZNSt3__110destroy_atB7v160006I5TokenLi0EEEvPT_, symObjAddr: 0x12AB4, symBinAddr: 0x100013628, symSize: 0x24 }
  - { offsetInCU: 0x2FB4E, offset: 0x2FB4E, size: 0x8, addend: 0x0, symName: __ZNSt3__112__destroy_atB7v160006I5TokenLi0EEEvPT_, symObjAddr: 0x12AD8, symBinAddr: 0x10001364C, symSize: 0x24 }
  - { offsetInCU: 0x2FB86, offset: 0x2FB86, size: 0x8, addend: 0x0, symName: __ZNSt3__1neB7v160006ERKNS_16__deque_iteratorIiPiRiPS1_lLl1024EEES6_, symObjAddr: 0x13174, symBinAddr: 0x100013CE8, symSize: 0x34 }
  - { offsetInCU: 0x2FBC3, offset: 0x2FBC3, size: 0x8, addend: 0x0, symName: __ZNSt3__1eqB7v160006ERKNS_16__deque_iteratorIiPiRiPS1_lLl1024EEES6_, symObjAddr: 0x133F0, symBinAddr: 0x100013F64, symSize: 0x30 }
  - { offsetInCU: 0x2FC01, offset: 0x2FC01, size: 0x8, addend: 0x0, symName: __ZNSt3__110destroy_atB7v160006IiLi0EEEvPT_, symObjAddr: 0x13420, symBinAddr: 0x100013F94, symSize: 0x24 }
  - { offsetInCU: 0x2FC3A, offset: 0x2FC3A, size: 0x8, addend: 0x0, symName: __ZNSt3__112__destroy_atB7v160006IiLi0EEEvPT_, symObjAddr: 0x13444, symBinAddr: 0x100013FB8, symSize: 0x10 }
  - { offsetInCU: 0x2FC73, offset: 0x2FC73, size: 0x8, addend: 0x0, symName: __ZNSt3__112__to_addressB7v160006IPiEEPT_S3_, symObjAddr: 0x13760, symBinAddr: 0x1000142D4, symSize: 0x14 }
  - { offsetInCU: 0x2FCAA, offset: 0x2FCAA, size: 0x8, addend: 0x0, symName: __ZNSt3__110destroy_atB7v160006IPiLi0EEEvPT_, symObjAddr: 0x13774, symBinAddr: 0x1000142E8, symSize: 0x24 }
  - { offsetInCU: 0x2FCE3, offset: 0x2FCE3, size: 0x8, addend: 0x0, symName: __ZNSt3__112__destroy_atB7v160006IPiLi0EEEvPT_, symObjAddr: 0x13798, symBinAddr: 0x10001430C, symSize: 0x10 }
  - { offsetInCU: 0x2FD1C, offset: 0x2FD1C, size: 0x8, addend: 0x0, symName: __ZNSt3__118__debug_db_erase_cB7v160006INS_12__hash_tableINS_17__hash_value_typeINS_12basic_stringIcNS_11char_traitsIcEENS_9allocatorIcEEEE9TokenTypeEENS_22__unordered_map_hasherIS8_SA_NS_4hashIS8_EENS_8equal_toIS8_EELb1EEENS_21__unordered_map_equalIS8_SA_SF_SD_Lb1EEENS6_ISA_EEEEEEvPT_, symObjAddr: 0x139FC, symBinAddr: 0x100014570, symSize: 0x10 }
  - { offsetInCU: 0x2FE0F, offset: 0x2FE0F, size: 0x8, addend: 0x0, symName: __ZNSt3__110destroy_atB7v160006INS_4pairIKNS_12basic_stringIcNS_11char_traitsIcEENS_9allocatorIcEEEE9TokenTypeEELi0EEEvPT_, symObjAddr: 0x13B50, symBinAddr: 0x1000146C4, symSize: 0x24 }
  - { offsetInCU: 0x2FE48, offset: 0x2FE48, size: 0x8, addend: 0x0, symName: __ZNSt3__112__destroy_atB7v160006INS_4pairIKNS_12basic_stringIcNS_11char_traitsIcEENS_9allocatorIcEEEE9TokenTypeEELi0EEEvPT_, symObjAddr: 0x13B74, symBinAddr: 0x1000146E8, symSize: 0x24 }
  - { offsetInCU: 0x2FE80, offset: 0x2FE80, size: 0x8, addend: 0x0, symName: __ZNSt3__17launderB7v160006INS_4pairIKNS_12basic_stringIcNS_11char_traitsIcEENS_9allocatorIcEEEE9TokenTypeEEEEPT_SC_, symObjAddr: 0x13C14, symBinAddr: 0x100014788, symSize: 0x24 }
  - { offsetInCU: 0x2FEB7, offset: 0x2FEB7, size: 0x8, addend: 0x0, symName: __ZNSt3__19__launderB7v160006INS_4pairIKNS_12basic_stringIcNS_11char_traitsIcEENS_9allocatorIcEEEE9TokenTypeEEEEPT_SC_, symObjAddr: 0x13C38, symBinAddr: 0x1000147AC, symSize: 0x14 }
  - { offsetInCU: 0x2FEEE, offset: 0x2FEEE, size: 0x8, addend: 0x0, symName: __ZNSt3__116__pad_and_outputB7v160006IcNS_11char_traitsIcEEEENS_19ostreambuf_iteratorIT_T0_EES6_PKS4_S8_S8_RNS_8ios_baseES4_, symObjAddr: 0x141B8, symBinAddr: 0x100014D2C, symSize: 0x240 }
  - { offsetInCU: 0x2FFBF, offset: 0x2FFBF, size: 0x8, addend: 0x0, symName: __ZNSt3__112__to_addressB7v160006IcEEPT_S2_, symObjAddr: 0x14630, symBinAddr: 0x1000151A4, symSize: 0x14 }
  - { offsetInCU: 0x2FFF5, offset: 0x2FFF5, size: 0x8, addend: 0x0, symName: __ZNSt3__19use_facetB7v160006INS_5ctypeIcEEEERKT_RKNS_6localeE, symObjAddr: 0x147E8, symBinAddr: 0x10001535C, symSize: 0x2C }
  - { offsetInCU: 0x304C4, offset: 0x304C4, size: 0x8, addend: 0x0, symName: __ZNSt3__111make_sharedB7v160006IN8nlohmann16json_abi_v3_12_06detail21output_string_adapterIcNS_12basic_stringIcNS_11char_traitsIcEENS_9allocatorIcEEEEEEJRSA_EvEENS_10shared_ptrIT_EEDpOT0_, symObjAddr: 0x15CC8, symBinAddr: 0x10001683C, symSize: 0x40 }
  - { offsetInCU: 0x30723, offset: 0x30723, size: 0x8, addend: 0x0, symName: __ZNSt3__115allocate_sharedB7v160006IN8nlohmann16json_abi_v3_12_06detail21output_string_adapterIcNS_12basic_stringIcNS_11char_traitsIcEENS_9allocatorIcEEEEEENS8_ISB_EEJRSA_EvEENS_10shared_ptrIT_EERKT0_DpOT1_, symObjAddr: 0x15D68, symBinAddr: 0x1000168DC, symSize: 0x98 }
  - { offsetInCU: 0x30A66, offset: 0x30A66, size: 0x8, addend: 0x0, symName: __ZNSt3__112construct_atB7v160006IN8nlohmann16json_abi_v3_12_06detail21output_string_adapterIcNS_12basic_stringIcNS_11char_traitsIcEENS_9allocatorIcEEEEEEJRSA_EPSB_EEPT_SF_DpOT0_, symObjAddr: 0x164C0, symBinAddr: 0x100017034, symSize: 0x3C }
  - { offsetInCU: 0x30ADB, offset: 0x30ADB, size: 0x8, addend: 0x0, symName: __ZNSt3__110destroy_atB7v160006IN8nlohmann16json_abi_v3_12_06detail21output_string_adapterIcNS_12basic_stringIcNS_11char_traitsIcEENS_9allocatorIcEEEEEELi0EEEvPT_, symObjAddr: 0x16764, symBinAddr: 0x1000172D8, symSize: 0x24 }
  - { offsetInCU: 0x30B14, offset: 0x30B14, size: 0x8, addend: 0x0, symName: __ZNSt3__112__destroy_atB7v160006IN8nlohmann16json_abi_v3_12_06detail21output_string_adapterIcNS_12basic_stringIcNS_11char_traitsIcEENS_9allocatorIcEEEEEELi0EEEvPT_, symObjAddr: 0x16788, symBinAddr: 0x1000172FC, symSize: 0x2C }
  - { offsetInCU: 0x30B80, offset: 0x30B80, size: 0x8, addend: 0x0, symName: __ZNSt3__134__libcpp_atomic_refcount_decrementB7v160006IlEET_RS1_, symObjAddr: 0x16ACC, symBinAddr: 0x100017640, symSize: 0x30 }
  - { offsetInCU: 0x30BB7, offset: 0x30BB7, size: 0x8, addend: 0x0, symName: __ZNSt3__134__libcpp_atomic_refcount_incrementB7v160006IlEET_RS1_, symObjAddr: 0x16BEC, symBinAddr: 0x100017760, symSize: 0x30 }
  - { offsetInCU: 0x30BED, offset: 0x30BED, size: 0x8, addend: 0x0, symName: __ZNSt3__1eqB7v160006ERKNS_20__map_const_iteratorINS_21__tree_const_iteratorINS_12__value_typeINS_12basic_stringIcNS_11char_traitsIcEENS_9allocatorIcEEEEN8nlohmann16json_abi_v3_12_010basic_jsonINS_3mapENS_6vectorES8_bxydS6_NSA_14adl_serializerENSD_IhNS6_IhEEEEvEEEEPNS_11__tree_nodeISI_PvEElEEEESQ_, symObjAddr: 0x17B9C, symBinAddr: 0x100018710, symSize: 0x30 }
  - { offsetInCU: 0x30C2B, offset: 0x30C2B, size: 0x8, addend: 0x0, symName: __ZNSt3__14nextB7v160006INS_20__map_const_iteratorINS_21__tree_const_iteratorINS_12__value_typeINS_12basic_stringIcNS_11char_traitsIcEENS_9allocatorIcEEEEN8nlohmann16json_abi_v3_12_010basic_jsonINS_3mapENS_6vectorES9_bxydS7_NSB_14adl_serializerENSE_IhNS7_IhEEEEvEEEEPNS_11__tree_nodeISJ_PvEElEEEEEENS_9enable_ifIXsr25__is_cpp17_input_iteratorIT_EE5valueESR_E4typeESR_NS_15iterator_traitsISR_E15difference_typeE, symObjAddr: 0x17BCC, symBinAddr: 0x100018740, symSize: 0x50 }
  - { offsetInCU: 0x30C71, offset: 0x30C71, size: 0x8, addend: 0x0, symName: __ZNSt3__1neB7v160006IPKN8nlohmann16json_abi_v3_12_010basic_jsonINS_3mapENS_6vectorENS_12basic_stringIcNS_11char_traitsIcEENS_9allocatorIcEEEEbxydS9_NS2_14adl_serializerENS5_IhNS9_IhEEEEvEEEEbRKNS_11__wrap_iterIT_EESM_, symObjAddr: 0x17C48, symBinAddr: 0x1000187BC, symSize: 0x34 }
  - { offsetInCU: 0x30CB7, offset: 0x30CB7, size: 0x8, addend: 0x0, symName: __ZNSt3__1neB7v160006IPKhEEbRKNS_11__wrap_iterIT_EES7_, symObjAddr: 0x17D70, symBinAddr: 0x1000188E4, symSize: 0x34 }
  - { offsetInCU: 0x30D30, offset: 0x30D30, size: 0x8, addend: 0x0, symName: __ZNSt3__19__advanceB7v160006INS_20__map_const_iteratorINS_21__tree_const_iteratorINS_12__value_typeINS_12basic_stringIcNS_11char_traitsIcEENS_9allocatorIcEEEEN8nlohmann16json_abi_v3_12_010basic_jsonINS_3mapENS_6vectorES9_bxydS7_NSB_14adl_serializerENSE_IhNS7_IhEEEEvEEEEPNS_11__tree_nodeISJ_PvEElEEEEEEvRT_NS_15iterator_traitsISQ_E15difference_typeENS_26bidirectional_iterator_tagE, symObjAddr: 0x18F58, symBinAddr: 0x100019ACC, symSize: 0xA4 }
  - { offsetInCU: 0x30D7D, offset: 0x30D7D, size: 0x8, addend: 0x0, symName: __ZNSt3__1eqB7v160006IPKN8nlohmann16json_abi_v3_12_010basic_jsonINS_3mapENS_6vectorENS_12basic_stringIcNS_11char_traitsIcEENS_9allocatorIcEEEEbxydS9_NS2_14adl_serializerENS5_IhNS9_IhEEEEvEEEEbRKNS_11__wrap_iterIT_EESM_, symObjAddr: 0x190EC, symBinAddr: 0x100019C60, symSize: 0x48 }
  - { offsetInCU: 0x30DC3, offset: 0x30DC3, size: 0x8, addend: 0x0, symName: __ZNSt3__1eqB7v160006IPKhEEbRKNS_11__wrap_iterIT_EES7_, symObjAddr: 0x192A4, symBinAddr: 0x100019E18, symSize: 0x48 }
  - { offsetInCU: 0x31EAF, offset: 0x31EAF, size: 0x8, addend: 0x0, symName: __ZSt28__throw_bad_array_new_lengthB7v160006v, symObjAddr: 0x3A8C, symBinAddr: 0x100004600, symSize: 0x34 }
  - { offsetInCU: 0x333BC, offset: 0x333BC, size: 0x8, addend: 0x0, symName: __ZN8nlohmann16json_abi_v3_12_06detail10serializerINS0_10basic_jsonINSt3__13mapENS4_6vectorENS4_12basic_stringIcNS4_11char_traitsIcEENS4_9allocatorIcEEEEbxydSA_NS0_14adl_serializerENS6_IhNSA_IhEEEEvEEE6decodeERhRjh, symObjAddr: 0x187AC, symBinAddr: 0x100019320, symSize: 0x180 }
  - { offsetInCU: 0x333DC, offset: 0x333DC, size: 0x8, addend: 0x0, symName: __ZZN8nlohmann16json_abi_v3_12_06detail10serializerINS0_10basic_jsonINSt3__13mapENS4_6vectorENS4_12basic_stringIcNS4_11char_traitsIcEENS4_9allocatorIcEEEEbxydSA_NS0_14adl_serializerENS6_IhNSA_IhEEEEvEEE6decodeERhRjhE5utf8d, symObjAddr: 0x1CC76, symBinAddr: 0x1000A9BC6, symSize: 0x0 }
  - { offsetInCU: 0x3348C, offset: 0x3348C, size: 0x8, addend: 0x0, symName: __ZN8nlohmann16json_abi_v3_12_06detail10serializerINS0_10basic_jsonINSt3__13mapENS4_6vectorENS4_12basic_stringIcNS4_11char_traitsIcEENS4_9allocatorIcEEEEbxydSA_NS0_14adl_serializerENS6_IhNSA_IhEEEEvEEE12dump_integerIhLi0EEEvT_, symObjAddr: 0x17E0C, symBinAddr: 0x100018980, symSize: 0x2C8 }
  - { offsetInCU: 0x334B0, offset: 0x334B0, size: 0x8, addend: 0x0, symName: __ZZN8nlohmann16json_abi_v3_12_06detail10serializerINS0_10basic_jsonINSt3__13mapENS4_6vectorENS4_12basic_stringIcNS4_11char_traitsIcEENS4_9allocatorIcEEEEbxydSA_NS0_14adl_serializerENS6_IhNSA_IhEEEEvEEE12dump_integerIhLi0EEEvT_E12digits_to_99, symObjAddr: 0x1CE06, symBinAddr: 0x1000A9D56, symSize: 0x0 }
  - { offsetInCU: 0x335D1, offset: 0x335D1, size: 0x8, addend: 0x0, symName: __ZN8nlohmann16json_abi_v3_12_06detail10serializerINS0_10basic_jsonINSt3__13mapENS4_6vectorENS4_12basic_stringIcNS4_11char_traitsIcEENS4_9allocatorIcEEEEbxydSA_NS0_14adl_serializerENS6_IhNSA_IhEEEEvEEE12dump_integerIyLi0EEEvT_, symObjAddr: 0x18144, symBinAddr: 0x100018CB8, symSize: 0x2C4 }
  - { offsetInCU: 0x335F5, offset: 0x335F5, size: 0x8, addend: 0x0, symName: __ZZN8nlohmann16json_abi_v3_12_06detail10serializerINS0_10basic_jsonINSt3__13mapENS4_6vectorENS4_12basic_stringIcNS4_11char_traitsIcEENS4_9allocatorIcEEEEbxydSA_NS0_14adl_serializerENS6_IhNSA_IhEEEEvEEE12dump_integerIyLi0EEEvT_E12digits_to_99, symObjAddr: 0x1CECE, symBinAddr: 0x1000A9E1E, symSize: 0x0 }
  - { offsetInCU: 0x33692, offset: 0x33692, size: 0x8, addend: 0x0, symName: __ZN8nlohmann16json_abi_v3_12_06detail10serializerINS0_10basic_jsonINSt3__13mapENS4_6vectorENS4_12basic_stringIcNS4_11char_traitsIcEENS4_9allocatorIcEEEEbxydSA_NS0_14adl_serializerENS6_IhNSA_IhEEEEvEEE12dump_integerIxLi0EEEvT_, symObjAddr: 0x1844C, symBinAddr: 0x100018FC0, symSize: 0x2C4 }
  - { offsetInCU: 0x336B6, offset: 0x336B6, size: 0x8, addend: 0x0, symName: __ZZN8nlohmann16json_abi_v3_12_06detail10serializerINS0_10basic_jsonINSt3__13mapENS4_6vectorENS4_12basic_stringIcNS4_11char_traitsIcEENS4_9allocatorIcEEEEbxydSA_NS0_14adl_serializerENS6_IhNSA_IhEEEEvEEE12dump_integerIxLi0EEEvT_E12digits_to_99, symObjAddr: 0x1CF96, symBinAddr: 0x1000A9EE6, symSize: 0x0 }
  - { offsetInCU: 0x33753, offset: 0x33753, size: 0x8, addend: 0x0, symName: __ZN8nlohmann16json_abi_v3_12_06detail10serializerINS0_10basic_jsonINSt3__13mapENS4_6vectorENS4_12basic_stringIcNS4_11char_traitsIcEENS4_9allocatorIcEEEEbxydSA_NS0_14adl_serializerENS6_IhNSA_IhEEEEvEEE10dump_floatEd, symObjAddr: 0x18710, symBinAddr: 0x100019284, symSize: 0x6C }
  - { offsetInCU: 0x33777, offset: 0x33777, size: 0x8, addend: 0x0, symName: __ZZN8nlohmann16json_abi_v3_12_06detail10serializerINS0_10basic_jsonINSt3__13mapENS4_6vectorENS4_12basic_stringIcNS4_11char_traitsIcEENS4_9allocatorIcEEEEbxydSA_NS0_14adl_serializerENS6_IhNSA_IhEEEEvEEE10dump_floatEdE24is_ieee_single_or_double, symObjAddr: 0x1D05E, symBinAddr: 0x1000A9FAE, symSize: 0x0 }
  - { offsetInCU: 0x34AAB, offset: 0x34AAB, size: 0x8, addend: 0x0, symName: __ZNSt3__16vectorIN8nlohmann16json_abi_v3_12_010basic_jsonINS_3mapES0_NS_12basic_stringIcNS_11char_traitsIcEENS_9allocatorIcEEEEbxydS8_NS2_14adl_serializerENS0_IhNS8_IhEEEEvEENS8_ISE_EEE26__swap_out_circular_bufferERNS_14__split_bufferISE_RSF_EE, symObjAddr: 0x7034, symBinAddr: 0x100007BA8, symSize: 0x118 }
  - { offsetInCU: 0x3758D, offset: 0x3758D, size: 0x8, addend: 0x0, symName: _main, symObjAddr: 0x0, symBinAddr: 0x100000B74, symSize: 0x530 }
  - { offsetInCU: 0x37686, offset: 0x37686, size: 0x8, addend: 0x0, symName: __ZNSt3__19basic_iosIcNS_11char_traitsIcEEE3tieB7v160006EPNS_13basic_ostreamIcS2_EE, symObjAddr: 0x530, symBinAddr: 0x1000010A4, symSize: 0x2C }
  - { offsetInCU: 0x376CC, offset: 0x376CC, size: 0x8, addend: 0x0, symName: __ZNSt3__113basic_ostreamIcNS_11char_traitsIcEEElsB7v160006EPFRS3_S4_E, symObjAddr: 0x5A4, symBinAddr: 0x100001118, symSize: 0x2C }
  - { offsetInCU: 0x37707, offset: 0x37707, size: 0x8, addend: 0x0, symName: __ZNSt3__112basic_stringIcNS_11char_traitsIcEENS_9allocatorIcEEEC1B7v160006IDnEEPKc, symObjAddr: 0x628, symBinAddr: 0x10000119C, symSize: 0x34 }
  - { offsetInCU: 0x377F6, offset: 0x377F6, size: 0x8, addend: 0x0, symName: __ZNSt3__114basic_ifstreamIcNS_11char_traitsIcEEEC1ERKNS_12basic_stringIcS2_NS_9allocatorIcEEEEj, symObjAddr: 0x6B8, symBinAddr: 0x10000122C, symSize: 0x16C }
  - { offsetInCU: 0x37840, offset: 0x37840, size: 0x8, addend: 0x0, symName: __ZNKSt3__19basic_iosIcNS_11char_traitsIcEEEntB7v160006Ev, symObjAddr: 0x824, symBinAddr: 0x100001398, symSize: 0x28 }
  - { offsetInCU: 0x37866, offset: 0x37866, size: 0x8, addend: 0x0, symName: __ZNSt3__119istreambuf_iteratorIcNS_11char_traitsIcEEEC1B7v160006ERNS_13basic_istreamIcS2_EE, symObjAddr: 0x898, symBinAddr: 0x10000140C, symSize: 0x34 }
  - { offsetInCU: 0x3789F, offset: 0x3789F, size: 0x8, addend: 0x0, symName: __ZNSt3__119istreambuf_iteratorIcNS_11char_traitsIcEEEC1B7v160006Ev, symObjAddr: 0x8CC, symBinAddr: 0x100001440, symSize: 0x2C }
  - { offsetInCU: 0x378C9, offset: 0x378C9, size: 0x8, addend: 0x0, symName: __ZNSt3__112basic_stringIcNS_11char_traitsIcEENS_9allocatorIcEEEC1B7v160006INS_19istreambuf_iteratorIcS2_EEvEET_S9_, symObjAddr: 0x8F8, symBinAddr: 0x10000146C, symSize: 0x3C }
  - { offsetInCU: 0x3791B, offset: 0x3791B, size: 0x8, addend: 0x0, symName: __Z11show_tokensRKNSt3__16vectorI5TokenNS_9allocatorIS1_EEEE, symObjAddr: 0x934, symBinAddr: 0x1000014A8, symSize: 0xA0 }
  - { offsetInCU: 0x38DB7, offset: 0x38DB7, size: 0x8, addend: 0x0, symName: __ZNK7AstNode7to_jsonEv, symObjAddr: 0x9D4, symBinAddr: 0x100001548, symSize: 0x22C }
  - { offsetInCU: 0x38E35, offset: 0x38E35, size: 0x8, addend: 0x0, symName: __ZNK8nlohmann16json_abi_v3_12_010basic_jsonINSt3__13mapENS2_6vectorENS2_12basic_stringIcNS2_11char_traitsIcEENS2_9allocatorIcEEEEbxydS8_NS0_14adl_serializerENS4_IhNS8_IhEEEEvE4dumpEicbNS0_6detail15error_handler_tE, symObjAddr: 0xC00, symBinAddr: 0x100001774, symSize: 0x1F4 }
  - { offsetInCU: 0x38EBD, offset: 0x38EBD, size: 0x8, addend: 0x0, symName: __ZN8nlohmann16json_abi_v3_12_010basic_jsonINSt3__13mapENS2_6vectorENS2_12basic_stringIcNS2_11char_traitsIcEENS2_9allocatorIcEEEEbxydS8_NS0_14adl_serializerENS4_IhNS8_IhEEEEvED1Ev, symObjAddr: 0xDF4, symBinAddr: 0x100001968, symSize: 0x2C }
  - { offsetInCU: 0x393C7, offset: 0x393C7, size: 0x8, addend: 0x0, symName: __ZN11InterpreterD1Ev, symObjAddr: 0xE20, symBinAddr: 0x100001994, symSize: 0x2C }
  - { offsetInCU: 0x393F3, offset: 0x393F3, size: 0x8, addend: 0x0, symName: __ZNSt3__16vectorI5TokenNS_9allocatorIS1_EEED1B7v160006Ev, symObjAddr: 0xE4C, symBinAddr: 0x1000019C0, symSize: 0x2C }
  - { offsetInCU: 0x399AD, offset: 0x399AD, size: 0x8, addend: 0x0, symName: __ZN5LexerD1Ev, symObjAddr: 0xE78, symBinAddr: 0x1000019EC, symSize: 0x2C }
  - { offsetInCU: 0x399DF, offset: 0x399DF, size: 0x8, addend: 0x0, symName: __ZNSt3__114basic_ifstreamIcNS_11char_traitsIcEEED1Ev, symObjAddr: 0xEE4, symBinAddr: 0x100001A58, symSize: 0x40 }
  - { offsetInCU: 0x39A0C, offset: 0x39A0C, size: 0x8, addend: 0x0, symName: __ZNSt3__112basic_stringIcNS_11char_traitsIcEENS_9allocatorIcEEEC2B7v160006IDnEEPKc, symObjAddr: 0xF24, symBinAddr: 0x100001A98, symSize: 0x60 }
  - { offsetInCU: 0x39A50, offset: 0x39A50, size: 0x8, addend: 0x0, symName: __ZNSt3__117__compressed_pairINS_12basic_stringIcNS_11char_traitsIcEENS_9allocatorIcEEE5__repES5_EC1B7v160006INS_18__default_init_tagESA_EEOT_OT0_, symObjAddr: 0xF84, symBinAddr: 0x100001AF8, symSize: 0x3C }
  - { offsetInCU: 0x39AAA, offset: 0x39AAA, size: 0x8, addend: 0x0, symName: __ZNSt3__111char_traitsIcE6lengthEPKc, symObjAddr: 0xFC0, symBinAddr: 0x100001B34, symSize: 0x34 }
  - { offsetInCU: 0x39ACE, offset: 0x39ACE, size: 0x8, addend: 0x0, symName: __ZNSt3__117__compressed_pairINS_12basic_stringIcNS_11char_traitsIcEENS_9allocatorIcEEE5__repES5_EC2B7v160006INS_18__default_init_tagESA_EEOT_OT0_, symObjAddr: 0x1004, symBinAddr: 0x100001B78, symSize: 0x3C }
  - { offsetInCU: 0x39B28, offset: 0x39B28, size: 0x8, addend: 0x0, symName: __ZNSt3__122__compressed_pair_elemINS_12basic_stringIcNS_11char_traitsIcEENS_9allocatorIcEEE5__repELi0ELb0EEC2B7v160006ENS_18__default_init_tagE, symObjAddr: 0x1040, symBinAddr: 0x100001BB4, symSize: 0x14 }
  - { offsetInCU: 0x39B5D, offset: 0x39B5D, size: 0x8, addend: 0x0, symName: __ZNSt3__122__compressed_pair_elemINS_9allocatorIcEELi1ELb1EEC2B7v160006ENS_18__default_init_tagE, symObjAddr: 0x1054, symBinAddr: 0x100001BC8, symSize: 0x2C }
  - { offsetInCU: 0x39B92, offset: 0x39B92, size: 0x8, addend: 0x0, symName: __ZNSt3__19allocatorIcEC2B7v160006Ev, symObjAddr: 0x1080, symBinAddr: 0x100001BF4, symSize: 0x2C }
  - { offsetInCU: 0x39BBC, offset: 0x39BBC, size: 0x8, addend: 0x0, symName: __ZNSt3__116__non_trivial_ifILb1ENS_9allocatorIcEEEC2B7v160006Ev, symObjAddr: 0x10AC, symBinAddr: 0x100001C20, symSize: 0x14 }
  - { offsetInCU: 0x39BE6, offset: 0x39BE6, size: 0x8, addend: 0x0, symName: __ZNKSt3__112basic_stringIcNS_11char_traitsIcEENS_9allocatorIcEEEcvNS_17basic_string_viewIcS2_EEB7v160006Ev, symObjAddr: 0x1194, symBinAddr: 0x100001D08, symSize: 0x50 }
  - { offsetInCU: 0x39C0C, offset: 0x39C0C, size: 0x8, addend: 0x0, symName: __ZNSt3__117basic_string_viewIcNS_11char_traitsIcEEEC1B7v160006EPKc, symObjAddr: 0x11E4, symBinAddr: 0x100001D58, symSize: 0x34 }
  - { offsetInCU: 0x39C45, offset: 0x39C45, size: 0x8, addend: 0x0, symName: __ZNKSt3__117basic_string_viewIcNS_11char_traitsIcEEE4sizeB7v160006Ev, symObjAddr: 0x1218, symBinAddr: 0x100001D8C, symSize: 0x18 }
  - { offsetInCU: 0x39C6B, offset: 0x39C6B, size: 0x8, addend: 0x0, symName: __ZNKSt3__117basic_string_viewIcNS_11char_traitsIcEEE7compareES3_, symObjAddr: 0x1230, symBinAddr: 0x100001DA4, symSize: 0x13C }
  - { offsetInCU: 0x39CBE, offset: 0x39CBE, size: 0x8, addend: 0x0, symName: __ZNSt3__111char_traitsIcE7compareEPKcS3_m, symObjAddr: 0x1398, symBinAddr: 0x100001F0C, symSize: 0x6C }
  - { offsetInCU: 0x39D00, offset: 0x39D00, size: 0x8, addend: 0x0, symName: __ZNKSt3__117basic_string_viewIcNS_11char_traitsIcEEE4dataB7v160006Ev, symObjAddr: 0x1404, symBinAddr: 0x100001F78, symSize: 0x18 }
  - { offsetInCU: 0x39D31, offset: 0x39D31, size: 0x8, addend: 0x0, symName: __ZNKSt3__16__lessImmEclB7v160006ERKmS3_, symObjAddr: 0x1470, symBinAddr: 0x100001FE4, symSize: 0x34 }
  - { offsetInCU: 0x39D75, offset: 0x39D75, size: 0x8, addend: 0x0, symName: __ZNKSt3__112basic_stringIcNS_11char_traitsIcEENS_9allocatorIcEEE4dataB7v160006Ev, symObjAddr: 0x14D8, symBinAddr: 0x10000204C, symSize: 0x28 }
  - { offsetInCU: 0x39D9B, offset: 0x39D9B, size: 0x8, addend: 0x0, symName: __ZNKSt3__112basic_stringIcNS_11char_traitsIcEENS_9allocatorIcEEE4sizeB7v160006Ev, symObjAddr: 0x1500, symBinAddr: 0x100002074, symSize: 0x54 }
  - { offsetInCU: 0x39DC1, offset: 0x39DC1, size: 0x8, addend: 0x0, symName: __ZNSt3__117basic_string_viewIcNS_11char_traitsIcEEEC1B7v160006EPKcm, symObjAddr: 0x1554, symBinAddr: 0x1000020C8, symSize: 0x3C }
  - { offsetInCU: 0x39E09, offset: 0x39E09, size: 0x8, addend: 0x0, symName: __ZNKSt3__112basic_stringIcNS_11char_traitsIcEENS_9allocatorIcEEE13__get_pointerB7v160006Ev, symObjAddr: 0x15A4, symBinAddr: 0x100002118, symSize: 0x54 }
  - { offsetInCU: 0x39E2F, offset: 0x39E2F, size: 0x8, addend: 0x0, symName: __ZNKSt3__112basic_stringIcNS_11char_traitsIcEENS_9allocatorIcEEE9__is_longB7v160006Ev, symObjAddr: 0x15F8, symBinAddr: 0x10000216C, symSize: 0x38 }
  - { offsetInCU: 0x39E55, offset: 0x39E55, size: 0x8, addend: 0x0, symName: __ZNKSt3__112basic_stringIcNS_11char_traitsIcEENS_9allocatorIcEEE18__get_long_pointerB7v160006Ev, symObjAddr: 0x1630, symBinAddr: 0x1000021A4, symSize: 0x28 }
  - { offsetInCU: 0x39E7B, offset: 0x39E7B, size: 0x8, addend: 0x0, symName: __ZNKSt3__112basic_stringIcNS_11char_traitsIcEENS_9allocatorIcEEE19__get_short_pointerB7v160006Ev, symObjAddr: 0x1658, symBinAddr: 0x1000021CC, symSize: 0x28 }
  - { offsetInCU: 0x39EA1, offset: 0x39EA1, size: 0x8, addend: 0x0, symName: __ZNKSt3__117__compressed_pairINS_12basic_stringIcNS_11char_traitsIcEENS_9allocatorIcEEE5__repES5_E5firstB7v160006Ev, symObjAddr: 0x1680, symBinAddr: 0x1000021F4, symSize: 0x24 }
  - { offsetInCU: 0x39EC7, offset: 0x39EC7, size: 0x8, addend: 0x0, symName: __ZNKSt3__122__compressed_pair_elemINS_12basic_stringIcNS_11char_traitsIcEENS_9allocatorIcEEE5__repELi0ELb0EE5__getB7v160006Ev, symObjAddr: 0x16A4, symBinAddr: 0x100002218, symSize: 0x14 }
  - { offsetInCU: 0x39EED, offset: 0x39EED, size: 0x8, addend: 0x0, symName: __ZNSt3__114pointer_traitsIPKcE10pointer_toB7v160006ERS1_, symObjAddr: 0x16B8, symBinAddr: 0x10000222C, symSize: 0x14 }
  - { offsetInCU: 0x39F11, offset: 0x39F11, size: 0x8, addend: 0x0, symName: __ZNKSt3__112basic_stringIcNS_11char_traitsIcEENS_9allocatorIcEEE15__get_long_sizeB7v160006Ev, symObjAddr: 0x16CC, symBinAddr: 0x100002240, symSize: 0x28 }
  - { offsetInCU: 0x39F37, offset: 0x39F37, size: 0x8, addend: 0x0, symName: __ZNKSt3__112basic_stringIcNS_11char_traitsIcEENS_9allocatorIcEEE16__get_short_sizeB7v160006Ev, symObjAddr: 0x16F4, symBinAddr: 0x100002268, symSize: 0x34 }
  - { offsetInCU: 0x39F5D, offset: 0x39F5D, size: 0x8, addend: 0x0, symName: __ZNSt3__117basic_string_viewIcNS_11char_traitsIcEEEC2B7v160006EPKcm, symObjAddr: 0x1728, symBinAddr: 0x10000229C, symSize: 0x50 }
  - { offsetInCU: 0x39FA5, offset: 0x39FA5, size: 0x8, addend: 0x0, symName: __ZNSt3__117basic_string_viewIcNS_11char_traitsIcEEEC2B7v160006EPKc, symObjAddr: 0x1778, symBinAddr: 0x1000022EC, symSize: 0x44 }
  - { offsetInCU: 0x39FDE, offset: 0x39FDE, size: 0x8, addend: 0x0, symName: __ZNSt3__119istreambuf_iteratorIcNS_11char_traitsIcEEEC2B7v160006Ev, symObjAddr: 0x17E0, symBinAddr: 0x100002354, symSize: 0x18 }
  - { offsetInCU: 0x3A008, offset: 0x3A008, size: 0x8, addend: 0x0, symName: __ZNSt3__112basic_stringIcNS_11char_traitsIcEENS_9allocatorIcEEEC2B7v160006INS_19istreambuf_iteratorIcS2_EEvEET_S9_, symObjAddr: 0x17F8, symBinAddr: 0x10000236C, symSize: 0x64 }
  - { offsetInCU: 0x3A05A, offset: 0x3A05A, size: 0x8, addend: 0x0, symName: __ZNSt3__112basic_stringIcNS_11char_traitsIcEENS_9allocatorIcEEE6__initINS_19istreambuf_iteratorIcS2_EEEENS_9enable_ifIXsr33__is_exactly_cpp17_input_iteratorIT_EE5valueEvE4typeESA_SA_, symObjAddr: 0x185C, symBinAddr: 0x1000023D0, symSize: 0x124 }
  - { offsetInCU: 0x3A0A9, offset: 0x3A0A9, size: 0x8, addend: 0x0, symName: __ZNSt3__112basic_stringIcNS_11char_traitsIcEENS_9allocatorIcEEE14__default_initB7v160006Ev, symObjAddr: 0x1980, symBinAddr: 0x1000024F4, symSize: 0x40 }
  - { offsetInCU: 0x3A0CF, offset: 0x3A0CF, size: 0x8, addend: 0x0, symName: __ZNKSt3__119istreambuf_iteratorIcNS_11char_traitsIcEEEdeB7v160006Ev, symObjAddr: 0x19F0, symBinAddr: 0x100002564, symSize: 0x2C }
  - { offsetInCU: 0x3A0F5, offset: 0x3A0F5, size: 0x8, addend: 0x0, symName: __ZNSt3__119istreambuf_iteratorIcNS_11char_traitsIcEEEppB7v160006Ev, symObjAddr: 0x1A1C, symBinAddr: 0x100002590, symSize: 0x30 }
  - { offsetInCU: 0x3A11B, offset: 0x3A11B, size: 0x8, addend: 0x0, symName: __ZNSt3__116allocator_traitsINS_9allocatorIcEEE10deallocateB7v160006ERS2_Pcm, symObjAddr: 0x1A4C, symBinAddr: 0x1000025C0, symSize: 0x34 }
  - { offsetInCU: 0x3A15D, offset: 0x3A15D, size: 0x8, addend: 0x0, symName: __ZNSt3__112basic_stringIcNS_11char_traitsIcEENS_9allocatorIcEEE7__allocB7v160006Ev, symObjAddr: 0x1A80, symBinAddr: 0x1000025F4, symSize: 0x24 }
  - { offsetInCU: 0x3A183, offset: 0x3A183, size: 0x8, addend: 0x0, symName: __ZNSt3__112basic_stringIcNS_11char_traitsIcEENS_9allocatorIcEEE18__get_long_pointerB7v160006Ev, symObjAddr: 0x1AA4, symBinAddr: 0x100002618, symSize: 0x28 }
  - { offsetInCU: 0x3A1A9, offset: 0x3A1A9, size: 0x8, addend: 0x0, symName: __ZNKSt3__112basic_stringIcNS_11char_traitsIcEENS_9allocatorIcEEE14__get_long_capB7v160006Ev, symObjAddr: 0x1ACC, symBinAddr: 0x100002640, symSize: 0x30 }
  - { offsetInCU: 0x3A1CF, offset: 0x3A1CF, size: 0x8, addend: 0x0, symName: __ZNSt3__117__compressed_pairINS_12basic_stringIcNS_11char_traitsIcEENS_9allocatorIcEEE5__repES5_E5firstB7v160006Ev, symObjAddr: 0x1AFC, symBinAddr: 0x100002670, symSize: 0x24 }
  - { offsetInCU: 0x3A1F5, offset: 0x3A1F5, size: 0x8, addend: 0x0, symName: __ZNSt3__122__compressed_pair_elemINS_12basic_stringIcNS_11char_traitsIcEENS_9allocatorIcEEE5__repELi0ELb0EE5__getB7v160006Ev, symObjAddr: 0x1B20, symBinAddr: 0x100002694, symSize: 0x14 }
  - { offsetInCU: 0x3A21B, offset: 0x3A21B, size: 0x8, addend: 0x0, symName: __ZNKSt3__119istreambuf_iteratorIcNS_11char_traitsIcEEE5equalB7v160006ERKS3_, symObjAddr: 0x1B34, symBinAddr: 0x1000026A8, symSize: 0x4C }
  - { offsetInCU: 0x3A250, offset: 0x3A250, size: 0x8, addend: 0x0, symName: __ZNKSt3__119istreambuf_iteratorIcNS_11char_traitsIcEEE14__test_for_eofB7v160006Ev, symObjAddr: 0x1B80, symBinAddr: 0x1000026F4, symSize: 0x80 }
  - { offsetInCU: 0x3A276, offset: 0x3A276, size: 0x8, addend: 0x0, symName: __ZNSt3__111char_traitsIcE11eq_int_typeEii, symObjAddr: 0x1C00, symBinAddr: 0x100002774, symSize: 0x28 }
  - { offsetInCU: 0x3A2A9, offset: 0x3A2A9, size: 0x8, addend: 0x0, symName: __ZNSt3__115basic_streambufIcNS_11char_traitsIcEEE5sgetcB7v160006Ev, symObjAddr: 0x1C28, symBinAddr: 0x10000279C, symSize: 0x70 }
  - { offsetInCU: 0x3A2CF, offset: 0x3A2CF, size: 0x8, addend: 0x0, symName: __ZNSt3__111char_traitsIcE3eofEv, symObjAddr: 0x1C98, symBinAddr: 0x10000280C, symSize: 0x8 }
  - { offsetInCU: 0x3A2E3, offset: 0x3A2E3, size: 0x8, addend: 0x0, symName: __ZNSt3__111char_traitsIcE11to_int_typeEc, symObjAddr: 0x1CA0, symBinAddr: 0x100002814, symSize: 0x14 }
  - { offsetInCU: 0x3A307, offset: 0x3A307, size: 0x8, addend: 0x0, symName: __ZNSt3__115basic_streambufIcNS_11char_traitsIcEEE6sbumpcB7v160006Ev, symObjAddr: 0x1CB4, symBinAddr: 0x100002828, symSize: 0x78 }
  - { offsetInCU: 0x3A32D, offset: 0x3A32D, size: 0x8, addend: 0x0, symName: __ZNSt3__19allocatorIcE10deallocateB7v160006EPcm, symObjAddr: 0x1D2C, symBinAddr: 0x1000028A0, symSize: 0x40 }
  - { offsetInCU: 0x3A371, offset: 0x3A371, size: 0x8, addend: 0x0, symName: __ZNSt3__117__compressed_pairINS_12basic_stringIcNS_11char_traitsIcEENS_9allocatorIcEEE5__repES5_E6secondB7v160006Ev, symObjAddr: 0x1E94, symBinAddr: 0x100002A08, symSize: 0x24 }
  - { offsetInCU: 0x3A397, offset: 0x3A397, size: 0x8, addend: 0x0, symName: __ZNSt3__122__compressed_pair_elemINS_9allocatorIcEELi1ELb1EE5__getB7v160006Ev, symObjAddr: 0x1EB8, symBinAddr: 0x100002A2C, symSize: 0x14 }
  - { offsetInCU: 0x3A3BD, offset: 0x3A3BD, size: 0x8, addend: 0x0, symName: __ZNKSt3__16vectorI5TokenNS_9allocatorIS1_EEE5beginB7v160006Ev, symObjAddr: 0x1ECC, symBinAddr: 0x100002A40, symSize: 0x30 }
  - { offsetInCU: 0x3A3E5, offset: 0x3A3E5, size: 0x8, addend: 0x0, symName: __ZNKSt3__16vectorI5TokenNS_9allocatorIS1_EEE3endB7v160006Ev, symObjAddr: 0x1EFC, symBinAddr: 0x100002A70, symSize: 0x30 }
  - { offsetInCU: 0x3A40D, offset: 0x3A40D, size: 0x8, addend: 0x0, symName: __ZNKSt3__111__wrap_iterIPK5TokenEdeB7v160006Ev, symObjAddr: 0x1F60, symBinAddr: 0x100002AD4, symSize: 0x18 }
  - { offsetInCU: 0x3A433, offset: 0x3A433, size: 0x8, addend: 0x0, symName: __ZlsRNSt3__113basic_ostreamIcNS_11char_traitsIcEEEERK5Token, symObjAddr: 0x1F78, symBinAddr: 0x100002AEC, symSize: 0x5F4 }
  - { offsetInCU: 0x3A4C2, offset: 0x3A4C2, size: 0x8, addend: 0x0, symName: __ZNSt3__111__wrap_iterIPK5TokenEppB7v160006Ev, symObjAddr: 0x266C, symBinAddr: 0x1000031E0, symSize: 0x20 }
  - { offsetInCU: 0x3A4E8, offset: 0x3A4E8, size: 0x8, addend: 0x0, symName: __ZNKSt3__16vectorI5TokenNS_9allocatorIS1_EEE11__make_iterB7v160006EPKS1_, symObjAddr: 0x26B4, symBinAddr: 0x100003228, symSize: 0x34 }
  - { offsetInCU: 0x3A51D, offset: 0x3A51D, size: 0x8, addend: 0x0, symName: __ZNSt3__111__wrap_iterIPK5TokenEC1B7v160006EPKvS3_, symObjAddr: 0x26E8, symBinAddr: 0x10000325C, symSize: 0x3C }
  - { offsetInCU: 0x3A565, offset: 0x3A565, size: 0x8, addend: 0x0, symName: __ZNSt3__111__wrap_iterIPK5TokenEC2B7v160006EPKvS3_, symObjAddr: 0x2724, symBinAddr: 0x100003298, symSize: 0x24 }
  - { offsetInCU: 0x3A5AD, offset: 0x3A5AD, size: 0x8, addend: 0x0, symName: __ZNKSt3__111__wrap_iterIPK5TokenE4baseB7v160006Ev, symObjAddr: 0x2790, symBinAddr: 0x100003304, symSize: 0x18 }
  - { offsetInCU: 0x3A5D3, offset: 0x3A5D3, size: 0x8, addend: 0x0, symName: __ZNKSt3__112basic_stringIcNS_11char_traitsIcEENS_9allocatorIcEEE5beginB7v160006Ev, symObjAddr: 0x27A8, symBinAddr: 0x10000331C, symSize: 0x4C }
  - { offsetInCU: 0x3A5F9, offset: 0x3A5F9, size: 0x8, addend: 0x0, symName: __ZNKSt3__112basic_stringIcNS_11char_traitsIcEENS_9allocatorIcEEE3endB7v160006Ev, symObjAddr: 0x27F4, symBinAddr: 0x100003368, symSize: 0x54 }
  - { offsetInCU: 0x3A61F, offset: 0x3A61F, size: 0x8, addend: 0x0, symName: __ZNKSt3__111__wrap_iterIPKcEdeB7v160006Ev, symObjAddr: 0x287C, symBinAddr: 0x1000033F0, symSize: 0x18 }
  - { offsetInCU: 0x3A645, offset: 0x3A645, size: 0x8, addend: 0x0, symName: __ZNSt3__111__wrap_iterIPKcEppB7v160006Ev, symObjAddr: 0x2894, symBinAddr: 0x100003408, symSize: 0x20 }
  - { offsetInCU: 0x3A66B, offset: 0x3A66B, size: 0x8, addend: 0x0, symName: __ZNKSt3__112basic_stringIcNS_11char_traitsIcEENS_9allocatorIcEEE21__make_const_iteratorB7v160006EPKc, symObjAddr: 0x28B4, symBinAddr: 0x100003428, symSize: 0x34 }
  - { offsetInCU: 0x3A6A0, offset: 0x3A6A0, size: 0x8, addend: 0x0, symName: __ZNSt3__111__wrap_iterIPKcEC1B7v160006EPKvS2_, symObjAddr: 0x28E8, symBinAddr: 0x10000345C, symSize: 0x3C }
  - { offsetInCU: 0x3A6E8, offset: 0x3A6E8, size: 0x8, addend: 0x0, symName: __ZNSt3__111__wrap_iterIPKcEC2B7v160006EPKvS2_, symObjAddr: 0x2924, symBinAddr: 0x100003498, symSize: 0x24 }
  - { offsetInCU: 0x3A730, offset: 0x3A730, size: 0x8, addend: 0x0, symName: __ZNKSt3__111__wrap_iterIPKcE4baseB7v160006Ev, symObjAddr: 0x2990, symBinAddr: 0x100003504, symSize: 0x18 }
  - { offsetInCU: 0x3A756, offset: 0x3A756, size: 0x8, addend: 0x0, symName: __ZN8nlohmann16json_abi_v3_12_010basic_jsonINSt3__13mapENS2_6vectorENS2_12basic_stringIcNS2_11char_traitsIcEENS2_9allocatorIcEEEEbxydS8_NS0_14adl_serializerENS4_IhNS8_IhEEEEvEC1EDn, symObjAddr: 0x29A8, symBinAddr: 0x10000351C, symSize: 0x4C }
  - { offsetInCU: 0x3A78B, offset: 0x3A78B, size: 0x8, addend: 0x0, symName: __ZN8nlohmann16json_abi_v3_12_010basic_jsonINSt3__13mapENS2_6vectorENS2_12basic_stringIcNS2_11char_traitsIcEENS2_9allocatorIcEEEEbxydS8_NS0_14adl_serializerENS4_IhNS8_IhEEEEvEC1IiiLi0EEEOT_, symObjAddr: 0x29F4, symBinAddr: 0x100003568, symSize: 0x34 }
  - { offsetInCU: 0x3A7DC, offset: 0x3A7DC, size: 0x8, addend: 0x0, symName: __ZN8nlohmann16json_abi_v3_12_010basic_jsonINSt3__13mapENS2_6vectorENS2_12basic_stringIcNS2_11char_traitsIcEENS2_9allocatorIcEEEEbxydS8_NS0_14adl_serializerENS4_IhNS8_IhEEEEvEixIKcEERSE_PT_, symObjAddr: 0x2A28, symBinAddr: 0x10000359C, symSize: 0x78 }
  - { offsetInCU: 0x3A81A, offset: 0x3A81A, size: 0x8, addend: 0x0, symName: __ZN8nlohmann16json_abi_v3_12_010basic_jsonINSt3__13mapENS2_6vectorENS2_12basic_stringIcNS2_11char_traitsIcEENS2_9allocatorIcEEEEbxydS8_NS0_14adl_serializerENS4_IhNS8_IhEEEEvEaSESE_, symObjAddr: 0x2AA0, symBinAddr: 0x100003614, symSize: 0x80 }
  - { offsetInCU: 0x3A850, offset: 0x3A850, size: 0x8, addend: 0x0, symName: __ZN8nlohmann16json_abi_v3_12_010basic_jsonINSt3__13mapENS2_6vectorENS2_12basic_stringIcNS2_11char_traitsIcEENS2_9allocatorIcEEEEbxydS8_NS0_14adl_serializerENS4_IhNS8_IhEEEEvE5arrayESt16initializer_listINS0_6detail8json_refISE_EEE, symObjAddr: 0x2B20, symBinAddr: 0x100003694, symSize: 0x54 }
  - { offsetInCU: 0x3A874, offset: 0x3A874, size: 0x8, addend: 0x0, symName: __ZNSt16initializer_listIN8nlohmann16json_abi_v3_12_06detail8json_refINS1_10basic_jsonINSt3__13mapENS5_6vectorENS5_12basic_stringIcNS5_11char_traitsIcEENS5_9allocatorIcEEEEbxydSB_NS1_14adl_serializerENS7_IhNSB_IhEEEEvEEEEEC1B7v160006Ev, symObjAddr: 0x2B74, symBinAddr: 0x1000036E8, symSize: 0x2C }
  - { offsetInCU: 0x3A89E, offset: 0x3A89E, size: 0x8, addend: 0x0, symName: __ZNKSt3__16vectorIP7AstNodeNS_9allocatorIS2_EEE5beginB7v160006Ev, symObjAddr: 0x2BA0, symBinAddr: 0x100003714, symSize: 0x30 }
  - { offsetInCU: 0x3A8C6, offset: 0x3A8C6, size: 0x8, addend: 0x0, symName: __ZNKSt3__16vectorIP7AstNodeNS_9allocatorIS2_EEE3endB7v160006Ev, symObjAddr: 0x2BD0, symBinAddr: 0x100003744, symSize: 0x30 }
  - { offsetInCU: 0x3A8EE, offset: 0x3A8EE, size: 0x8, addend: 0x0, symName: __ZNKSt3__111__wrap_iterIPKP7AstNodeEdeB7v160006Ev, symObjAddr: 0x2C34, symBinAddr: 0x1000037A8, symSize: 0x18 }
  - { offsetInCU: 0x3A914, offset: 0x3A914, size: 0x8, addend: 0x0, symName: __ZN8nlohmann16json_abi_v3_12_010basic_jsonINSt3__13mapENS2_6vectorENS2_12basic_stringIcNS2_11char_traitsIcEENS2_9allocatorIcEEEEbxydS8_NS0_14adl_serializerENS4_IhNS8_IhEEEEvE9push_backEOSE_, symObjAddr: 0x2C4C, symBinAddr: 0x1000037C0, symSize: 0x1B0 }
  - { offsetInCU: 0x3A958, offset: 0x3A958, size: 0x8, addend: 0x0, symName: __ZNSt3__111__wrap_iterIPKP7AstNodeEppB7v160006Ev, symObjAddr: 0x2DFC, symBinAddr: 0x100003970, symSize: 0x20 }
  - { offsetInCU: 0x3A97E, offset: 0x3A97E, size: 0x8, addend: 0x0, symName: __ZN8nlohmann16json_abi_v3_12_010basic_jsonINSt3__13mapENS2_6vectorENS2_12basic_stringIcNS2_11char_traitsIcEENS2_9allocatorIcEEEEbxydS8_NS0_14adl_serializerENS4_IhNS8_IhEEEEvEC1ENS0_6detail7value_tE, symObjAddr: 0x2E1C, symBinAddr: 0x100003990, symSize: 0x34 }
  - { offsetInCU: 0x3A9B7, offset: 0x3A9B7, size: 0x8, addend: 0x0, symName: __ZNK8nlohmann16json_abi_v3_12_010basic_jsonINSt3__13mapENS2_6vectorENS2_12basic_stringIcNS2_11char_traitsIcEENS2_9allocatorIcEEEEbxydS8_NS0_14adl_serializerENS4_IhNS8_IhEEEEvE16assert_invariantEb, symObjAddr: 0x2E50, symBinAddr: 0x1000039C4, symSize: 0x1F0 }
  - { offsetInCU: 0x3A9EC, offset: 0x3A9EC, size: 0x8, addend: 0x0, symName: __ZN8nlohmann16json_abi_v3_12_010basic_jsonINSt3__13mapENS2_6vectorENS2_12basic_stringIcNS2_11char_traitsIcEENS2_9allocatorIcEEEEbxydS8_NS0_14adl_serializerENS4_IhNS8_IhEEEEvEC2ENS0_6detail7value_tE, symObjAddr: 0x3040, symBinAddr: 0x100003BB4, symSize: 0x44 }
  - { offsetInCU: 0x3AA25, offset: 0x3AA25, size: 0x8, addend: 0x0, symName: __ZN8nlohmann16json_abi_v3_12_010basic_jsonINSt3__13mapENS2_6vectorENS2_12basic_stringIcNS2_11char_traitsIcEENS2_9allocatorIcEEEEbxydS8_NS0_14adl_serializerENS4_IhNS8_IhEEEEvE4dataC1ENS0_6detail7value_tE, symObjAddr: 0x3084, symBinAddr: 0x100003BF8, symSize: 0x34 }
  - { offsetInCU: 0x3AA5E, offset: 0x3AA5E, size: 0x8, addend: 0x0, symName: __ZN8nlohmann16json_abi_v3_12_010basic_jsonINSt3__13mapENS2_6vectorENS2_12basic_stringIcNS2_11char_traitsIcEENS2_9allocatorIcEEEEbxydS8_NS0_14adl_serializerENS4_IhNS8_IhEEEEvE4dataC2ENS0_6detail7value_tE, symObjAddr: 0x30B8, symBinAddr: 0x100003C2C, symSize: 0x40 }
  - { offsetInCU: 0x3AA97, offset: 0x3AA97, size: 0x8, addend: 0x0, symName: __ZN8nlohmann16json_abi_v3_12_010basic_jsonINSt3__13mapENS2_6vectorENS2_12basic_stringIcNS2_11char_traitsIcEENS2_9allocatorIcEEEEbxydS8_NS0_14adl_serializerENS4_IhNS8_IhEEEEvE10json_valueC1ENS0_6detail7value_tE, symObjAddr: 0x30F8, symBinAddr: 0x100003C6C, symSize: 0x34 }
  - { offsetInCU: 0x3AAD0, offset: 0x3AAD0, size: 0x8, addend: 0x0, symName: __ZN8nlohmann16json_abi_v3_12_010basic_jsonINSt3__13mapENS2_6vectorENS2_12basic_stringIcNS2_11char_traitsIcEENS2_9allocatorIcEEEEbxydS8_NS0_14adl_serializerENS4_IhNS8_IhEEEEvE10json_valueC2ENS0_6detail7value_tE, symObjAddr: 0x312C, symBinAddr: 0x100003CA0, symSize: 0x1DC }
  - { offsetInCU: 0x3AB09, offset: 0x3AB09, size: 0x8, addend: 0x0, symName: __ZN8nlohmann16json_abi_v3_12_010basic_jsonINSt3__13mapENS2_6vectorENS2_12basic_stringIcNS2_11char_traitsIcEENS2_9allocatorIcEEEEbxydS8_NS0_14adl_serializerENS4_IhNS8_IhEEEEvE6createINS3_ISA_SE_NS2_4lessIvEENS8_INS2_4pairIKSA_SE_EEEEEEJEEEPT_DpOT0_, symObjAddr: 0x3330, symBinAddr: 0x100003EA4, symSize: 0xEC }
  - { offsetInCU: 0x3AB82, offset: 0x3AB82, size: 0x8, addend: 0x0, symName: __ZN8nlohmann16json_abi_v3_12_010basic_jsonINSt3__13mapENS2_6vectorENS2_12basic_stringIcNS2_11char_traitsIcEENS2_9allocatorIcEEEEbxydS8_NS0_14adl_serializerENS4_IhNS8_IhEEEEvE6createINS4_ISE_NS8_ISE_EEEEJEEEPT_DpOT0_, symObjAddr: 0x341C, symBinAddr: 0x100003F90, symSize: 0xEC }
  - { offsetInCU: 0x3AC14, offset: 0x3AC14, size: 0x8, addend: 0x0, symName: __ZN8nlohmann16json_abi_v3_12_010basic_jsonINSt3__13mapENS2_6vectorENS2_12basic_stringIcNS2_11char_traitsIcEENS2_9allocatorIcEEEEbxydS8_NS0_14adl_serializerENS4_IhNS8_IhEEEEvE6createISA_JRA1_KcEEEPT_DpOT0_, symObjAddr: 0x3508, symBinAddr: 0x10000407C, symSize: 0xF4 }
  - { offsetInCU: 0x3ACA2, offset: 0x3ACA2, size: 0x8, addend: 0x0, symName: __ZN8nlohmann16json_abi_v3_12_010basic_jsonINSt3__13mapENS2_6vectorENS2_12basic_stringIcNS2_11char_traitsIcEENS2_9allocatorIcEEEEbxydS8_NS0_14adl_serializerENS4_IhNS8_IhEEEEvE6createINS0_27byte_container_with_subtypeISD_EEJEEEPT_DpOT0_, symObjAddr: 0x35FC, symBinAddr: 0x100004170, symSize: 0xEC }
  - { offsetInCU: 0x3AD4F, offset: 0x3AD4F, size: 0x8, addend: 0x0, symName: __ZN8nlohmann16json_abi_v3_12_06detail11other_error6createIDnLi0EEES2_iRKNSt3__112basic_stringIcNS4_11char_traitsIcEENS4_9allocatorIcEEEET_, symObjAddr: 0x36E8, symBinAddr: 0x10000425C, symSize: 0x130 }
  - { offsetInCU: 0x3ADAF, offset: 0x3ADAF, size: 0x8, addend: 0x0, symName: __ZN8nlohmann16json_abi_v3_12_06detail11other_errorD1Ev, symObjAddr: 0x3818, symBinAddr: 0x10000438C, symSize: 0x2C }
  - { offsetInCU: 0x3ADE8, offset: 0x3ADE8, size: 0x8, addend: 0x0, symName: __ZNSt3__19allocatorINS_3mapINS_12basic_stringIcNS_11char_traitsIcEENS0_IcEEEEN8nlohmann16json_abi_v3_12_010basic_jsonIS1_NS_6vectorES6_bxydS0_NS8_14adl_serializerENSA_IhNS0_IhEEEEvEENS_4lessIvEENS0_INS_4pairIKS6_SE_EEEEEEEC1B7v160006Ev, symObjAddr: 0x3844, symBinAddr: 0x1000043B8, symSize: 0x2C }
  - { offsetInCU: 0x3AE18, offset: 0x3AE18, size: 0x8, addend: 0x0, symName: __ZNSt3__116allocator_traitsINS_9allocatorINS_3mapINS_12basic_stringIcNS_11char_traitsIcEENS1_IcEEEEN8nlohmann16json_abi_v3_12_010basic_jsonIS2_NS_6vectorES7_bxydS1_NS9_14adl_serializerENSB_IhNS1_IhEEEEvEENS_4lessIvEENS1_INS_4pairIKS7_SF_EEEEEEEEE8allocateB7v160006ERSN_m, symObjAddr: 0x3870, symBinAddr: 0x1000043E4, symSize: 0x2C }
  - { offsetInCU: 0x3AEEC, offset: 0x3AEEC, size: 0x8, addend: 0x0, symName: __ZNSt3__110unique_ptrINS_3mapINS_12basic_stringIcNS_11char_traitsIcEENS_9allocatorIcEEEEN8nlohmann16json_abi_v3_12_010basic_jsonIS1_NS_6vectorES7_bxydS5_NS9_14adl_serializerENSB_IhNS5_IhEEEEvEENS_4lessIvEENS5_INS_4pairIKS7_SF_EEEEEEZNSF_6createISM_JEEEPT_DpOT0_EUlPSM_E_EC1B7v160006ILb1EvEEST_NS_16__dependent_typeINS_27__unique_ptr_deleter_sfinaeISU_EEXT_EE15__lval_ref_typeE, symObjAddr: 0x389C, symBinAddr: 0x100004410, symSize: 0x3C }
  - { offsetInCU: 0x3AF3F, offset: 0x3AF3F, size: 0x8, addend: 0x0, symName: __ZNSt3__116allocator_traitsINS_9allocatorINS_3mapINS_12basic_stringIcNS_11char_traitsIcEENS1_IcEEEEN8nlohmann16json_abi_v3_12_010basic_jsonIS2_NS_6vectorES7_bxydS1_NS9_14adl_serializerENSB_IhNS1_IhEEEEvEENS_4lessIvEENS1_INS_4pairIKS7_SF_EEEEEEEEE9constructB7v160006ISM_JEvvEEvRSN_PT_DpOT0_, symObjAddr: 0x38D8, symBinAddr: 0x10000444C, symSize: 0x28 }
  - { offsetInCU: 0x3AF7E, offset: 0x3AF7E, size: 0x8, addend: 0x0, symName: __ZNKSt3__110unique_ptrINS_3mapINS_12basic_stringIcNS_11char_traitsIcEENS_9allocatorIcEEEEN8nlohmann16json_abi_v3_12_010basic_jsonIS1_NS_6vectorES7_bxydS5_NS9_14adl_serializerENSB_IhNS5_IhEEEEvEENS_4lessIvEENS5_INS_4pairIKS7_SF_EEEEEEZNSF_6createISM_JEEEPT_DpOT0_EUlPSM_E_E3getB7v160006Ev, symObjAddr: 0x3900, symBinAddr: 0x100004474, symSize: 0x28 }
  - { offsetInCU: 0x3AFA4, offset: 0x3AFA4, size: 0x8, addend: 0x0, symName: __ZNSt3__110unique_ptrINS_3mapINS_12basic_stringIcNS_11char_traitsIcEENS_9allocatorIcEEEEN8nlohmann16json_abi_v3_12_010basic_jsonIS1_NS_6vectorES7_bxydS5_NS9_14adl_serializerENSB_IhNS5_IhEEEEvEENS_4lessIvEENS5_INS_4pairIKS7_SF_EEEEEEZNSF_6createISM_JEEEPT_DpOT0_EUlPSM_E_E7releaseB7v160006Ev, symObjAddr: 0x3958, symBinAddr: 0x1000044CC, symSize: 0x44 }
  - { offsetInCU: 0x3AFD9, offset: 0x3AFD9, size: 0x8, addend: 0x0, symName: __ZNSt3__110unique_ptrINS_3mapINS_12basic_stringIcNS_11char_traitsIcEENS_9allocatorIcEEEEN8nlohmann16json_abi_v3_12_010basic_jsonIS1_NS_6vectorES7_bxydS5_NS9_14adl_serializerENSB_IhNS5_IhEEEEvEENS_4lessIvEENS5_INS_4pairIKS7_SF_EEEEEEZNSF_6createISM_JEEEPT_DpOT0_EUlPSM_E_ED1B7v160006Ev, symObjAddr: 0x399C, symBinAddr: 0x100004510, symSize: 0x2C }
  - { offsetInCU: 0x3B003, offset: 0x3B003, size: 0x8, addend: 0x0, symName: __ZNSt3__19allocatorINS_3mapINS_12basic_stringIcNS_11char_traitsIcEENS0_IcEEEEN8nlohmann16json_abi_v3_12_010basic_jsonIS1_NS_6vectorES6_bxydS0_NS8_14adl_serializerENSA_IhNS0_IhEEEEvEENS_4lessIvEENS0_INS_4pairIKS6_SE_EEEEEEEC2B7v160006Ev, symObjAddr: 0x39C8, symBinAddr: 0x10000453C, symSize: 0x2C }
  - { offsetInCU: 0x3B02D, offset: 0x3B02D, size: 0x8, addend: 0x0, symName: __ZNSt3__116__non_trivial_ifILb1ENS_9allocatorINS_3mapINS_12basic_stringIcNS_11char_traitsIcEENS1_IcEEEEN8nlohmann16json_abi_v3_12_010basic_jsonIS2_NS_6vectorES7_bxydS1_NS9_14adl_serializerENSB_IhNS1_IhEEEEvEENS_4lessIvEENS1_INS_4pairIKS7_SF_EEEEEEEEEC2B7v160006Ev, symObjAddr: 0x39F4, symBinAddr: 0x100004568, symSize: 0x14 }
  - { offsetInCU: 0x3B057, offset: 0x3B057, size: 0x8, addend: 0x0, symName: __ZNSt3__19allocatorINS_3mapINS_12basic_stringIcNS_11char_traitsIcEENS0_IcEEEEN8nlohmann16json_abi_v3_12_010basic_jsonIS1_NS_6vectorES6_bxydS0_NS8_14adl_serializerENSA_IhNS0_IhEEEEvEENS_4lessIvEENS0_INS_4pairIKS6_SE_EEEEEEE8allocateB7v160006Em, symObjAddr: 0x3A08, symBinAddr: 0x10000457C, symSize: 0x5C }
  - { offsetInCU: 0x3B097, offset: 0x3B097, size: 0x8, addend: 0x0, symName: __ZNSt3__116allocator_traitsINS_9allocatorINS_3mapINS_12basic_stringIcNS_11char_traitsIcEENS1_IcEEEEN8nlohmann16json_abi_v3_12_010basic_jsonIS2_NS_6vectorES7_bxydS1_NS9_14adl_serializerENSB_IhNS1_IhEEEEvEENS_4lessIvEENS1_INS_4pairIKS7_SF_EEEEEEEEE8max_sizeB7v160006ISN_vvEEmRKSN_, symObjAddr: 0x3A64, symBinAddr: 0x1000045D8, symSize: 0x28 }
  - { offsetInCU: 0x3B0C2, offset: 0x3B0C2, size: 0x8, addend: 0x0, symName: __ZNSt3__114numeric_limitsImE3maxB7v160006Ev, symObjAddr: 0x3B20, symBinAddr: 0x100004694, symSize: 0x14 }
  - { offsetInCU: 0x3B0D6, offset: 0x3B0D6, size: 0x8, addend: 0x0, symName: __ZNSt3__123__libcpp_numeric_limitsImLb1EE3maxB7v160006Ev, symObjAddr: 0x3B34, symBinAddr: 0x1000046A8, symSize: 0x8 }
  - { offsetInCU: 0x3B0EA, offset: 0x3B0EA, size: 0x8, addend: 0x0, symName: __ZNSt3__110unique_ptrINS_3mapINS_12basic_stringIcNS_11char_traitsIcEENS_9allocatorIcEEEEN8nlohmann16json_abi_v3_12_010basic_jsonIS1_NS_6vectorES7_bxydS5_NS9_14adl_serializerENSB_IhNS5_IhEEEEvEENS_4lessIvEENS5_INS_4pairIKS7_SF_EEEEEEZNSF_6createISM_JEEEPT_DpOT0_EUlPSM_E_EC2B7v160006ILb1EvEEST_NS_16__dependent_typeINS_27__unique_ptr_deleter_sfinaeISU_EEXT_EE15__lval_ref_typeE, symObjAddr: 0x3B8C, symBinAddr: 0x100004700, symSize: 0x48 }
  - { offsetInCU: 0x3B13D, offset: 0x3B13D, size: 0x8, addend: 0x0, symName: __ZNSt3__117__compressed_pairIPNS_3mapINS_12basic_stringIcNS_11char_traitsIcEENS_9allocatorIcEEEEN8nlohmann16json_abi_v3_12_010basic_jsonIS1_NS_6vectorES7_bxydS5_NS9_14adl_serializerENSB_IhNS5_IhEEEEvEENS_4lessIvEENS5_INS_4pairIKS7_SF_EEEEEEZNSF_6createISM_JEEEPT_DpOT0_EUlSN_E_EC1B7v160006IRSN_RKSU_EEOSP_OT0_, symObjAddr: 0x3BD4, symBinAddr: 0x100004748, symSize: 0x3C }
  - { offsetInCU: 0x3B197, offset: 0x3B197, size: 0x8, addend: 0x0, symName: __ZNSt3__117__compressed_pairIPNS_3mapINS_12basic_stringIcNS_11char_traitsIcEENS_9allocatorIcEEEEN8nlohmann16json_abi_v3_12_010basic_jsonIS1_NS_6vectorES7_bxydS5_NS9_14adl_serializerENSB_IhNS5_IhEEEEvEENS_4lessIvEENS5_INS_4pairIKS7_SF_EEEEEEZNSF_6createISM_JEEEPT_DpOT0_EUlSN_E_EC2B7v160006IRSN_RKSU_EEOSP_OT0_, symObjAddr: 0x3C10, symBinAddr: 0x100004784, symSize: 0x48 }
  - { offsetInCU: 0x3B1F1, offset: 0x3B1F1, size: 0x8, addend: 0x0, symName: __ZNSt3__122__compressed_pair_elemIPNS_3mapINS_12basic_stringIcNS_11char_traitsIcEENS_9allocatorIcEEEEN8nlohmann16json_abi_v3_12_010basic_jsonIS1_NS_6vectorES7_bxydS5_NS9_14adl_serializerENSB_IhNS5_IhEEEEvEENS_4lessIvEENS5_INS_4pairIKS7_SF_EEEEEELi0ELb0EEC2B7v160006IRSN_vEEOT_, symObjAddr: 0x3C58, symBinAddr: 0x1000047CC, symSize: 0x24 }
  - { offsetInCU: 0x3B234, offset: 0x3B234, size: 0x8, addend: 0x0, symName: __ZNSt3__122__compressed_pair_elemIZN8nlohmann16json_abi_v3_12_010basic_jsonINS_3mapENS_6vectorENS_12basic_stringIcNS_11char_traitsIcEENS_9allocatorIcEEEEbxydS9_NS2_14adl_serializerENS5_IhNS9_IhEEEEvE6createINS4_ISB_SF_NS_4lessIvEENS9_INS_4pairIKSB_SF_EEEEEEJEEEPT_DpOT0_EUlPSN_E_Li1ELb0EEC2B7v160006IRKSU_vEEOSO_, symObjAddr: 0x3C7C, symBinAddr: 0x1000047F0, symSize: 0x24 }
  - { offsetInCU: 0x3B277, offset: 0x3B277, size: 0x8, addend: 0x0, symName: __ZNSt3__13mapINS_12basic_stringIcNS_11char_traitsIcEENS_9allocatorIcEEEEN8nlohmann16json_abi_v3_12_010basic_jsonIS0_NS_6vectorES6_bxydS4_NS8_14adl_serializerENSA_IhNS4_IhEEEEvEENS_4lessIvEENS4_INS_4pairIKS6_SE_EEEEEC1B7v160006Ev, symObjAddr: 0x3CD4, symBinAddr: 0x100004848, symSize: 0x2C }
  - { offsetInCU: 0x3B2A1, offset: 0x3B2A1, size: 0x8, addend: 0x0, symName: __ZNSt3__13mapINS_12basic_stringIcNS_11char_traitsIcEENS_9allocatorIcEEEEN8nlohmann16json_abi_v3_12_010basic_jsonIS0_NS_6vectorES6_bxydS4_NS8_14adl_serializerENSA_IhNS4_IhEEEEvEENS_4lessIvEENS4_INS_4pairIKS6_SE_EEEEEC2B7v160006Ev, symObjAddr: 0x3D00, symBinAddr: 0x100004874, symSize: 0x40 }
  - { offsetInCU: 0x3B2CB, offset: 0x3B2CB, size: 0x8, addend: 0x0, symName: __ZNSt3__119__map_value_compareINS_12basic_stringIcNS_11char_traitsIcEENS_9allocatorIcEEEENS_12__value_typeIS6_N8nlohmann16json_abi_v3_12_010basic_jsonINS_3mapENS_6vectorES6_bxydS4_NS9_14adl_serializerENSC_IhNS4_IhEEEEvEEEENS_4lessIvEELb1EEC1B7v160006ESJ_, symObjAddr: 0x3D40, symBinAddr: 0x1000048B4, symSize: 0x2C }
  - { offsetInCU: 0x3B304, offset: 0x3B304, size: 0x8, addend: 0x0, symName: __ZNSt3__16__treeINS_12__value_typeINS_12basic_stringIcNS_11char_traitsIcEENS_9allocatorIcEEEEN8nlohmann16json_abi_v3_12_010basic_jsonINS_3mapENS_6vectorES7_bxydS5_NS9_14adl_serializerENSC_IhNS5_IhEEEEvEEEENS_19__map_value_compareIS7_SH_NS_4lessIvEELb1EEENS5_ISH_EEEC1ERKSL_, symObjAddr: 0x3D6C, symBinAddr: 0x1000048E0, symSize: 0x34 }
  - { offsetInCU: 0x3B33F, offset: 0x3B33F, size: 0x8, addend: 0x0, symName: __ZNSt3__119__map_value_compareINS_12basic_stringIcNS_11char_traitsIcEENS_9allocatorIcEEEENS_12__value_typeIS6_N8nlohmann16json_abi_v3_12_010basic_jsonINS_3mapENS_6vectorES6_bxydS4_NS9_14adl_serializerENSC_IhNS4_IhEEEEvEEEENS_4lessIvEELb1EEC2B7v160006ESJ_, symObjAddr: 0x3DA0, symBinAddr: 0x100004914, symSize: 0x14 }
  - { offsetInCU: 0x3B378, offset: 0x3B378, size: 0x8, addend: 0x0, symName: __ZNSt3__16__treeINS_12__value_typeINS_12basic_stringIcNS_11char_traitsIcEENS_9allocatorIcEEEEN8nlohmann16json_abi_v3_12_010basic_jsonINS_3mapENS_6vectorES7_bxydS5_NS9_14adl_serializerENSC_IhNS5_IhEEEEvEEEENS_19__map_value_compareIS7_SH_NS_4lessIvEELb1EEENS5_ISH_EEEC2ERKSL_, symObjAddr: 0x3DB4, symBinAddr: 0x100004928, symSize: 0x7C }
  - { offsetInCU: 0x3B3B3, offset: 0x3B3B3, size: 0x8, addend: 0x0, symName: __ZNSt3__117__compressed_pairINS_15__tree_end_nodeIPNS_16__tree_node_baseIPvEEEENS_9allocatorINS_11__tree_nodeINS_12__value_typeINS_12basic_stringIcNS_11char_traitsIcEENS7_IcEEEEN8nlohmann16json_abi_v3_12_010basic_jsonINS_3mapENS_6vectorESE_bxydS7_NSG_14adl_serializerENSJ_IhNS7_IhEEEEvEEEES3_EEEEEC1B7v160006ILb1EvEEv, symObjAddr: 0x3E30, symBinAddr: 0x1000049A4, symSize: 0x2C }
  - { offsetInCU: 0x3B3E8, offset: 0x3B3E8, size: 0x8, addend: 0x0, symName: __ZNSt3__117__compressed_pairImNS_19__map_value_compareINS_12basic_stringIcNS_11char_traitsIcEENS_9allocatorIcEEEENS_12__value_typeIS7_N8nlohmann16json_abi_v3_12_010basic_jsonINS_3mapENS_6vectorES7_bxydS5_NSA_14adl_serializerENSD_IhNS5_IhEEEEvEEEENS_4lessIvEELb1EEEEC1B7v160006IiRKSL_EEOT_OT0_, symObjAddr: 0x3E5C, symBinAddr: 0x1000049D0, symSize: 0x3C }
  - { offsetInCU: 0x3B442, offset: 0x3B442, size: 0x8, addend: 0x0, symName: __ZNSt3__16__treeINS_12__value_typeINS_12basic_stringIcNS_11char_traitsIcEENS_9allocatorIcEEEEN8nlohmann16json_abi_v3_12_010basic_jsonINS_3mapENS_6vectorES7_bxydS5_NS9_14adl_serializerENSC_IhNS5_IhEEEEvEEEENS_19__map_value_compareIS7_SH_NS_4lessIvEELb1EEENS5_ISH_EEE10__end_nodeB7v160006Ev, symObjAddr: 0x3E98, symBinAddr: 0x100004A0C, symSize: 0x2C }
  - { offsetInCU: 0x3B468, offset: 0x3B468, size: 0x8, addend: 0x0, symName: __ZNSt3__16__treeINS_12__value_typeINS_12basic_stringIcNS_11char_traitsIcEENS_9allocatorIcEEEEN8nlohmann16json_abi_v3_12_010basic_jsonINS_3mapENS_6vectorES7_bxydS5_NS9_14adl_serializerENSC_IhNS5_IhEEEEvEEEENS_19__map_value_compareIS7_SH_NS_4lessIvEELb1EEENS5_ISH_EEE12__begin_nodeB7v160006Ev, symObjAddr: 0x3EC4, symBinAddr: 0x100004A38, symSize: 0x14 }
  - { offsetInCU: 0x3B48E, offset: 0x3B48E, size: 0x8, addend: 0x0, symName: __ZNSt3__117__compressed_pairINS_15__tree_end_nodeIPNS_16__tree_node_baseIPvEEEENS_9allocatorINS_11__tree_nodeINS_12__value_typeINS_12basic_stringIcNS_11char_traitsIcEENS7_IcEEEEN8nlohmann16json_abi_v3_12_010basic_jsonINS_3mapENS_6vectorESE_bxydS7_NSG_14adl_serializerENSJ_IhNS7_IhEEEEvEEEES3_EEEEEC2B7v160006ILb1EvEEv, symObjAddr: 0x3ED8, symBinAddr: 0x100004A4C, symSize: 0x34 }
  - { offsetInCU: 0x3B4C3, offset: 0x3B4C3, size: 0x8, addend: 0x0, symName: __ZNSt3__122__compressed_pair_elemINS_15__tree_end_nodeIPNS_16__tree_node_baseIPvEEEELi0ELb0EEC2B7v160006ENS_16__value_init_tagE, symObjAddr: 0x3F0C, symBinAddr: 0x100004A80, symSize: 0x2C }
  - { offsetInCU: 0x3B4F8, offset: 0x3B4F8, size: 0x8, addend: 0x0, symName: __ZNSt3__122__compressed_pair_elemINS_9allocatorINS_11__tree_nodeINS_12__value_typeINS_12basic_stringIcNS_11char_traitsIcEENS1_IcEEEEN8nlohmann16json_abi_v3_12_010basic_jsonINS_3mapENS_6vectorES8_bxydS1_NSA_14adl_serializerENSD_IhNS1_IhEEEEvEEEEPvEEEELi1ELb1EEC2B7v160006ENS_16__value_init_tagE, symObjAddr: 0x3F38, symBinAddr: 0x100004AAC, symSize: 0x2C }
  - { offsetInCU: 0x3B52D, offset: 0x3B52D, size: 0x8, addend: 0x0, symName: __ZNSt3__115__tree_end_nodeIPNS_16__tree_node_baseIPvEEEC1B7v160006Ev, symObjAddr: 0x3F64, symBinAddr: 0x100004AD8, symSize: 0x2C }
  - { offsetInCU: 0x3B557, offset: 0x3B557, size: 0x8, addend: 0x0, symName: __ZNSt3__115__tree_end_nodeIPNS_16__tree_node_baseIPvEEEC2B7v160006Ev, symObjAddr: 0x3F90, symBinAddr: 0x100004B04, symSize: 0x18 }
  - { offsetInCU: 0x3B581, offset: 0x3B581, size: 0x8, addend: 0x0, symName: __ZNSt3__19allocatorINS_11__tree_nodeINS_12__value_typeINS_12basic_stringIcNS_11char_traitsIcEENS0_IcEEEEN8nlohmann16json_abi_v3_12_010basic_jsonINS_3mapENS_6vectorES7_bxydS0_NS9_14adl_serializerENSC_IhNS0_IhEEEEvEEEEPvEEEC2B7v160006Ev, symObjAddr: 0x3FA8, symBinAddr: 0x100004B1C, symSize: 0x2C }
  - { offsetInCU: 0x3B5AB, offset: 0x3B5AB, size: 0x8, addend: 0x0, symName: __ZNSt3__116__non_trivial_ifILb1ENS_9allocatorINS_11__tree_nodeINS_12__value_typeINS_12basic_stringIcNS_11char_traitsIcEENS1_IcEEEEN8nlohmann16json_abi_v3_12_010basic_jsonINS_3mapENS_6vectorES8_bxydS1_NSA_14adl_serializerENSD_IhNS1_IhEEEEvEEEEPvEEEEEC2B7v160006Ev, symObjAddr: 0x3FD4, symBinAddr: 0x100004B48, symSize: 0x14 }
  - { offsetInCU: 0x3B5D5, offset: 0x3B5D5, size: 0x8, addend: 0x0, symName: __ZNSt3__117__compressed_pairImNS_19__map_value_compareINS_12basic_stringIcNS_11char_traitsIcEENS_9allocatorIcEEEENS_12__value_typeIS7_N8nlohmann16json_abi_v3_12_010basic_jsonINS_3mapENS_6vectorES7_bxydS5_NSA_14adl_serializerENSD_IhNS5_IhEEEEvEEEENS_4lessIvEELb1EEEEC2B7v160006IiRKSL_EEOT_OT0_, symObjAddr: 0x3FE8, symBinAddr: 0x100004B5C, symSize: 0x44 }
  - { offsetInCU: 0x3B62F, offset: 0x3B62F, size: 0x8, addend: 0x0, symName: __ZNSt3__122__compressed_pair_elemImLi0ELb0EEC2B7v160006IivEEOT_, symObjAddr: 0x402C, symBinAddr: 0x100004BA0, symSize: 0x24 }
  - { offsetInCU: 0x3B672, offset: 0x3B672, size: 0x8, addend: 0x0, symName: __ZNSt3__122__compressed_pair_elemINS_19__map_value_compareINS_12basic_stringIcNS_11char_traitsIcEENS_9allocatorIcEEEENS_12__value_typeIS7_N8nlohmann16json_abi_v3_12_010basic_jsonINS_3mapENS_6vectorES7_bxydS5_NSA_14adl_serializerENSD_IhNS5_IhEEEEvEEEENS_4lessIvEELb1EEELi1ELb1EEC2B7v160006IRKSL_vEEOT_, symObjAddr: 0x4050, symBinAddr: 0x100004BC4, symSize: 0x18 }
  - { offsetInCU: 0x3B6B5, offset: 0x3B6B5, size: 0x8, addend: 0x0, symName: __ZNSt3__114pointer_traitsIPNS_15__tree_end_nodeIPNS_16__tree_node_baseIPvEEEEE10pointer_toB7v160006ERS6_, symObjAddr: 0x4068, symBinAddr: 0x100004BDC, symSize: 0x14 }
  - { offsetInCU: 0x3B6D9, offset: 0x3B6D9, size: 0x8, addend: 0x0, symName: __ZNSt3__117__compressed_pairINS_15__tree_end_nodeIPNS_16__tree_node_baseIPvEEEENS_9allocatorINS_11__tree_nodeINS_12__value_typeINS_12basic_stringIcNS_11char_traitsIcEENS7_IcEEEEN8nlohmann16json_abi_v3_12_010basic_jsonINS_3mapENS_6vectorESE_bxydS7_NSG_14adl_serializerENSJ_IhNS7_IhEEEEvEEEES3_EEEEE5firstB7v160006Ev, symObjAddr: 0x407C, symBinAddr: 0x100004BF0, symSize: 0x24 }
  - { offsetInCU: 0x3B6FF, offset: 0x3B6FF, size: 0x8, addend: 0x0, symName: __ZNSt3__122__compressed_pair_elemINS_15__tree_end_nodeIPNS_16__tree_node_baseIPvEEEELi0ELb0EE5__getB7v160006Ev, symObjAddr: 0x40A0, symBinAddr: 0x100004C14, symSize: 0x14 }
  - { offsetInCU: 0x3B725, offset: 0x3B725, size: 0x8, addend: 0x0, symName: __ZNKSt3__117__compressed_pairIPNS_3mapINS_12basic_stringIcNS_11char_traitsIcEENS_9allocatorIcEEEEN8nlohmann16json_abi_v3_12_010basic_jsonIS1_NS_6vectorES7_bxydS5_NS9_14adl_serializerENSB_IhNS5_IhEEEEvEENS_4lessIvEENS5_INS_4pairIKS7_SF_EEEEEEZNSF_6createISM_JEEEPT_DpOT0_EUlSN_E_E5firstB7v160006Ev, symObjAddr: 0x40B4, symBinAddr: 0x100004C28, symSize: 0x24 }
  - { offsetInCU: 0x3B74B, offset: 0x3B74B, size: 0x8, addend: 0x0, symName: __ZNKSt3__122__compressed_pair_elemIPNS_3mapINS_12basic_stringIcNS_11char_traitsIcEENS_9allocatorIcEEEEN8nlohmann16json_abi_v3_12_010basic_jsonIS1_NS_6vectorES7_bxydS5_NS9_14adl_serializerENSB_IhNS5_IhEEEEvEENS_4lessIvEENS5_INS_4pairIKS7_SF_EEEEEELi0ELb0EE5__getB7v160006Ev, symObjAddr: 0x40D8, symBinAddr: 0x100004C4C, symSize: 0x14 }
  - { offsetInCU: 0x3B771, offset: 0x3B771, size: 0x8, addend: 0x0, symName: __ZNKSt3__110unique_ptrINS_3mapINS_12basic_stringIcNS_11char_traitsIcEENS_9allocatorIcEEEEN8nlohmann16json_abi_v3_12_010basic_jsonIS1_NS_6vectorES7_bxydS5_NS9_14adl_serializerENSB_IhNS5_IhEEEEvEENS_4lessIvEENS5_INS_4pairIKS7_SF_EEEEEEZNSF_6createISM_JEEEPT_DpOT0_EUlPSM_E_EcvbB7v160006Ev, symObjAddr: 0x40EC, symBinAddr: 0x100004C60, symSize: 0x34 }
  - { offsetInCU: 0x3B797, offset: 0x3B797, size: 0x8, addend: 0x0, symName: __ZNSt3__117__compressed_pairIPNS_3mapINS_12basic_stringIcNS_11char_traitsIcEENS_9allocatorIcEEEEN8nlohmann16json_abi_v3_12_010basic_jsonIS1_NS_6vectorES7_bxydS5_NS9_14adl_serializerENSB_IhNS5_IhEEEEvEENS_4lessIvEENS5_INS_4pairIKS7_SF_EEEEEEZNSF_6createISM_JEEEPT_DpOT0_EUlSN_E_E5firstB7v160006Ev, symObjAddr: 0x4120, symBinAddr: 0x100004C94, symSize: 0x24 }
  - { offsetInCU: 0x3B7BD, offset: 0x3B7BD, size: 0x8, addend: 0x0, symName: __ZNSt3__122__compressed_pair_elemIPNS_3mapINS_12basic_stringIcNS_11char_traitsIcEENS_9allocatorIcEEEEN8nlohmann16json_abi_v3_12_010basic_jsonIS1_NS_6vectorES7_bxydS5_NS9_14adl_serializerENSB_IhNS5_IhEEEEvEENS_4lessIvEENS5_INS_4pairIKS7_SF_EEEEEELi0ELb0EE5__getB7v160006Ev, symObjAddr: 0x4144, symBinAddr: 0x100004CB8, symSize: 0x14 }
  - { offsetInCU: 0x3B7E3, offset: 0x3B7E3, size: 0x8, addend: 0x0, symName: __ZNSt3__110unique_ptrINS_3mapINS_12basic_stringIcNS_11char_traitsIcEENS_9allocatorIcEEEEN8nlohmann16json_abi_v3_12_010basic_jsonIS1_NS_6vectorES7_bxydS5_NS9_14adl_serializerENSB_IhNS5_IhEEEEvEENS_4lessIvEENS5_INS_4pairIKS7_SF_EEEEEEZNSF_6createISM_JEEEPT_DpOT0_EUlPSM_E_ED2B7v160006Ev, symObjAddr: 0x4158, symBinAddr: 0x100004CCC, symSize: 0x30 }
  - { offsetInCU: 0x3B80D, offset: 0x3B80D, size: 0x8, addend: 0x0, symName: __ZNSt3__110unique_ptrINS_3mapINS_12basic_stringIcNS_11char_traitsIcEENS_9allocatorIcEEEEN8nlohmann16json_abi_v3_12_010basic_jsonIS1_NS_6vectorES7_bxydS5_NS9_14adl_serializerENSB_IhNS5_IhEEEEvEENS_4lessIvEENS5_INS_4pairIKS7_SF_EEEEEEZNSF_6createISM_JEEEPT_DpOT0_EUlPSM_E_E5resetB7v160006EST_, symObjAddr: 0x4188, symBinAddr: 0x100004CFC, symSize: 0x80 }
  - { offsetInCU: 0x3B851, offset: 0x3B851, size: 0x8, addend: 0x0, symName: __ZNSt3__117__compressed_pairIPNS_3mapINS_12basic_stringIcNS_11char_traitsIcEENS_9allocatorIcEEEEN8nlohmann16json_abi_v3_12_010basic_jsonIS1_NS_6vectorES7_bxydS5_NS9_14adl_serializerENSB_IhNS5_IhEEEEvEENS_4lessIvEENS5_INS_4pairIKS7_SF_EEEEEEZNSF_6createISM_JEEEPT_DpOT0_EUlSN_E_E6secondB7v160006Ev, symObjAddr: 0x4208, symBinAddr: 0x100004D7C, symSize: 0x28 }
  - { offsetInCU: 0x3B87D, offset: 0x3B87D, size: 0x8, addend: 0x0, symName: __ZZN8nlohmann16json_abi_v3_12_010basic_jsonINSt3__13mapENS2_6vectorENS2_12basic_stringIcNS2_11char_traitsIcEENS2_9allocatorIcEEEEbxydS8_NS0_14adl_serializerENS4_IhNS8_IhEEEEvE6createINS3_ISA_SE_NS2_4lessIvEENS8_INS2_4pairIKSA_SE_EEEEEEJEEEPT_DpOT0_ENKUlPSM_E_clESS_, symObjAddr: 0x4230, symBinAddr: 0x100004DA4, symSize: 0x34 }
  - { offsetInCU: 0x3B8B6, offset: 0x3B8B6, size: 0x8, addend: 0x0, symName: __ZNSt3__122__compressed_pair_elemIZN8nlohmann16json_abi_v3_12_010basic_jsonINS_3mapENS_6vectorENS_12basic_stringIcNS_11char_traitsIcEENS_9allocatorIcEEEEbxydS9_NS2_14adl_serializerENS5_IhNS9_IhEEEEvE6createINS4_ISB_SF_NS_4lessIvEENS9_INS_4pairIKSB_SF_EEEEEEJEEEPT_DpOT0_EUlPSN_E_Li1ELb0EE5__getB7v160006Ev, symObjAddr: 0x4264, symBinAddr: 0x100004DD8, symSize: 0x14 }
  - { offsetInCU: 0x3B8DC, offset: 0x3B8DC, size: 0x8, addend: 0x0, symName: __ZNSt3__116allocator_traitsINS_9allocatorINS_3mapINS_12basic_stringIcNS_11char_traitsIcEENS1_IcEEEEN8nlohmann16json_abi_v3_12_010basic_jsonIS2_NS_6vectorES7_bxydS1_NS9_14adl_serializerENSB_IhNS1_IhEEEEvEENS_4lessIvEENS1_INS_4pairIKS7_SF_EEEEEEEEE10deallocateB7v160006ERSN_PSM_m, symObjAddr: 0x4278, symBinAddr: 0x100004DEC, symSize: 0x34 }
  - { offsetInCU: 0x3B91E, offset: 0x3B91E, size: 0x8, addend: 0x0, symName: __ZNSt3__19allocatorINS_3mapINS_12basic_stringIcNS_11char_traitsIcEENS0_IcEEEEN8nlohmann16json_abi_v3_12_010basic_jsonIS1_NS_6vectorES6_bxydS0_NS8_14adl_serializerENSA_IhNS0_IhEEEEvEENS_4lessIvEENS0_INS_4pairIKS6_SE_EEEEEEE10deallocateB7v160006EPSL_m, symObjAddr: 0x42AC, symBinAddr: 0x100004E20, symSize: 0x44 }
  - { offsetInCU: 0x3B96E, offset: 0x3B96E, size: 0x8, addend: 0x0, symName: __ZNSt3__19allocatorINS_6vectorIN8nlohmann16json_abi_v3_12_010basic_jsonINS_3mapES1_NS_12basic_stringIcNS_11char_traitsIcEENS0_IcEEEEbxydS0_NS3_14adl_serializerENS1_IhNS0_IhEEEEvEENS0_ISE_EEEEEC1B7v160006Ev, symObjAddr: 0x42F0, symBinAddr: 0x100004E64, symSize: 0x2C }
  - { offsetInCU: 0x3B99E, offset: 0x3B99E, size: 0x8, addend: 0x0, symName: __ZNSt3__116allocator_traitsINS_9allocatorINS_6vectorIN8nlohmann16json_abi_v3_12_010basic_jsonINS_3mapES2_NS_12basic_stringIcNS_11char_traitsIcEENS1_IcEEEEbxydS1_NS4_14adl_serializerENS2_IhNS1_IhEEEEvEENS1_ISF_EEEEEEE8allocateB7v160006ERSI_m, symObjAddr: 0x431C, symBinAddr: 0x100004E90, symSize: 0x2C }
  - { offsetInCU: 0x3BA72, offset: 0x3BA72, size: 0x8, addend: 0x0, symName: __ZNSt3__110unique_ptrINS_6vectorIN8nlohmann16json_abi_v3_12_010basic_jsonINS_3mapES1_NS_12basic_stringIcNS_11char_traitsIcEENS_9allocatorIcEEEEbxydS9_NS3_14adl_serializerENS1_IhNS9_IhEEEEvEENS9_ISF_EEEEZNSF_6createISH_JEEEPT_DpOT0_EUlPSH_E_EC1B7v160006ILb1EvEESO_NS_16__dependent_typeINS_27__unique_ptr_deleter_sfinaeISP_EEXT_EE15__lval_ref_typeE, symObjAddr: 0x4348, symBinAddr: 0x100004EBC, symSize: 0x3C }
  - { offsetInCU: 0x3BAC5, offset: 0x3BAC5, size: 0x8, addend: 0x0, symName: __ZNSt3__116allocator_traitsINS_9allocatorINS_6vectorIN8nlohmann16json_abi_v3_12_010basic_jsonINS_3mapES2_NS_12basic_stringIcNS_11char_traitsIcEENS1_IcEEEEbxydS1_NS4_14adl_serializerENS2_IhNS1_IhEEEEvEENS1_ISF_EEEEEEE9constructB7v160006ISH_JEvvEEvRSI_PT_DpOT0_, symObjAddr: 0x4384, symBinAddr: 0x100004EF8, symSize: 0x28 }
  - { offsetInCU: 0x3BB04, offset: 0x3BB04, size: 0x8, addend: 0x0, symName: __ZNKSt3__110unique_ptrINS_6vectorIN8nlohmann16json_abi_v3_12_010basic_jsonINS_3mapES1_NS_12basic_stringIcNS_11char_traitsIcEENS_9allocatorIcEEEEbxydS9_NS3_14adl_serializerENS1_IhNS9_IhEEEEvEENS9_ISF_EEEEZNSF_6createISH_JEEEPT_DpOT0_EUlPSH_E_E3getB7v160006Ev, symObjAddr: 0x43AC, symBinAddr: 0x100004F20, symSize: 0x28 }
  - { offsetInCU: 0x3BB2A, offset: 0x3BB2A, size: 0x8, addend: 0x0, symName: __ZNSt3__110unique_ptrINS_6vectorIN8nlohmann16json_abi_v3_12_010basic_jsonINS_3mapES1_NS_12basic_stringIcNS_11char_traitsIcEENS_9allocatorIcEEEEbxydS9_NS3_14adl_serializerENS1_IhNS9_IhEEEEvEENS9_ISF_EEEEZNSF_6createISH_JEEEPT_DpOT0_EUlPSH_E_E7releaseB7v160006Ev, symObjAddr: 0x4404, symBinAddr: 0x100004F78, symSize: 0x44 }
  - { offsetInCU: 0x3BB5F, offset: 0x3BB5F, size: 0x8, addend: 0x0, symName: __ZNSt3__110unique_ptrINS_6vectorIN8nlohmann16json_abi_v3_12_010basic_jsonINS_3mapES1_NS_12basic_stringIcNS_11char_traitsIcEENS_9allocatorIcEEEEbxydS9_NS3_14adl_serializerENS1_IhNS9_IhEEEEvEENS9_ISF_EEEEZNSF_6createISH_JEEEPT_DpOT0_EUlPSH_E_ED1B7v160006Ev, symObjAddr: 0x4448, symBinAddr: 0x100004FBC, symSize: 0x2C }
  - { offsetInCU: 0x3BB89, offset: 0x3BB89, size: 0x8, addend: 0x0, symName: __ZNSt3__19allocatorINS_6vectorIN8nlohmann16json_abi_v3_12_010basic_jsonINS_3mapES1_NS_12basic_stringIcNS_11char_traitsIcEENS0_IcEEEEbxydS0_NS3_14adl_serializerENS1_IhNS0_IhEEEEvEENS0_ISE_EEEEEC2B7v160006Ev, symObjAddr: 0x4474, symBinAddr: 0x100004FE8, symSize: 0x2C }
  - { offsetInCU: 0x3BBB3, offset: 0x3BBB3, size: 0x8, addend: 0x0, symName: __ZNSt3__116__non_trivial_ifILb1ENS_9allocatorINS_6vectorIN8nlohmann16json_abi_v3_12_010basic_jsonINS_3mapES2_NS_12basic_stringIcNS_11char_traitsIcEENS1_IcEEEEbxydS1_NS4_14adl_serializerENS2_IhNS1_IhEEEEvEENS1_ISF_EEEEEEEC2B7v160006Ev, symObjAddr: 0x44A0, symBinAddr: 0x100005014, symSize: 0x14 }
  - { offsetInCU: 0x3BBDD, offset: 0x3BBDD, size: 0x8, addend: 0x0, symName: __ZNSt3__19allocatorINS_6vectorIN8nlohmann16json_abi_v3_12_010basic_jsonINS_3mapES1_NS_12basic_stringIcNS_11char_traitsIcEENS0_IcEEEEbxydS0_NS3_14adl_serializerENS1_IhNS0_IhEEEEvEENS0_ISE_EEEEE8allocateB7v160006Em, symObjAddr: 0x44B4, symBinAddr: 0x100005028, symSize: 0x5C }
  - { offsetInCU: 0x3BC1D, offset: 0x3BC1D, size: 0x8, addend: 0x0, symName: __ZNSt3__116allocator_traitsINS_9allocatorINS_6vectorIN8nlohmann16json_abi_v3_12_010basic_jsonINS_3mapES2_NS_12basic_stringIcNS_11char_traitsIcEENS1_IcEEEEbxydS1_NS4_14adl_serializerENS2_IhNS1_IhEEEEvEENS1_ISF_EEEEEEE8max_sizeB7v160006ISI_vvEEmRKSI_, symObjAddr: 0x4510, symBinAddr: 0x100005084, symSize: 0x28 }
  - { offsetInCU: 0x3BC48, offset: 0x3BC48, size: 0x8, addend: 0x0, symName: __ZNSt3__110unique_ptrINS_6vectorIN8nlohmann16json_abi_v3_12_010basic_jsonINS_3mapES1_NS_12basic_stringIcNS_11char_traitsIcEENS_9allocatorIcEEEEbxydS9_NS3_14adl_serializerENS1_IhNS9_IhEEEEvEENS9_ISF_EEEEZNSF_6createISH_JEEEPT_DpOT0_EUlPSH_E_EC2B7v160006ILb1EvEESO_NS_16__dependent_typeINS_27__unique_ptr_deleter_sfinaeISP_EEXT_EE15__lval_ref_typeE, symObjAddr: 0x4538, symBinAddr: 0x1000050AC, symSize: 0x48 }
  - { offsetInCU: 0x3BC9B, offset: 0x3BC9B, size: 0x8, addend: 0x0, symName: __ZNSt3__117__compressed_pairIPNS_6vectorIN8nlohmann16json_abi_v3_12_010basic_jsonINS_3mapES1_NS_12basic_stringIcNS_11char_traitsIcEENS_9allocatorIcEEEEbxydS9_NS3_14adl_serializerENS1_IhNS9_IhEEEEvEENS9_ISF_EEEEZNSF_6createISH_JEEEPT_DpOT0_EUlSI_E_EC1B7v160006IRSI_RKSP_EEOSK_OT0_, symObjAddr: 0x4580, symBinAddr: 0x1000050F4, symSize: 0x3C }
  - { offsetInCU: 0x3BCF5, offset: 0x3BCF5, size: 0x8, addend: 0x0, symName: __ZNSt3__117__compressed_pairIPNS_6vectorIN8nlohmann16json_abi_v3_12_010basic_jsonINS_3mapES1_NS_12basic_stringIcNS_11char_traitsIcEENS_9allocatorIcEEEEbxydS9_NS3_14adl_serializerENS1_IhNS9_IhEEEEvEENS9_ISF_EEEEZNSF_6createISH_JEEEPT_DpOT0_EUlSI_E_EC2B7v160006IRSI_RKSP_EEOSK_OT0_, symObjAddr: 0x45BC, symBinAddr: 0x100005130, symSize: 0x48 }
  - { offsetInCU: 0x3BD4F, offset: 0x3BD4F, size: 0x8, addend: 0x0, symName: __ZNSt3__122__compressed_pair_elemIPNS_6vectorIN8nlohmann16json_abi_v3_12_010basic_jsonINS_3mapES1_NS_12basic_stringIcNS_11char_traitsIcEENS_9allocatorIcEEEEbxydS9_NS3_14adl_serializerENS1_IhNS9_IhEEEEvEENS9_ISF_EEEELi0ELb0EEC2B7v160006IRSI_vEEOT_, symObjAddr: 0x4604, symBinAddr: 0x100005178, symSize: 0x24 }
  - { offsetInCU: 0x3BD92, offset: 0x3BD92, size: 0x8, addend: 0x0, symName: __ZNSt3__122__compressed_pair_elemIZN8nlohmann16json_abi_v3_12_010basic_jsonINS_3mapENS_6vectorENS_12basic_stringIcNS_11char_traitsIcEENS_9allocatorIcEEEEbxydS9_NS2_14adl_serializerENS5_IhNS9_IhEEEEvE6createINS5_ISF_NS9_ISF_EEEEJEEEPT_DpOT0_EUlPSI_E_Li1ELb0EEC2B7v160006IRKSP_vEEOSJ_, symObjAddr: 0x4628, symBinAddr: 0x10000519C, symSize: 0x24 }
  - { offsetInCU: 0x3BDD5, offset: 0x3BDD5, size: 0x8, addend: 0x0, symName: __ZNSt3__16vectorIN8nlohmann16json_abi_v3_12_010basic_jsonINS_3mapES0_NS_12basic_stringIcNS_11char_traitsIcEENS_9allocatorIcEEEEbxydS8_NS2_14adl_serializerENS0_IhNS8_IhEEEEvEENS8_ISE_EEEC1B7v160006Ev, symObjAddr: 0x4680, symBinAddr: 0x1000051F4, symSize: 0x2C }
  - { offsetInCU: 0x3BDFF, offset: 0x3BDFF, size: 0x8, addend: 0x0, symName: __ZNSt3__16vectorIN8nlohmann16json_abi_v3_12_010basic_jsonINS_3mapES0_NS_12basic_stringIcNS_11char_traitsIcEENS_9allocatorIcEEEEbxydS8_NS2_14adl_serializerENS0_IhNS8_IhEEEEvEENS8_ISE_EEEC2B7v160006Ev, symObjAddr: 0x46AC, symBinAddr: 0x100005220, symSize: 0x58 }
  - { offsetInCU: 0x3BE2F, offset: 0x3BE2F, size: 0x8, addend: 0x0, symName: __ZNSt3__117__compressed_pairIPN8nlohmann16json_abi_v3_12_010basic_jsonINS_3mapENS_6vectorENS_12basic_stringIcNS_11char_traitsIcEENS_9allocatorIcEEEEbxydS9_NS2_14adl_serializerENS5_IhNS9_IhEEEEvEENS9_ISF_EEEC1B7v160006IDnNS_18__default_init_tagEEEOT_OT0_, symObjAddr: 0x4704, symBinAddr: 0x100005278, symSize: 0x3C }
  - { offsetInCU: 0x3BE89, offset: 0x3BE89, size: 0x8, addend: 0x0, symName: __ZNSt3__117__compressed_pairIPN8nlohmann16json_abi_v3_12_010basic_jsonINS_3mapENS_6vectorENS_12basic_stringIcNS_11char_traitsIcEENS_9allocatorIcEEEEbxydS9_NS2_14adl_serializerENS5_IhNS9_IhEEEEvEENS9_ISF_EEEC2B7v160006IDnNS_18__default_init_tagEEEOT_OT0_, symObjAddr: 0x4750, symBinAddr: 0x1000052C4, symSize: 0x40 }
  - { offsetInCU: 0x3BEE3, offset: 0x3BEE3, size: 0x8, addend: 0x0, symName: __ZNSt3__122__compressed_pair_elemIPN8nlohmann16json_abi_v3_12_010basic_jsonINS_3mapENS_6vectorENS_12basic_stringIcNS_11char_traitsIcEENS_9allocatorIcEEEEbxydS9_NS2_14adl_serializerENS5_IhNS9_IhEEEEvEELi0ELb0EEC2B7v160006IDnvEEOT_, symObjAddr: 0x4790, symBinAddr: 0x100005304, symSize: 0x1C }
  - { offsetInCU: 0x3BF26, offset: 0x3BF26, size: 0x8, addend: 0x0, symName: __ZNSt3__122__compressed_pair_elemINS_9allocatorIN8nlohmann16json_abi_v3_12_010basic_jsonINS_3mapENS_6vectorENS_12basic_stringIcNS_11char_traitsIcEENS1_IcEEEEbxydS1_NS3_14adl_serializerENS6_IhNS1_IhEEEEvEEEELi1ELb1EEC2B7v160006ENS_18__default_init_tagE, symObjAddr: 0x47AC, symBinAddr: 0x100005320, symSize: 0x2C }
  - { offsetInCU: 0x3BF5B, offset: 0x3BF5B, size: 0x8, addend: 0x0, symName: __ZNSt3__19allocatorIN8nlohmann16json_abi_v3_12_010basic_jsonINS_3mapENS_6vectorENS_12basic_stringIcNS_11char_traitsIcEENS0_IcEEEEbxydS0_NS2_14adl_serializerENS5_IhNS0_IhEEEEvEEEC2B7v160006Ev, symObjAddr: 0x47D8, symBinAddr: 0x10000534C, symSize: 0x2C }
  - { offsetInCU: 0x3BF85, offset: 0x3BF85, size: 0x8, addend: 0x0, symName: __ZNSt3__116__non_trivial_ifILb1ENS_9allocatorIN8nlohmann16json_abi_v3_12_010basic_jsonINS_3mapENS_6vectorENS_12basic_stringIcNS_11char_traitsIcEENS1_IcEEEEbxydS1_NS3_14adl_serializerENS6_IhNS1_IhEEEEvEEEEEC2B7v160006Ev, symObjAddr: 0x4804, symBinAddr: 0x100005378, symSize: 0x14 }
  - { offsetInCU: 0x3BFAF, offset: 0x3BFAF, size: 0x8, addend: 0x0, symName: __ZNKSt3__117__compressed_pairIPNS_6vectorIN8nlohmann16json_abi_v3_12_010basic_jsonINS_3mapES1_NS_12basic_stringIcNS_11char_traitsIcEENS_9allocatorIcEEEEbxydS9_NS3_14adl_serializerENS1_IhNS9_IhEEEEvEENS9_ISF_EEEEZNSF_6createISH_JEEEPT_DpOT0_EUlSI_E_E5firstB7v160006Ev, symObjAddr: 0x4818, symBinAddr: 0x10000538C, symSize: 0x24 }
  - { offsetInCU: 0x3BFD5, offset: 0x3BFD5, size: 0x8, addend: 0x0, symName: __ZNKSt3__122__compressed_pair_elemIPNS_6vectorIN8nlohmann16json_abi_v3_12_010basic_jsonINS_3mapES1_NS_12basic_stringIcNS_11char_traitsIcEENS_9allocatorIcEEEEbxydS9_NS3_14adl_serializerENS1_IhNS9_IhEEEEvEENS9_ISF_EEEELi0ELb0EE5__getB7v160006Ev, symObjAddr: 0x483C, symBinAddr: 0x1000053B0, symSize: 0x14 }
  - { offsetInCU: 0x3BFFB, offset: 0x3BFFB, size: 0x8, addend: 0x0, symName: __ZNKSt3__110unique_ptrINS_6vectorIN8nlohmann16json_abi_v3_12_010basic_jsonINS_3mapES1_NS_12basic_stringIcNS_11char_traitsIcEENS_9allocatorIcEEEEbxydS9_NS3_14adl_serializerENS1_IhNS9_IhEEEEvEENS9_ISF_EEEEZNSF_6createISH_JEEEPT_DpOT0_EUlPSH_E_EcvbB7v160006Ev, symObjAddr: 0x4850, symBinAddr: 0x1000053C4, symSize: 0x34 }
  - { offsetInCU: 0x3C021, offset: 0x3C021, size: 0x8, addend: 0x0, symName: __ZNSt3__117__compressed_pairIPNS_6vectorIN8nlohmann16json_abi_v3_12_010basic_jsonINS_3mapES1_NS_12basic_stringIcNS_11char_traitsIcEENS_9allocatorIcEEEEbxydS9_NS3_14adl_serializerENS1_IhNS9_IhEEEEvEENS9_ISF_EEEEZNSF_6createISH_JEEEPT_DpOT0_EUlSI_E_E5firstB7v160006Ev, symObjAddr: 0x4884, symBinAddr: 0x1000053F8, symSize: 0x24 }
  - { offsetInCU: 0x3C047, offset: 0x3C047, size: 0x8, addend: 0x0, symName: __ZNSt3__122__compressed_pair_elemIPNS_6vectorIN8nlohmann16json_abi_v3_12_010basic_jsonINS_3mapES1_NS_12basic_stringIcNS_11char_traitsIcEENS_9allocatorIcEEEEbxydS9_NS3_14adl_serializerENS1_IhNS9_IhEEEEvEENS9_ISF_EEEELi0ELb0EE5__getB7v160006Ev, symObjAddr: 0x48A8, symBinAddr: 0x10000541C, symSize: 0x14 }
  - { offsetInCU: 0x3C06D, offset: 0x3C06D, size: 0x8, addend: 0x0, symName: __ZNSt3__110unique_ptrINS_6vectorIN8nlohmann16json_abi_v3_12_010basic_jsonINS_3mapES1_NS_12basic_stringIcNS_11char_traitsIcEENS_9allocatorIcEEEEbxydS9_NS3_14adl_serializerENS1_IhNS9_IhEEEEvEENS9_ISF_EEEEZNSF_6createISH_JEEEPT_DpOT0_EUlPSH_E_ED2B7v160006Ev, symObjAddr: 0x48BC, symBinAddr: 0x100005430, symSize: 0x30 }
  - { offsetInCU: 0x3C097, offset: 0x3C097, size: 0x8, addend: 0x0, symName: __ZNSt3__110unique_ptrINS_6vectorIN8nlohmann16json_abi_v3_12_010basic_jsonINS_3mapES1_NS_12basic_stringIcNS_11char_traitsIcEENS_9allocatorIcEEEEbxydS9_NS3_14adl_serializerENS1_IhNS9_IhEEEEvEENS9_ISF_EEEEZNSF_6createISH_JEEEPT_DpOT0_EUlPSH_E_E5resetB7v160006ESO_, symObjAddr: 0x48EC, symBinAddr: 0x100005460, symSize: 0x80 }
  - { offsetInCU: 0x3C0DB, offset: 0x3C0DB, size: 0x8, addend: 0x0, symName: __ZNSt3__117__compressed_pairIPNS_6vectorIN8nlohmann16json_abi_v3_12_010basic_jsonINS_3mapES1_NS_12basic_stringIcNS_11char_traitsIcEENS_9allocatorIcEEEEbxydS9_NS3_14adl_serializerENS1_IhNS9_IhEEEEvEENS9_ISF_EEEEZNSF_6createISH_JEEEPT_DpOT0_EUlSI_E_E6secondB7v160006Ev, symObjAddr: 0x496C, symBinAddr: 0x1000054E0, symSize: 0x28 }
  - { offsetInCU: 0x3C107, offset: 0x3C107, size: 0x8, addend: 0x0, symName: __ZZN8nlohmann16json_abi_v3_12_010basic_jsonINSt3__13mapENS2_6vectorENS2_12basic_stringIcNS2_11char_traitsIcEENS2_9allocatorIcEEEEbxydS8_NS0_14adl_serializerENS4_IhNS8_IhEEEEvE6createINS4_ISE_NS8_ISE_EEEEJEEEPT_DpOT0_ENKUlPSH_E_clESN_, symObjAddr: 0x4994, symBinAddr: 0x100005508, symSize: 0x34 }
  - { offsetInCU: 0x3C140, offset: 0x3C140, size: 0x8, addend: 0x0, symName: __ZNSt3__122__compressed_pair_elemIZN8nlohmann16json_abi_v3_12_010basic_jsonINS_3mapENS_6vectorENS_12basic_stringIcNS_11char_traitsIcEENS_9allocatorIcEEEEbxydS9_NS2_14adl_serializerENS5_IhNS9_IhEEEEvE6createINS5_ISF_NS9_ISF_EEEEJEEEPT_DpOT0_EUlPSI_E_Li1ELb0EE5__getB7v160006Ev, symObjAddr: 0x49C8, symBinAddr: 0x10000553C, symSize: 0x14 }
  - { offsetInCU: 0x3C166, offset: 0x3C166, size: 0x8, addend: 0x0, symName: __ZNSt3__116allocator_traitsINS_9allocatorINS_6vectorIN8nlohmann16json_abi_v3_12_010basic_jsonINS_3mapES2_NS_12basic_stringIcNS_11char_traitsIcEENS1_IcEEEEbxydS1_NS4_14adl_serializerENS2_IhNS1_IhEEEEvEENS1_ISF_EEEEEEE10deallocateB7v160006ERSI_PSH_m, symObjAddr: 0x49DC, symBinAddr: 0x100005550, symSize: 0x34 }
  - { offsetInCU: 0x3C1A8, offset: 0x3C1A8, size: 0x8, addend: 0x0, symName: __ZNSt3__19allocatorINS_6vectorIN8nlohmann16json_abi_v3_12_010basic_jsonINS_3mapES1_NS_12basic_stringIcNS_11char_traitsIcEENS0_IcEEEEbxydS0_NS3_14adl_serializerENS1_IhNS0_IhEEEEvEENS0_ISE_EEEEE10deallocateB7v160006EPSG_m, symObjAddr: 0x4A10, symBinAddr: 0x100005584, symSize: 0x44 }
  - { offsetInCU: 0x3C1EC, offset: 0x3C1EC, size: 0x8, addend: 0x0, symName: __ZNSt3__19allocatorINS_12basic_stringIcNS_11char_traitsIcEENS0_IcEEEEEC1B7v160006Ev, symObjAddr: 0x4A54, symBinAddr: 0x1000055C8, symSize: 0x2C }
  - { offsetInCU: 0x3C216, offset: 0x3C216, size: 0x8, addend: 0x0, symName: __ZNSt3__116allocator_traitsINS_9allocatorINS_12basic_stringIcNS_11char_traitsIcEENS1_IcEEEEEEE8allocateB7v160006ERS7_m, symObjAddr: 0x4A80, symBinAddr: 0x1000055F4, symSize: 0x2C }
  - { offsetInCU: 0x3C2BC, offset: 0x3C2BC, size: 0x8, addend: 0x0, symName: __ZNSt3__110unique_ptrINS_12basic_stringIcNS_11char_traitsIcEENS_9allocatorIcEEEEZN8nlohmann16json_abi_v3_12_010basic_jsonINS_3mapENS_6vectorES6_bxydS4_NS8_14adl_serializerENSB_IhNS4_IhEEEEvE6createIS6_JRA1_KcEEEPT_DpOT0_EUlPS6_E_EC1B7v160006ILb1EvEESP_NS_16__dependent_typeINS_27__unique_ptr_deleter_sfinaeISQ_EEXT_EE15__lval_ref_typeE, symObjAddr: 0x4AAC, symBinAddr: 0x100005620, symSize: 0x3C }
  - { offsetInCU: 0x3C30F, offset: 0x3C30F, size: 0x8, addend: 0x0, symName: __ZNSt3__116allocator_traitsINS_9allocatorINS_12basic_stringIcNS_11char_traitsIcEENS1_IcEEEEEEE9constructB7v160006IS6_JRA1_KcEvvEEvRS7_PT_DpOT0_, symObjAddr: 0x4AE8, symBinAddr: 0x10000565C, symSize: 0x30 }
  - { offsetInCU: 0x3C363, offset: 0x3C363, size: 0x8, addend: 0x0, symName: __ZNKSt3__110unique_ptrINS_12basic_stringIcNS_11char_traitsIcEENS_9allocatorIcEEEEZN8nlohmann16json_abi_v3_12_010basic_jsonINS_3mapENS_6vectorES6_bxydS4_NS8_14adl_serializerENSB_IhNS4_IhEEEEvE6createIS6_JRA1_KcEEEPT_DpOT0_EUlPS6_E_E3getB7v160006Ev, symObjAddr: 0x4B18, symBinAddr: 0x10000568C, symSize: 0x28 }
  - { offsetInCU: 0x3C389, offset: 0x3C389, size: 0x8, addend: 0x0, symName: __ZNSt3__110unique_ptrINS_12basic_stringIcNS_11char_traitsIcEENS_9allocatorIcEEEEZN8nlohmann16json_abi_v3_12_010basic_jsonINS_3mapENS_6vectorES6_bxydS4_NS8_14adl_serializerENSB_IhNS4_IhEEEEvE6createIS6_JRA1_KcEEEPT_DpOT0_EUlPS6_E_E7releaseB7v160006Ev, symObjAddr: 0x4B70, symBinAddr: 0x1000056E4, symSize: 0x44 }
  - { offsetInCU: 0x3C3BE, offset: 0x3C3BE, size: 0x8, addend: 0x0, symName: __ZNSt3__110unique_ptrINS_12basic_stringIcNS_11char_traitsIcEENS_9allocatorIcEEEEZN8nlohmann16json_abi_v3_12_010basic_jsonINS_3mapENS_6vectorES6_bxydS4_NS8_14adl_serializerENSB_IhNS4_IhEEEEvE6createIS6_JRA1_KcEEEPT_DpOT0_EUlPS6_E_ED1B7v160006Ev, symObjAddr: 0x4BB4, symBinAddr: 0x100005728, symSize: 0x2C }
  - { offsetInCU: 0x3C3E8, offset: 0x3C3E8, size: 0x8, addend: 0x0, symName: __ZNSt3__19allocatorINS_12basic_stringIcNS_11char_traitsIcEENS0_IcEEEEEC2B7v160006Ev, symObjAddr: 0x4BE0, symBinAddr: 0x100005754, symSize: 0x2C }
  - { offsetInCU: 0x3C412, offset: 0x3C412, size: 0x8, addend: 0x0, symName: __ZNSt3__116__non_trivial_ifILb1ENS_9allocatorINS_12basic_stringIcNS_11char_traitsIcEENS1_IcEEEEEEEC2B7v160006Ev, symObjAddr: 0x4C0C, symBinAddr: 0x100005780, symSize: 0x14 }
  - { offsetInCU: 0x3C43C, offset: 0x3C43C, size: 0x8, addend: 0x0, symName: __ZNSt3__19allocatorINS_12basic_stringIcNS_11char_traitsIcEENS0_IcEEEEE8allocateB7v160006Em, symObjAddr: 0x4C20, symBinAddr: 0x100005794, symSize: 0x5C }
  - { offsetInCU: 0x3C47C, offset: 0x3C47C, size: 0x8, addend: 0x0, symName: __ZNSt3__116allocator_traitsINS_9allocatorINS_12basic_stringIcNS_11char_traitsIcEENS1_IcEEEEEEE8max_sizeB7v160006IS7_vvEEmRKS7_, symObjAddr: 0x4C7C, symBinAddr: 0x1000057F0, symSize: 0x28 }
  - { offsetInCU: 0x3C4A7, offset: 0x3C4A7, size: 0x8, addend: 0x0, symName: __ZNSt3__110unique_ptrINS_12basic_stringIcNS_11char_traitsIcEENS_9allocatorIcEEEEZN8nlohmann16json_abi_v3_12_010basic_jsonINS_3mapENS_6vectorES6_bxydS4_NS8_14adl_serializerENSB_IhNS4_IhEEEEvE6createIS6_JRA1_KcEEEPT_DpOT0_EUlPS6_E_EC2B7v160006ILb1EvEESP_NS_16__dependent_typeINS_27__unique_ptr_deleter_sfinaeISQ_EEXT_EE15__lval_ref_typeE, symObjAddr: 0x4CA4, symBinAddr: 0x100005818, symSize: 0x48 }
  - { offsetInCU: 0x3C500, offset: 0x3C500, size: 0x8, addend: 0x0, symName: __ZNSt3__117__compressed_pairIPNS_12basic_stringIcNS_11char_traitsIcEENS_9allocatorIcEEEEZN8nlohmann16json_abi_v3_12_010basic_jsonINS_3mapENS_6vectorES6_bxydS4_NS9_14adl_serializerENSC_IhNS4_IhEEEEvE6createIS6_JRA1_KcEEEPT_DpOT0_EUlS7_E_EC1B7v160006IRS7_RKSQ_EEOSL_OT0_, symObjAddr: 0x4CEC, symBinAddr: 0x100005860, symSize: 0x3C }
  - { offsetInCU: 0x3C55A, offset: 0x3C55A, size: 0x8, addend: 0x0, symName: __ZNSt3__117__compressed_pairIPNS_12basic_stringIcNS_11char_traitsIcEENS_9allocatorIcEEEEZN8nlohmann16json_abi_v3_12_010basic_jsonINS_3mapENS_6vectorES6_bxydS4_NS9_14adl_serializerENSC_IhNS4_IhEEEEvE6createIS6_JRA1_KcEEEPT_DpOT0_EUlS7_E_EC2B7v160006IRS7_RKSQ_EEOSL_OT0_, symObjAddr: 0x4D28, symBinAddr: 0x10000589C, symSize: 0x48 }
  - { offsetInCU: 0x3C5B4, offset: 0x3C5B4, size: 0x8, addend: 0x0, symName: __ZNSt3__122__compressed_pair_elemIPNS_12basic_stringIcNS_11char_traitsIcEENS_9allocatorIcEEEELi0ELb0EEC2B7v160006IRS7_vEEOT_, symObjAddr: 0x4D70, symBinAddr: 0x1000058E4, symSize: 0x24 }
  - { offsetInCU: 0x3C5F7, offset: 0x3C5F7, size: 0x8, addend: 0x0, symName: __ZNSt3__122__compressed_pair_elemIZN8nlohmann16json_abi_v3_12_010basic_jsonINS_3mapENS_6vectorENS_12basic_stringIcNS_11char_traitsIcEENS_9allocatorIcEEEEbxydS9_NS2_14adl_serializerENS5_IhNS9_IhEEEEvE6createISB_JRA1_KcEEEPT_DpOT0_EUlPSB_E_Li1ELb0EEC2B7v160006IRKSQ_vEEOSK_, symObjAddr: 0x4D94, symBinAddr: 0x100005908, symSize: 0x24 }
  - { offsetInCU: 0x3C63A, offset: 0x3C63A, size: 0x8, addend: 0x0, symName: __ZNKSt3__117__compressed_pairIPNS_12basic_stringIcNS_11char_traitsIcEENS_9allocatorIcEEEEZN8nlohmann16json_abi_v3_12_010basic_jsonINS_3mapENS_6vectorES6_bxydS4_NS9_14adl_serializerENSC_IhNS4_IhEEEEvE6createIS6_JRA1_KcEEEPT_DpOT0_EUlS7_E_E5firstB7v160006Ev, symObjAddr: 0x4DF4, symBinAddr: 0x100005968, symSize: 0x24 }
  - { offsetInCU: 0x3C660, offset: 0x3C660, size: 0x8, addend: 0x0, symName: __ZNKSt3__122__compressed_pair_elemIPNS_12basic_stringIcNS_11char_traitsIcEENS_9allocatorIcEEEELi0ELb0EE5__getB7v160006Ev, symObjAddr: 0x4E18, symBinAddr: 0x10000598C, symSize: 0x14 }
  - { offsetInCU: 0x3C686, offset: 0x3C686, size: 0x8, addend: 0x0, symName: __ZNKSt3__110unique_ptrINS_12basic_stringIcNS_11char_traitsIcEENS_9allocatorIcEEEEZN8nlohmann16json_abi_v3_12_010basic_jsonINS_3mapENS_6vectorES6_bxydS4_NS8_14adl_serializerENSB_IhNS4_IhEEEEvE6createIS6_JRA1_KcEEEPT_DpOT0_EUlPS6_E_EcvbB7v160006Ev, symObjAddr: 0x4E2C, symBinAddr: 0x1000059A0, symSize: 0x34 }
  - { offsetInCU: 0x3C6AC, offset: 0x3C6AC, size: 0x8, addend: 0x0, symName: __ZNSt3__117__compressed_pairIPNS_12basic_stringIcNS_11char_traitsIcEENS_9allocatorIcEEEEZN8nlohmann16json_abi_v3_12_010basic_jsonINS_3mapENS_6vectorES6_bxydS4_NS9_14adl_serializerENSC_IhNS4_IhEEEEvE6createIS6_JRA1_KcEEEPT_DpOT0_EUlS7_E_E5firstB7v160006Ev, symObjAddr: 0x4E60, symBinAddr: 0x1000059D4, symSize: 0x24 }
  - { offsetInCU: 0x3C6D2, offset: 0x3C6D2, size: 0x8, addend: 0x0, symName: __ZNSt3__122__compressed_pair_elemIPNS_12basic_stringIcNS_11char_traitsIcEENS_9allocatorIcEEEELi0ELb0EE5__getB7v160006Ev, symObjAddr: 0x4E84, symBinAddr: 0x1000059F8, symSize: 0x14 }
  - { offsetInCU: 0x3C6F8, offset: 0x3C6F8, size: 0x8, addend: 0x0, symName: __ZNSt3__110unique_ptrINS_12basic_stringIcNS_11char_traitsIcEENS_9allocatorIcEEEEZN8nlohmann16json_abi_v3_12_010basic_jsonINS_3mapENS_6vectorES6_bxydS4_NS8_14adl_serializerENSB_IhNS4_IhEEEEvE6createIS6_JRA1_KcEEEPT_DpOT0_EUlPS6_E_ED2B7v160006Ev, symObjAddr: 0x4E98, symBinAddr: 0x100005A0C, symSize: 0x30 }
  - { offsetInCU: 0x3C722, offset: 0x3C722, size: 0x8, addend: 0x0, symName: __ZNSt3__110unique_ptrINS_12basic_stringIcNS_11char_traitsIcEENS_9allocatorIcEEEEZN8nlohmann16json_abi_v3_12_010basic_jsonINS_3mapENS_6vectorES6_bxydS4_NS8_14adl_serializerENSB_IhNS4_IhEEEEvE6createIS6_JRA1_KcEEEPT_DpOT0_EUlPS6_E_E5resetB7v160006ESP_, symObjAddr: 0x4EC8, symBinAddr: 0x100005A3C, symSize: 0x80 }
  - { offsetInCU: 0x3C766, offset: 0x3C766, size: 0x8, addend: 0x0, symName: __ZNSt3__117__compressed_pairIPNS_12basic_stringIcNS_11char_traitsIcEENS_9allocatorIcEEEEZN8nlohmann16json_abi_v3_12_010basic_jsonINS_3mapENS_6vectorES6_bxydS4_NS9_14adl_serializerENSC_IhNS4_IhEEEEvE6createIS6_JRA1_KcEEEPT_DpOT0_EUlS7_E_E6secondB7v160006Ev, symObjAddr: 0x4F48, symBinAddr: 0x100005ABC, symSize: 0x28 }
  - { offsetInCU: 0x3C792, offset: 0x3C792, size: 0x8, addend: 0x0, symName: __ZZN8nlohmann16json_abi_v3_12_010basic_jsonINSt3__13mapENS2_6vectorENS2_12basic_stringIcNS2_11char_traitsIcEENS2_9allocatorIcEEEEbxydS8_NS0_14adl_serializerENS4_IhNS8_IhEEEEvE6createISA_JRA1_KcEEEPT_DpOT0_ENKUlPSA_E_clESO_, symObjAddr: 0x4F70, symBinAddr: 0x100005AE4, symSize: 0x34 }
  - { offsetInCU: 0x3C7CB, offset: 0x3C7CB, size: 0x8, addend: 0x0, symName: __ZNSt3__122__compressed_pair_elemIZN8nlohmann16json_abi_v3_12_010basic_jsonINS_3mapENS_6vectorENS_12basic_stringIcNS_11char_traitsIcEENS_9allocatorIcEEEEbxydS9_NS2_14adl_serializerENS5_IhNS9_IhEEEEvE6createISB_JRA1_KcEEEPT_DpOT0_EUlPSB_E_Li1ELb0EE5__getB7v160006Ev, symObjAddr: 0x4FA4, symBinAddr: 0x100005B18, symSize: 0x14 }
  - { offsetInCU: 0x3C7F1, offset: 0x3C7F1, size: 0x8, addend: 0x0, symName: __ZNSt3__116allocator_traitsINS_9allocatorINS_12basic_stringIcNS_11char_traitsIcEENS1_IcEEEEEEE10deallocateB7v160006ERS7_PS6_m, symObjAddr: 0x4FB8, symBinAddr: 0x100005B2C, symSize: 0x34 }
  - { offsetInCU: 0x3C833, offset: 0x3C833, size: 0x8, addend: 0x0, symName: __ZNSt3__19allocatorINS_12basic_stringIcNS_11char_traitsIcEENS0_IcEEEEE10deallocateB7v160006EPS5_m, symObjAddr: 0x4FEC, symBinAddr: 0x100005B60, symSize: 0x44 }
  - { offsetInCU: 0x3C883, offset: 0x3C883, size: 0x8, addend: 0x0, symName: __ZNSt3__19allocatorIN8nlohmann16json_abi_v3_12_027byte_container_with_subtypeINS_6vectorIhNS0_IhEEEEEEEC1B7v160006Ev, symObjAddr: 0x5030, symBinAddr: 0x100005BA4, symSize: 0x2C }
  - { offsetInCU: 0x3C8B3, offset: 0x3C8B3, size: 0x8, addend: 0x0, symName: __ZNSt3__116allocator_traitsINS_9allocatorIN8nlohmann16json_abi_v3_12_027byte_container_with_subtypeINS_6vectorIhNS1_IhEEEEEEEEE8allocateB7v160006ERS9_m, symObjAddr: 0x505C, symBinAddr: 0x100005BD0, symSize: 0x2C }
  - { offsetInCU: 0x3C98D, offset: 0x3C98D, size: 0x8, addend: 0x0, symName: __ZNSt3__110unique_ptrIN8nlohmann16json_abi_v3_12_027byte_container_with_subtypeINS_6vectorIhNS_9allocatorIhEEEEEEZNS2_10basic_jsonINS_3mapES4_NS_12basic_stringIcNS_11char_traitsIcEENS5_IcEEEEbxydS5_NS2_14adl_serializerES7_vE6createIS8_JEEEPT_DpOT0_EUlPS8_E_EC1B7v160006ILb1EvEESO_NS_16__dependent_typeINS_27__unique_ptr_deleter_sfinaeISP_EEXT_EE15__lval_ref_typeE, symObjAddr: 0x5088, symBinAddr: 0x100005BFC, symSize: 0x3C }
  - { offsetInCU: 0x3C9E0, offset: 0x3C9E0, size: 0x8, addend: 0x0, symName: __ZNSt3__116allocator_traitsINS_9allocatorIN8nlohmann16json_abi_v3_12_027byte_container_with_subtypeINS_6vectorIhNS1_IhEEEEEEEEE9constructB7v160006IS8_JEvvEEvRS9_PT_DpOT0_, symObjAddr: 0x50C4, symBinAddr: 0x100005C38, symSize: 0x28 }
  - { offsetInCU: 0x3CA1F, offset: 0x3CA1F, size: 0x8, addend: 0x0, symName: __ZNKSt3__110unique_ptrIN8nlohmann16json_abi_v3_12_027byte_container_with_subtypeINS_6vectorIhNS_9allocatorIhEEEEEEZNS2_10basic_jsonINS_3mapES4_NS_12basic_stringIcNS_11char_traitsIcEENS5_IcEEEEbxydS5_NS2_14adl_serializerES7_vE6createIS8_JEEEPT_DpOT0_EUlPS8_E_E3getB7v160006Ev, symObjAddr: 0x50EC, symBinAddr: 0x100005C60, symSize: 0x28 }
  - { offsetInCU: 0x3CA45, offset: 0x3CA45, size: 0x8, addend: 0x0, symName: __ZNSt3__110unique_ptrIN8nlohmann16json_abi_v3_12_027byte_container_with_subtypeINS_6vectorIhNS_9allocatorIhEEEEEEZNS2_10basic_jsonINS_3mapES4_NS_12basic_stringIcNS_11char_traitsIcEENS5_IcEEEEbxydS5_NS2_14adl_serializerES7_vE6createIS8_JEEEPT_DpOT0_EUlPS8_E_E7releaseB7v160006Ev, symObjAddr: 0x5144, symBinAddr: 0x100005CB8, symSize: 0x44 }
  - { offsetInCU: 0x3CA7A, offset: 0x3CA7A, size: 0x8, addend: 0x0, symName: __ZNSt3__110unique_ptrIN8nlohmann16json_abi_v3_12_027byte_container_with_subtypeINS_6vectorIhNS_9allocatorIhEEEEEEZNS2_10basic_jsonINS_3mapES4_NS_12basic_stringIcNS_11char_traitsIcEENS5_IcEEEEbxydS5_NS2_14adl_serializerES7_vE6createIS8_JEEEPT_DpOT0_EUlPS8_E_ED1B7v160006Ev, symObjAddr: 0x5188, symBinAddr: 0x100005CFC, symSize: 0x2C }
  - { offsetInCU: 0x3CAA4, offset: 0x3CAA4, size: 0x8, addend: 0x0, symName: __ZNSt3__19allocatorIN8nlohmann16json_abi_v3_12_027byte_container_with_subtypeINS_6vectorIhNS0_IhEEEEEEEC2B7v160006Ev, symObjAddr: 0x51B4, symBinAddr: 0x100005D28, symSize: 0x2C }
  - { offsetInCU: 0x3CACE, offset: 0x3CACE, size: 0x8, addend: 0x0, symName: __ZNSt3__116__non_trivial_ifILb1ENS_9allocatorIN8nlohmann16json_abi_v3_12_027byte_container_with_subtypeINS_6vectorIhNS1_IhEEEEEEEEEC2B7v160006Ev, symObjAddr: 0x51E0, symBinAddr: 0x100005D54, symSize: 0x14 }
  - { offsetInCU: 0x3CAF8, offset: 0x3CAF8, size: 0x8, addend: 0x0, symName: __ZNSt3__19allocatorIN8nlohmann16json_abi_v3_12_027byte_container_with_subtypeINS_6vectorIhNS0_IhEEEEEEE8allocateB7v160006Em, symObjAddr: 0x51F4, symBinAddr: 0x100005D68, symSize: 0x5C }
  - { offsetInCU: 0x3CB38, offset: 0x3CB38, size: 0x8, addend: 0x0, symName: __ZNSt3__116allocator_traitsINS_9allocatorIN8nlohmann16json_abi_v3_12_027byte_container_with_subtypeINS_6vectorIhNS1_IhEEEEEEEEE8max_sizeB7v160006IS9_vvEEmRKS9_, symObjAddr: 0x5250, symBinAddr: 0x100005DC4, symSize: 0x28 }
  - { offsetInCU: 0x3CB63, offset: 0x3CB63, size: 0x8, addend: 0x0, symName: __ZNSt3__110unique_ptrIN8nlohmann16json_abi_v3_12_027byte_container_with_subtypeINS_6vectorIhNS_9allocatorIhEEEEEEZNS2_10basic_jsonINS_3mapES4_NS_12basic_stringIcNS_11char_traitsIcEENS5_IcEEEEbxydS5_NS2_14adl_serializerES7_vE6createIS8_JEEEPT_DpOT0_EUlPS8_E_EC2B7v160006ILb1EvEESO_NS_16__dependent_typeINS_27__unique_ptr_deleter_sfinaeISP_EEXT_EE15__lval_ref_typeE, symObjAddr: 0x5278, symBinAddr: 0x100005DEC, symSize: 0x48 }
  - { offsetInCU: 0x3CBB6, offset: 0x3CBB6, size: 0x8, addend: 0x0, symName: __ZNSt3__117__compressed_pairIPN8nlohmann16json_abi_v3_12_027byte_container_with_subtypeINS_6vectorIhNS_9allocatorIhEEEEEEZNS2_10basic_jsonINS_3mapES4_NS_12basic_stringIcNS_11char_traitsIcEENS5_IcEEEEbxydS5_NS2_14adl_serializerES7_vE6createIS8_JEEEPT_DpOT0_EUlS9_E_EC1B7v160006IRS9_RKSP_EEOSK_OT0_, symObjAddr: 0x52C0, symBinAddr: 0x100005E34, symSize: 0x3C }
  - { offsetInCU: 0x3CC10, offset: 0x3CC10, size: 0x8, addend: 0x0, symName: __ZNSt3__117__compressed_pairIPN8nlohmann16json_abi_v3_12_027byte_container_with_subtypeINS_6vectorIhNS_9allocatorIhEEEEEEZNS2_10basic_jsonINS_3mapES4_NS_12basic_stringIcNS_11char_traitsIcEENS5_IcEEEEbxydS5_NS2_14adl_serializerES7_vE6createIS8_JEEEPT_DpOT0_EUlS9_E_EC2B7v160006IRS9_RKSP_EEOSK_OT0_, symObjAddr: 0x52FC, symBinAddr: 0x100005E70, symSize: 0x48 }
  - { offsetInCU: 0x3CC6A, offset: 0x3CC6A, size: 0x8, addend: 0x0, symName: __ZNSt3__122__compressed_pair_elemIPN8nlohmann16json_abi_v3_12_027byte_container_with_subtypeINS_6vectorIhNS_9allocatorIhEEEEEELi0ELb0EEC2B7v160006IRS9_vEEOT_, symObjAddr: 0x5344, symBinAddr: 0x100005EB8, symSize: 0x24 }
  - { offsetInCU: 0x3CCAD, offset: 0x3CCAD, size: 0x8, addend: 0x0, symName: __ZNSt3__122__compressed_pair_elemIZN8nlohmann16json_abi_v3_12_010basic_jsonINS_3mapENS_6vectorENS_12basic_stringIcNS_11char_traitsIcEENS_9allocatorIcEEEEbxydS9_NS2_14adl_serializerENS5_IhNS9_IhEEEEvE6createINS2_27byte_container_with_subtypeISE_EEJEEEPT_DpOT0_EUlPSI_E_Li1ELb0EEC2B7v160006IRKSP_vEEOSJ_, symObjAddr: 0x5368, symBinAddr: 0x100005EDC, symSize: 0x24 }
  - { offsetInCU: 0x3CCF0, offset: 0x3CCF0, size: 0x8, addend: 0x0, symName: __ZN8nlohmann16json_abi_v3_12_027byte_container_with_subtypeINSt3__16vectorIhNS2_9allocatorIhEEEEEC1Ev, symObjAddr: 0x53C0, symBinAddr: 0x100005F34, symSize: 0x2C }
  - { offsetInCU: 0x3CD1A, offset: 0x3CD1A, size: 0x8, addend: 0x0, symName: __ZN8nlohmann16json_abi_v3_12_027byte_container_with_subtypeINSt3__16vectorIhNS2_9allocatorIhEEEEEC2Ev, symObjAddr: 0x53EC, symBinAddr: 0x100005F60, symSize: 0x34 }
  - { offsetInCU: 0x3CD44, offset: 0x3CD44, size: 0x8, addend: 0x0, symName: __ZNSt3__16vectorIhNS_9allocatorIhEEEC2B7v160006Ev, symObjAddr: 0x5420, symBinAddr: 0x100005F94, symSize: 0x58 }
  - { offsetInCU: 0x3CD6E, offset: 0x3CD6E, size: 0x8, addend: 0x0, symName: __ZNSt3__117__compressed_pairIPhNS_9allocatorIhEEEC1B7v160006IDnNS_18__default_init_tagEEEOT_OT0_, symObjAddr: 0x5478, symBinAddr: 0x100005FEC, symSize: 0x3C }
  - { offsetInCU: 0x3CDC8, offset: 0x3CDC8, size: 0x8, addend: 0x0, symName: __ZNSt3__117__compressed_pairIPhNS_9allocatorIhEEEC2B7v160006IDnNS_18__default_init_tagEEEOT_OT0_, symObjAddr: 0x54C4, symBinAddr: 0x100006038, symSize: 0x40 }
  - { offsetInCU: 0x3CE22, offset: 0x3CE22, size: 0x8, addend: 0x0, symName: __ZNSt3__122__compressed_pair_elemIPhLi0ELb0EEC2B7v160006IDnvEEOT_, symObjAddr: 0x5504, symBinAddr: 0x100006078, symSize: 0x1C }
  - { offsetInCU: 0x3CE65, offset: 0x3CE65, size: 0x8, addend: 0x0, symName: __ZNSt3__122__compressed_pair_elemINS_9allocatorIhEELi1ELb1EEC2B7v160006ENS_18__default_init_tagE, symObjAddr: 0x5520, symBinAddr: 0x100006094, symSize: 0x2C }
  - { offsetInCU: 0x3CE9A, offset: 0x3CE9A, size: 0x8, addend: 0x0, symName: __ZNSt3__19allocatorIhEC2B7v160006Ev, symObjAddr: 0x554C, symBinAddr: 0x1000060C0, symSize: 0x2C }
  - { offsetInCU: 0x3CEC4, offset: 0x3CEC4, size: 0x8, addend: 0x0, symName: __ZNSt3__116__non_trivial_ifILb1ENS_9allocatorIhEEEC2B7v160006Ev, symObjAddr: 0x5578, symBinAddr: 0x1000060EC, symSize: 0x14 }
  - { offsetInCU: 0x3CEEE, offset: 0x3CEEE, size: 0x8, addend: 0x0, symName: __ZNKSt3__117__compressed_pairIPN8nlohmann16json_abi_v3_12_027byte_container_with_subtypeINS_6vectorIhNS_9allocatorIhEEEEEEZNS2_10basic_jsonINS_3mapES4_NS_12basic_stringIcNS_11char_traitsIcEENS5_IcEEEEbxydS5_NS2_14adl_serializerES7_vE6createIS8_JEEEPT_DpOT0_EUlS9_E_E5firstB7v160006Ev, symObjAddr: 0x558C, symBinAddr: 0x100006100, symSize: 0x24 }
  - { offsetInCU: 0x3CF14, offset: 0x3CF14, size: 0x8, addend: 0x0, symName: __ZNKSt3__122__compressed_pair_elemIPN8nlohmann16json_abi_v3_12_027byte_container_with_subtypeINS_6vectorIhNS_9allocatorIhEEEEEELi0ELb0EE5__getB7v160006Ev, symObjAddr: 0x55B0, symBinAddr: 0x100006124, symSize: 0x14 }
  - { offsetInCU: 0x3CF3A, offset: 0x3CF3A, size: 0x8, addend: 0x0, symName: __ZNKSt3__110unique_ptrIN8nlohmann16json_abi_v3_12_027byte_container_with_subtypeINS_6vectorIhNS_9allocatorIhEEEEEEZNS2_10basic_jsonINS_3mapES4_NS_12basic_stringIcNS_11char_traitsIcEENS5_IcEEEEbxydS5_NS2_14adl_serializerES7_vE6createIS8_JEEEPT_DpOT0_EUlPS8_E_EcvbB7v160006Ev, symObjAddr: 0x55C4, symBinAddr: 0x100006138, symSize: 0x34 }
  - { offsetInCU: 0x3CF60, offset: 0x3CF60, size: 0x8, addend: 0x0, symName: __ZNSt3__117__compressed_pairIPN8nlohmann16json_abi_v3_12_027byte_container_with_subtypeINS_6vectorIhNS_9allocatorIhEEEEEEZNS2_10basic_jsonINS_3mapES4_NS_12basic_stringIcNS_11char_traitsIcEENS5_IcEEEEbxydS5_NS2_14adl_serializerES7_vE6createIS8_JEEEPT_DpOT0_EUlS9_E_E5firstB7v160006Ev, symObjAddr: 0x55F8, symBinAddr: 0x10000616C, symSize: 0x24 }
  - { offsetInCU: 0x3CF86, offset: 0x3CF86, size: 0x8, addend: 0x0, symName: __ZNSt3__122__compressed_pair_elemIPN8nlohmann16json_abi_v3_12_027byte_container_with_subtypeINS_6vectorIhNS_9allocatorIhEEEEEELi0ELb0EE5__getB7v160006Ev, symObjAddr: 0x561C, symBinAddr: 0x100006190, symSize: 0x14 }
  - { offsetInCU: 0x3CFAC, offset: 0x3CFAC, size: 0x8, addend: 0x0, symName: __ZNSt3__110unique_ptrIN8nlohmann16json_abi_v3_12_027byte_container_with_subtypeINS_6vectorIhNS_9allocatorIhEEEEEEZNS2_10basic_jsonINS_3mapES4_NS_12basic_stringIcNS_11char_traitsIcEENS5_IcEEEEbxydS5_NS2_14adl_serializerES7_vE6createIS8_JEEEPT_DpOT0_EUlPS8_E_ED2B7v160006Ev, symObjAddr: 0x5630, symBinAddr: 0x1000061A4, symSize: 0x30 }
  - { offsetInCU: 0x3CFD6, offset: 0x3CFD6, size: 0x8, addend: 0x0, symName: __ZNSt3__110unique_ptrIN8nlohmann16json_abi_v3_12_027byte_container_with_subtypeINS_6vectorIhNS_9allocatorIhEEEEEEZNS2_10basic_jsonINS_3mapES4_NS_12basic_stringIcNS_11char_traitsIcEENS5_IcEEEEbxydS5_NS2_14adl_serializerES7_vE6createIS8_JEEEPT_DpOT0_EUlPS8_E_E5resetB7v160006ESO_, symObjAddr: 0x5660, symBinAddr: 0x1000061D4, symSize: 0x80 }
  - { offsetInCU: 0x3D01A, offset: 0x3D01A, size: 0x8, addend: 0x0, symName: __ZNSt3__117__compressed_pairIPN8nlohmann16json_abi_v3_12_027byte_container_with_subtypeINS_6vectorIhNS_9allocatorIhEEEEEEZNS2_10basic_jsonINS_3mapES4_NS_12basic_stringIcNS_11char_traitsIcEENS5_IcEEEEbxydS5_NS2_14adl_serializerES7_vE6createIS8_JEEEPT_DpOT0_EUlS9_E_E6secondB7v160006Ev, symObjAddr: 0x56E0, symBinAddr: 0x100006254, symSize: 0x28 }
  - { offsetInCU: 0x3D046, offset: 0x3D046, size: 0x8, addend: 0x0, symName: __ZZN8nlohmann16json_abi_v3_12_010basic_jsonINSt3__13mapENS2_6vectorENS2_12basic_stringIcNS2_11char_traitsIcEENS2_9allocatorIcEEEEbxydS8_NS0_14adl_serializerENS4_IhNS8_IhEEEEvE6createINS0_27byte_container_with_subtypeISD_EEJEEEPT_DpOT0_ENKUlPSH_E_clESN_, symObjAddr: 0x5708, symBinAddr: 0x10000627C, symSize: 0x34 }
  - { offsetInCU: 0x3D07F, offset: 0x3D07F, size: 0x8, addend: 0x0, symName: __ZNSt3__122__compressed_pair_elemIZN8nlohmann16json_abi_v3_12_010basic_jsonINS_3mapENS_6vectorENS_12basic_stringIcNS_11char_traitsIcEENS_9allocatorIcEEEEbxydS9_NS2_14adl_serializerENS5_IhNS9_IhEEEEvE6createINS2_27byte_container_with_subtypeISE_EEJEEEPT_DpOT0_EUlPSI_E_Li1ELb0EE5__getB7v160006Ev, symObjAddr: 0x573C, symBinAddr: 0x1000062B0, symSize: 0x14 }
  - { offsetInCU: 0x3D0A5, offset: 0x3D0A5, size: 0x8, addend: 0x0, symName: __ZNSt3__116allocator_traitsINS_9allocatorIN8nlohmann16json_abi_v3_12_027byte_container_with_subtypeINS_6vectorIhNS1_IhEEEEEEEEE10deallocateB7v160006ERS9_PS8_m, symObjAddr: 0x5750, symBinAddr: 0x1000062C4, symSize: 0x34 }
  - { offsetInCU: 0x3D0E7, offset: 0x3D0E7, size: 0x8, addend: 0x0, symName: __ZNSt3__19allocatorIN8nlohmann16json_abi_v3_12_027byte_container_with_subtypeINS_6vectorIhNS0_IhEEEEEEE10deallocateB7v160006EPS7_m, symObjAddr: 0x5784, symBinAddr: 0x1000062F8, symSize: 0x44 }
  - { offsetInCU: 0x3D12B, offset: 0x3D12B, size: 0x8, addend: 0x0, symName: __ZN8nlohmann16json_abi_v3_12_06detail9exception4nameERKNSt3__112basic_stringIcNS3_11char_traitsIcEENS3_9allocatorIcEEEEi, symObjAddr: 0x58A0, symBinAddr: 0x100006414, symSize: 0xA0 }
  - { offsetInCU: 0x3D15E, offset: 0x3D15E, size: 0x8, addend: 0x0, symName: __ZN8nlohmann16json_abi_v3_12_06detail9exception11diagnosticsEDn, symObjAddr: 0x5940, symBinAddr: 0x1000064B4, symSize: 0x3C }
  - { offsetInCU: 0x3D17E, offset: 0x3D17E, size: 0x8, addend: 0x0, symName: __ZNKSt3__112basic_stringIcNS_11char_traitsIcEENS_9allocatorIcEEE5c_strB7v160006Ev, symObjAddr: 0x597C, symBinAddr: 0x1000064F0, symSize: 0x24 }
  - { offsetInCU: 0x3D1A4, offset: 0x3D1A4, size: 0x8, addend: 0x0, symName: __ZN8nlohmann16json_abi_v3_12_06detail11other_errorC1EiPKc, symObjAddr: 0x59A0, symBinAddr: 0x100006514, symSize: 0x3C }
  - { offsetInCU: 0x3D1EC, offset: 0x3D1EC, size: 0x8, addend: 0x0, symName: __ZNSt3__112basic_stringIcNS_11char_traitsIcEENS_9allocatorIcEEEC1B7v160006Ev, symObjAddr: 0x59DC, symBinAddr: 0x100006550, symSize: 0x2C }
  - { offsetInCU: 0x3D216, offset: 0x3D216, size: 0x8, addend: 0x0, symName: __ZNSt3__112basic_stringIcNS_11char_traitsIcEENS_9allocatorIcEEEC2B7v160006Ev, symObjAddr: 0x5A94, symBinAddr: 0x100006608, symSize: 0x4C }
  - { offsetInCU: 0x3D240, offset: 0x3D240, size: 0x8, addend: 0x0, symName: __ZNSt3__112basic_stringIcNS_11char_traitsIcEENS_9allocatorIcEEE6appendB7v160006ERKS5_, symObjAddr: 0x5B60, symBinAddr: 0x1000066D4, symSize: 0x4C }
  - { offsetInCU: 0x3D275, offset: 0x3D275, size: 0x8, addend: 0x0, symName: __ZNSt3__112basic_stringIcNS_11char_traitsIcEENS_9allocatorIcEEEpLB7v160006Ec, symObjAddr: 0x5F5C, symBinAddr: 0x100006AD0, symSize: 0x34 }
  - { offsetInCU: 0x3D2AA, offset: 0x3D2AA, size: 0x8, addend: 0x0, symName: __ZN8nlohmann16json_abi_v3_12_06detail11other_errorC2EiPKc, symObjAddr: 0x6000, symBinAddr: 0x100006B74, symSize: 0x54 }
  - { offsetInCU: 0x3D2F2, offset: 0x3D2F2, size: 0x8, addend: 0x0, symName: __ZN8nlohmann16json_abi_v3_12_06detail9exceptionC2EiPKc, symObjAddr: 0x6054, symBinAddr: 0x100006BC8, symSize: 0x8C }
  - { offsetInCU: 0x3D33A, offset: 0x3D33A, size: 0x8, addend: 0x0, symName: __ZN8nlohmann16json_abi_v3_12_06detail11other_errorD0Ev, symObjAddr: 0x60E0, symBinAddr: 0x100006C54, symSize: 0x30 }
  - { offsetInCU: 0x3D367, offset: 0x3D367, size: 0x8, addend: 0x0, symName: __ZNK8nlohmann16json_abi_v3_12_06detail9exception4whatEv, symObjAddr: 0x6110, symBinAddr: 0x100006C84, symSize: 0x28 }
  - { offsetInCU: 0x3D38D, offset: 0x3D38D, size: 0x8, addend: 0x0, symName: __ZNSt9exceptionC2B7v160006Ev, symObjAddr: 0x6138, symBinAddr: 0x100006CAC, symSize: 0x24 }
  - { offsetInCU: 0x3D3B7, offset: 0x3D3B7, size: 0x8, addend: 0x0, symName: __ZN8nlohmann16json_abi_v3_12_06detail9exceptionD1Ev, symObjAddr: 0x615C, symBinAddr: 0x100006CD0, symSize: 0x2C }
  - { offsetInCU: 0x3D3E4, offset: 0x3D3E4, size: 0x8, addend: 0x0, symName: __ZN8nlohmann16json_abi_v3_12_06detail9exceptionD0Ev, symObjAddr: 0x6188, symBinAddr: 0x100006CFC, symSize: 0x30 }
  - { offsetInCU: 0x3D411, offset: 0x3D411, size: 0x8, addend: 0x0, symName: __ZN8nlohmann16json_abi_v3_12_06detail9exceptionD2Ev, symObjAddr: 0x61B8, symBinAddr: 0x100006D2C, symSize: 0x48 }
  - { offsetInCU: 0x3D43E, offset: 0x3D43E, size: 0x8, addend: 0x0, symName: __ZN8nlohmann16json_abi_v3_12_06detail11other_errorD2Ev, symObjAddr: 0x6200, symBinAddr: 0x100006D74, symSize: 0x2C }
  - { offsetInCU: 0x3D46B, offset: 0x3D46B, size: 0x8, addend: 0x0, symName: __ZN8nlohmann16json_abi_v3_12_010basic_jsonINSt3__13mapENS2_6vectorENS2_12basic_stringIcNS2_11char_traitsIcEENS2_9allocatorIcEEEEbxydS8_NS0_14adl_serializerENS4_IhNS8_IhEEEEvEC2IiiLi0EEEOT_, symObjAddr: 0x622C, symBinAddr: 0x100006DA0, symSize: 0x64 }
  - { offsetInCU: 0x3D4BC, offset: 0x3D4BC, size: 0x8, addend: 0x0, symName: __ZN8nlohmann16json_abi_v3_12_010basic_jsonINSt3__13mapENS2_6vectorENS2_12basic_stringIcNS2_11char_traitsIcEENS2_9allocatorIcEEEEbxydS8_NS0_14adl_serializerENS4_IhNS8_IhEEEEvE4dataC1Ev, symObjAddr: 0x6290, symBinAddr: 0x100006E04, symSize: 0x2C }
  - { offsetInCU: 0x3D4E6, offset: 0x3D4E6, size: 0x8, addend: 0x0, symName: __ZN8nlohmann16json_abi_v3_12_014adl_serializerIivE7to_jsonINS0_10basic_jsonINSt3__13mapENS5_6vectorENS5_12basic_stringIcNS5_11char_traitsIcEENS5_9allocatorIcEEEEbxydSB_S1_NS7_IhNSB_IhEEEEvEEiEEDTcmclL_ZNS0_7to_jsonEEfp_clsr3stdE7forwardIT0_Efp0_EEcvv_EERT_OSH_, symObjAddr: 0x62BC, symBinAddr: 0x100006E30, symSize: 0x34 }
  - { offsetInCU: 0x3D52B, offset: 0x3D52B, size: 0x8, addend: 0x0, symName: __ZN8nlohmann16json_abi_v3_12_010basic_jsonINSt3__13mapENS2_6vectorENS2_12basic_stringIcNS2_11char_traitsIcEENS2_9allocatorIcEEEEbxydS8_NS0_14adl_serializerENS4_IhNS8_IhEEEEvE11set_parentsEv, symObjAddr: 0x62F0, symBinAddr: 0x100006E64, symSize: 0x10 }
  - { offsetInCU: 0x3D551, offset: 0x3D551, size: 0x8, addend: 0x0, symName: __ZN8nlohmann16json_abi_v3_12_010basic_jsonINSt3__13mapENS2_6vectorENS2_12basic_stringIcNS2_11char_traitsIcEENS2_9allocatorIcEEEEbxydS8_NS0_14adl_serializerENS4_IhNS8_IhEEEEvE4dataC2Ev, symObjAddr: 0x6300, symBinAddr: 0x100006E74, symSize: 0x1C }
  - { offsetInCU: 0x3D581, offset: 0x3D581, size: 0x8, addend: 0x0, symName: __ZNK8nlohmann16json_abi_v3_12_06detail10to_json_fnclINS0_10basic_jsonINSt3__13mapENS5_6vectorENS5_12basic_stringIcNS5_11char_traitsIcEENS5_9allocatorIcEEEEbxydSB_NS0_14adl_serializerENS7_IhNSB_IhEEEEvEEiEEDTcmcl7to_jsonfp_clsr3stdE7forwardIT0_Efp0_EEcvv_EERT_OSI_, symObjAddr: 0x631C, symBinAddr: 0x100006E90, symSize: 0x34 }
  - { offsetInCU: 0x3D5D7, offset: 0x3D5D7, size: 0x8, addend: 0x0, symName: __ZN8nlohmann16json_abi_v3_12_06detail20external_constructorILNS1_7value_tE5EE9constructINS0_10basic_jsonINSt3__13mapENS7_6vectorENS7_12basic_stringIcNS7_11char_traitsIcEENS7_9allocatorIcEEEEbxydSD_NS0_14adl_serializerENS9_IhNSD_IhEEEEvEEEEvRT_NSK_16number_integer_tE, symObjAddr: 0x637C, symBinAddr: 0x100006EF0, symSize: 0x70 }
  - { offsetInCU: 0x3D613, offset: 0x3D613, size: 0x8, addend: 0x0, symName: __ZN8nlohmann16json_abi_v3_12_010basic_jsonINSt3__13mapENS2_6vectorENS2_12basic_stringIcNS2_11char_traitsIcEENS2_9allocatorIcEEEEbxydS8_NS0_14adl_serializerENS4_IhNS8_IhEEEEvE10json_value7destroyENS0_6detail7value_tE, symObjAddr: 0x63EC, symBinAddr: 0x100006F60, symSize: 0x518 }
  - { offsetInCU: 0x3D799, offset: 0x3D799, size: 0x8, addend: 0x0, symName: __ZN8nlohmann16json_abi_v3_12_010basic_jsonINSt3__13mapENS2_6vectorENS2_12basic_stringIcNS2_11char_traitsIcEENS2_9allocatorIcEEEEbxydS8_NS0_14adl_serializerENS4_IhNS8_IhEEEEvE10json_valueC1Ex, symObjAddr: 0x692C, symBinAddr: 0x1000074A0, symSize: 0x34 }
  - { offsetInCU: 0x3D7D2, offset: 0x3D7D2, size: 0x8, addend: 0x0, symName: __ZNSt3__16vectorIN8nlohmann16json_abi_v3_12_010basic_jsonINS_3mapES0_NS_12basic_stringIcNS_11char_traitsIcEENS_9allocatorIcEEEEbxydS8_NS2_14adl_serializerENS0_IhNS8_IhEEEEvEENS8_ISE_EEE7reserveEm, symObjAddr: 0x6960, symBinAddr: 0x1000074D4, symSize: 0xE8 }
  - { offsetInCU: 0x3D82F, offset: 0x3D82F, size: 0x8, addend: 0x0, symName: __ZNKSt3__16vectorIN8nlohmann16json_abi_v3_12_010basic_jsonINS_3mapES0_NS_12basic_stringIcNS_11char_traitsIcEENS_9allocatorIcEEEEbxydS8_NS2_14adl_serializerENS0_IhNS8_IhEEEEvEENS8_ISE_EEE4sizeB7v160006Ev, symObjAddr: 0x6A48, symBinAddr: 0x1000075BC, symSize: 0x28 }
  - { offsetInCU: 0x3D855, offset: 0x3D855, size: 0x8, addend: 0x0, symName: __ZNSt3__16vectorIN8nlohmann16json_abi_v3_12_010basic_jsonINS_3mapES0_NS_12basic_stringIcNS_11char_traitsIcEENS_9allocatorIcEEEEbxydS8_NS2_14adl_serializerENS0_IhNS8_IhEEEEvEENS8_ISE_EEE5beginB7v160006Ev, symObjAddr: 0x6AD0, symBinAddr: 0x100007644, symSize: 0x30 }
  - { offsetInCU: 0x3D87D, offset: 0x3D87D, size: 0x8, addend: 0x0, symName: __ZNSt3__16vectorIN8nlohmann16json_abi_v3_12_010basic_jsonINS_3mapES0_NS_12basic_stringIcNS_11char_traitsIcEENS_9allocatorIcEEEEbxydS8_NS2_14adl_serializerENS0_IhNS8_IhEEEEvEENS8_ISE_EEE3endB7v160006Ev, symObjAddr: 0x6B00, symBinAddr: 0x100007674, symSize: 0x30 }
  - { offsetInCU: 0x3D8A5, offset: 0x3D8A5, size: 0x8, addend: 0x0, symName: __ZNKSt3__13mapINS_12basic_stringIcNS_11char_traitsIcEENS_9allocatorIcEEEEN8nlohmann16json_abi_v3_12_010basic_jsonIS0_NS_6vectorES6_bxydS4_NS8_14adl_serializerENSA_IhNS4_IhEEEEvEENS_4lessIvEENS4_INS_4pairIKS6_SE_EEEEE4sizeB7v160006Ev, symObjAddr: 0x6B5C, symBinAddr: 0x1000076D0, symSize: 0x28 }
  - { offsetInCU: 0x3D8CB, offset: 0x3D8CB, size: 0x8, addend: 0x0, symName: __ZNSt3__13mapINS_12basic_stringIcNS_11char_traitsIcEENS_9allocatorIcEEEEN8nlohmann16json_abi_v3_12_010basic_jsonIS0_NS_6vectorES6_bxydS4_NS8_14adl_serializerENSA_IhNS4_IhEEEEvEENS_4lessIvEENS4_INS_4pairIKS6_SE_EEEEE5beginB7v160006Ev, symObjAddr: 0x6B84, symBinAddr: 0x1000076F8, symSize: 0x38 }
  - { offsetInCU: 0x3D8F1, offset: 0x3D8F1, size: 0x8, addend: 0x0, symName: __ZNSt3__13mapINS_12basic_stringIcNS_11char_traitsIcEENS_9allocatorIcEEEEN8nlohmann16json_abi_v3_12_010basic_jsonIS0_NS_6vectorES6_bxydS4_NS8_14adl_serializerENSA_IhNS4_IhEEEEvEENS_4lessIvEENS4_INS_4pairIKS6_SE_EEEEE3endB7v160006Ev, symObjAddr: 0x6BBC, symBinAddr: 0x100007730, symSize: 0x38 }
  - { offsetInCU: 0x3D917, offset: 0x3D917, size: 0x8, addend: 0x0, symName: __ZNKSt3__114__map_iteratorINS_15__tree_iteratorINS_12__value_typeINS_12basic_stringIcNS_11char_traitsIcEENS_9allocatorIcEEEEN8nlohmann16json_abi_v3_12_010basic_jsonINS_3mapENS_6vectorES8_bxydS6_NSA_14adl_serializerENSD_IhNS6_IhEEEEvEEEEPNS_11__tree_nodeISI_PvEElEEEdeB7v160006Ev, symObjAddr: 0x6C24, symBinAddr: 0x100007798, symSize: 0x28 }
  - { offsetInCU: 0x3D93D, offset: 0x3D93D, size: 0x8, addend: 0x0, symName: __ZNSt3__16vectorIN8nlohmann16json_abi_v3_12_010basic_jsonINS_3mapES0_NS_12basic_stringIcNS_11char_traitsIcEENS_9allocatorIcEEEEbxydS8_NS2_14adl_serializerENS0_IhNS8_IhEEEEvEENS8_ISE_EEE9push_backB7v160006EOSE_, symObjAddr: 0x6C4C, symBinAddr: 0x1000077C0, symSize: 0x6C }
  - { offsetInCU: 0x3D974, offset: 0x3D974, size: 0x8, addend: 0x0, symName: __ZNSt3__114__map_iteratorINS_15__tree_iteratorINS_12__value_typeINS_12basic_stringIcNS_11char_traitsIcEENS_9allocatorIcEEEEN8nlohmann16json_abi_v3_12_010basic_jsonINS_3mapENS_6vectorES8_bxydS6_NSA_14adl_serializerENSD_IhNS6_IhEEEEvEEEEPNS_11__tree_nodeISI_PvEElEEEppB7v160006Ev, symObjAddr: 0x6CB8, symBinAddr: 0x10000782C, symSize: 0x2C }
  - { offsetInCU: 0x3D99A, offset: 0x3D99A, size: 0x8, addend: 0x0, symName: __ZNKSt3__16vectorIN8nlohmann16json_abi_v3_12_010basic_jsonINS_3mapES0_NS_12basic_stringIcNS_11char_traitsIcEENS_9allocatorIcEEEEbxydS8_NS2_14adl_serializerENS0_IhNS8_IhEEEEvEENS8_ISE_EEE5emptyB7v160006Ev, symObjAddr: 0x6CE4, symBinAddr: 0x100007858, symSize: 0x28 }
  - { offsetInCU: 0x3D9C0, offset: 0x3D9C0, size: 0x8, addend: 0x0, symName: __ZNSt3__16vectorIN8nlohmann16json_abi_v3_12_010basic_jsonINS_3mapES0_NS_12basic_stringIcNS_11char_traitsIcEENS_9allocatorIcEEEEbxydS8_NS2_14adl_serializerENS0_IhNS8_IhEEEEvEENS8_ISE_EEE4backB7v160006Ev, symObjAddr: 0x6D0C, symBinAddr: 0x100007880, symSize: 0x1C }
  - { offsetInCU: 0x3D9E6, offset: 0x3D9E6, size: 0x8, addend: 0x0, symName: __ZN8nlohmann16json_abi_v3_12_010basic_jsonINSt3__13mapENS2_6vectorENS2_12basic_stringIcNS2_11char_traitsIcEENS2_9allocatorIcEEEEbxydS8_NS0_14adl_serializerENS4_IhNS8_IhEEEEvEC1EOSE_, symObjAddr: 0x6D28, symBinAddr: 0x10000789C, symSize: 0x34 }
  - { offsetInCU: 0x3DA1F, offset: 0x3DA1F, size: 0x8, addend: 0x0, symName: __ZNSt3__16vectorIN8nlohmann16json_abi_v3_12_010basic_jsonINS_3mapES0_NS_12basic_stringIcNS_11char_traitsIcEENS_9allocatorIcEEEEbxydS8_NS2_14adl_serializerENS0_IhNS8_IhEEEEvEENS8_ISE_EEE8pop_backEv, symObjAddr: 0x6D5C, symBinAddr: 0x1000078D0, symSize: 0x2C }
  - { offsetInCU: 0x3DA47, offset: 0x3DA47, size: 0x8, addend: 0x0, symName: __ZNK8nlohmann16json_abi_v3_12_010basic_jsonINSt3__13mapENS2_6vectorENS2_12basic_stringIcNS2_11char_traitsIcEENS2_9allocatorIcEEEEbxydS8_NS0_14adl_serializerENS4_IhNS8_IhEEEEvE8is_arrayEv, symObjAddr: 0x6D88, symBinAddr: 0x1000078FC, symSize: 0x24 }
  - { offsetInCU: 0x3DA6D, offset: 0x3DA6D, size: 0x8, addend: 0x0, symName: __ZNSt3__16vectorIN8nlohmann16json_abi_v3_12_010basic_jsonINS_3mapES0_NS_12basic_stringIcNS_11char_traitsIcEENS_9allocatorIcEEEEbxydS8_NS2_14adl_serializerENS0_IhNS8_IhEEEEvEENS8_ISE_EEE5clearB7v160006Ev, symObjAddr: 0x6DAC, symBinAddr: 0x100007920, symSize: 0x4C }
  - { offsetInCU: 0x3DAA2, offset: 0x3DAA2, size: 0x8, addend: 0x0, symName: __ZNK8nlohmann16json_abi_v3_12_010basic_jsonINSt3__13mapENS2_6vectorENS2_12basic_stringIcNS2_11char_traitsIcEENS2_9allocatorIcEEEEbxydS8_NS0_14adl_serializerENS4_IhNS8_IhEEEEvE9is_objectEv, symObjAddr: 0x6DF8, symBinAddr: 0x10000796C, symSize: 0x24 }
  - { offsetInCU: 0x3DAC8, offset: 0x3DAC8, size: 0x8, addend: 0x0, symName: __ZNSt3__13mapINS_12basic_stringIcNS_11char_traitsIcEENS_9allocatorIcEEEEN8nlohmann16json_abi_v3_12_010basic_jsonIS0_NS_6vectorES6_bxydS4_NS8_14adl_serializerENSA_IhNS4_IhEEEEvEENS_4lessIvEENS4_INS_4pairIKS6_SE_EEEEE5clearB7v160006Ev, symObjAddr: 0x6E1C, symBinAddr: 0x100007990, symSize: 0x24 }
  - { offsetInCU: 0x3DAEE, offset: 0x3DAEE, size: 0x8, addend: 0x0, symName: __ZNSt3__16vectorIN8nlohmann16json_abi_v3_12_010basic_jsonINS_3mapES0_NS_12basic_stringIcNS_11char_traitsIcEENS_9allocatorIcEEEEbxydS8_NS2_14adl_serializerENS0_IhNS8_IhEEEEvEENS8_ISE_EEED1B7v160006Ev, symObjAddr: 0x6E40, symBinAddr: 0x1000079B4, symSize: 0x2C }
  - { offsetInCU: 0x3DB18, offset: 0x3DB18, size: 0x8, addend: 0x0, symName: __ZNSt3__116allocator_traitsINS_9allocatorINS_3mapINS_12basic_stringIcNS_11char_traitsIcEENS1_IcEEEEN8nlohmann16json_abi_v3_12_010basic_jsonIS2_NS_6vectorES7_bxydS1_NS9_14adl_serializerENSB_IhNS1_IhEEEEvEENS_4lessIvEENS1_INS_4pairIKS7_SF_EEEEEEEEE7destroyB7v160006ISM_vvEEvRSN_PT_, symObjAddr: 0x6E6C, symBinAddr: 0x1000079E0, symSize: 0x28 }
  - { offsetInCU: 0x3DB52, offset: 0x3DB52, size: 0x8, addend: 0x0, symName: __ZNSt3__116allocator_traitsINS_9allocatorINS_6vectorIN8nlohmann16json_abi_v3_12_010basic_jsonINS_3mapES2_NS_12basic_stringIcNS_11char_traitsIcEENS1_IcEEEEbxydS1_NS4_14adl_serializerENS2_IhNS1_IhEEEEvEENS1_ISF_EEEEEEE7destroyB7v160006ISH_vvEEvRSI_PT_, symObjAddr: 0x6E94, symBinAddr: 0x100007A08, symSize: 0x28 }
  - { offsetInCU: 0x3DB8C, offset: 0x3DB8C, size: 0x8, addend: 0x0, symName: __ZNSt3__116allocator_traitsINS_9allocatorINS_12basic_stringIcNS_11char_traitsIcEENS1_IcEEEEEEE7destroyB7v160006IS6_vvEEvRS7_PT_, symObjAddr: 0x6EBC, symBinAddr: 0x100007A30, symSize: 0x28 }
  - { offsetInCU: 0x3DBC6, offset: 0x3DBC6, size: 0x8, addend: 0x0, symName: __ZNSt3__116allocator_traitsINS_9allocatorIN8nlohmann16json_abi_v3_12_027byte_container_with_subtypeINS_6vectorIhNS1_IhEEEEEEEEE7destroyB7v160006IS8_vvEEvRS9_PT_, symObjAddr: 0x6EE4, symBinAddr: 0x100007A58, symSize: 0x28 }
  - { offsetInCU: 0x3DC00, offset: 0x3DC00, size: 0x8, addend: 0x0, symName: __ZNKSt3__16vectorIN8nlohmann16json_abi_v3_12_010basic_jsonINS_3mapES0_NS_12basic_stringIcNS_11char_traitsIcEENS_9allocatorIcEEEEbxydS8_NS2_14adl_serializerENS0_IhNS8_IhEEEEvEENS8_ISE_EEE8capacityB7v160006Ev, symObjAddr: 0x6F0C, symBinAddr: 0x100007A80, symSize: 0x40 }
  - { offsetInCU: 0x3DC26, offset: 0x3DC26, size: 0x8, addend: 0x0, symName: __ZNKSt3__16vectorIN8nlohmann16json_abi_v3_12_010basic_jsonINS_3mapES0_NS_12basic_stringIcNS_11char_traitsIcEENS_9allocatorIcEEEEbxydS8_NS2_14adl_serializerENS0_IhNS8_IhEEEEvEENS8_ISE_EEE8max_sizeEv, symObjAddr: 0x6F4C, symBinAddr: 0x100007AC0, symSize: 0x60 }
  - { offsetInCU: 0x3DC4E, offset: 0x3DC4E, size: 0x8, addend: 0x0, symName: __ZNKSt3__16vectorIN8nlohmann16json_abi_v3_12_010basic_jsonINS_3mapES0_NS_12basic_stringIcNS_11char_traitsIcEENS_9allocatorIcEEEEbxydS8_NS2_14adl_serializerENS0_IhNS8_IhEEEEvEENS8_ISE_EEE20__throw_length_errorB7v160006Ev, symObjAddr: 0x6FAC, symBinAddr: 0x100007B20, symSize: 0x1C }
  - { offsetInCU: 0x3DC74, offset: 0x3DC74, size: 0x8, addend: 0x0, symName: __ZNSt3__16vectorIN8nlohmann16json_abi_v3_12_010basic_jsonINS_3mapES0_NS_12basic_stringIcNS_11char_traitsIcEENS_9allocatorIcEEEEbxydS8_NS2_14adl_serializerENS0_IhNS8_IhEEEEvEENS8_ISE_EEE7__allocB7v160006Ev, symObjAddr: 0x6FC8, symBinAddr: 0x100007B3C, symSize: 0x28 }
  - { offsetInCU: 0x3DC9A, offset: 0x3DC9A, size: 0x8, addend: 0x0, symName: __ZNSt3__114__split_bufferIN8nlohmann16json_abi_v3_12_010basic_jsonINS_3mapENS_6vectorENS_12basic_stringIcNS_11char_traitsIcEENS_9allocatorIcEEEEbxydS9_NS2_14adl_serializerENS5_IhNS9_IhEEEEvEERNS9_ISF_EEEC1EmmSH_, symObjAddr: 0x6FF0, symBinAddr: 0x100007B64, symSize: 0x44 }
  - { offsetInCU: 0x3DCF3, offset: 0x3DCF3, size: 0x8, addend: 0x0, symName: __ZNSt3__114__split_bufferIN8nlohmann16json_abi_v3_12_010basic_jsonINS_3mapENS_6vectorENS_12basic_stringIcNS_11char_traitsIcEENS_9allocatorIcEEEEbxydS9_NS2_14adl_serializerENS5_IhNS9_IhEEEEvEERNS9_ISF_EEED1Ev, symObjAddr: 0x714C, symBinAddr: 0x100007CC0, symSize: 0x2C }
  - { offsetInCU: 0x3DD1F, offset: 0x3DD1F, size: 0x8, addend: 0x0, symName: __ZNKSt3__16vectorIN8nlohmann16json_abi_v3_12_010basic_jsonINS_3mapES0_NS_12basic_stringIcNS_11char_traitsIcEENS_9allocatorIcEEEEbxydS8_NS2_14adl_serializerENS0_IhNS8_IhEEEEvEENS8_ISE_EEE9__end_capB7v160006Ev, symObjAddr: 0x7178, symBinAddr: 0x100007CEC, symSize: 0x28 }
  - { offsetInCU: 0x3DD45, offset: 0x3DD45, size: 0x8, addend: 0x0, symName: __ZNKSt3__117__compressed_pairIPN8nlohmann16json_abi_v3_12_010basic_jsonINS_3mapENS_6vectorENS_12basic_stringIcNS_11char_traitsIcEENS_9allocatorIcEEEEbxydS9_NS2_14adl_serializerENS5_IhNS9_IhEEEEvEENS9_ISF_EEE5firstB7v160006Ev, symObjAddr: 0x71A0, symBinAddr: 0x100007D14, symSize: 0x24 }
  - { offsetInCU: 0x3DD6B, offset: 0x3DD6B, size: 0x8, addend: 0x0, symName: __ZNKSt3__122__compressed_pair_elemIPN8nlohmann16json_abi_v3_12_010basic_jsonINS_3mapENS_6vectorENS_12basic_stringIcNS_11char_traitsIcEENS_9allocatorIcEEEEbxydS9_NS2_14adl_serializerENS5_IhNS9_IhEEEEvEELi0ELb0EE5__getB7v160006Ev, symObjAddr: 0x71C4, symBinAddr: 0x100007D38, symSize: 0x14 }
  - { offsetInCU: 0x3DD9C, offset: 0x3DD9C, size: 0x8, addend: 0x0, symName: __ZNSt3__116allocator_traitsINS_9allocatorIN8nlohmann16json_abi_v3_12_010basic_jsonINS_3mapENS_6vectorENS_12basic_stringIcNS_11char_traitsIcEENS1_IcEEEEbxydS1_NS3_14adl_serializerENS6_IhNS1_IhEEEEvEEEEE8max_sizeB7v160006ISG_vvEEmRKSG_, symObjAddr: 0x71D8, symBinAddr: 0x100007D4C, symSize: 0x28 }
  - { offsetInCU: 0x3DDC7, offset: 0x3DDC7, size: 0x8, addend: 0x0, symName: __ZNKSt3__16vectorIN8nlohmann16json_abi_v3_12_010basic_jsonINS_3mapES0_NS_12basic_stringIcNS_11char_traitsIcEENS_9allocatorIcEEEEbxydS8_NS2_14adl_serializerENS0_IhNS8_IhEEEEvEENS8_ISE_EEE7__allocB7v160006Ev, symObjAddr: 0x7200, symBinAddr: 0x100007D74, symSize: 0x28 }
  - { offsetInCU: 0x3DDED, offset: 0x3DDED, size: 0x8, addend: 0x0, symName: __ZNSt3__114numeric_limitsIlE3maxB7v160006Ev, symObjAddr: 0x7228, symBinAddr: 0x100007D9C, symSize: 0x14 }
  - { offsetInCU: 0x3DE01, offset: 0x3DE01, size: 0x8, addend: 0x0, symName: __ZNKSt3__117__compressed_pairIPN8nlohmann16json_abi_v3_12_010basic_jsonINS_3mapENS_6vectorENS_12basic_stringIcNS_11char_traitsIcEENS_9allocatorIcEEEEbxydS9_NS2_14adl_serializerENS5_IhNS9_IhEEEEvEENS9_ISF_EEE6secondB7v160006Ev, symObjAddr: 0x723C, symBinAddr: 0x100007DB0, symSize: 0x24 }
  - { offsetInCU: 0x3DE27, offset: 0x3DE27, size: 0x8, addend: 0x0, symName: __ZNKSt3__122__compressed_pair_elemINS_9allocatorIN8nlohmann16json_abi_v3_12_010basic_jsonINS_3mapENS_6vectorENS_12basic_stringIcNS_11char_traitsIcEENS1_IcEEEEbxydS1_NS3_14adl_serializerENS6_IhNS1_IhEEEEvEEEELi1ELb1EE5__getB7v160006Ev, symObjAddr: 0x7260, symBinAddr: 0x100007DD4, symSize: 0x14 }
  - { offsetInCU: 0x3DE4D, offset: 0x3DE4D, size: 0x8, addend: 0x0, symName: __ZNSt3__123__libcpp_numeric_limitsIlLb1EE3maxB7v160006Ev, symObjAddr: 0x7274, symBinAddr: 0x100007DE8, symSize: 0x8 }
  - { offsetInCU: 0x3DE61, offset: 0x3DE61, size: 0x8, addend: 0x0, symName: __ZNSt12length_errorC1B7v160006EPKc, symObjAddr: 0x72E0, symBinAddr: 0x100007E54, symSize: 0x34 }
  - { offsetInCU: 0x3DE9A, offset: 0x3DE9A, size: 0x8, addend: 0x0, symName: __ZNSt12length_errorC2B7v160006EPKc, symObjAddr: 0x7314, symBinAddr: 0x100007E88, symSize: 0x4C }
  - { offsetInCU: 0x3DED3, offset: 0x3DED3, size: 0x8, addend: 0x0, symName: __ZNSt3__117__compressed_pairIPN8nlohmann16json_abi_v3_12_010basic_jsonINS_3mapENS_6vectorENS_12basic_stringIcNS_11char_traitsIcEENS_9allocatorIcEEEEbxydS9_NS2_14adl_serializerENS5_IhNS9_IhEEEEvEENS9_ISF_EEE6secondB7v160006Ev, symObjAddr: 0x7360, symBinAddr: 0x100007ED4, symSize: 0x24 }
  - { offsetInCU: 0x3DEF9, offset: 0x3DEF9, size: 0x8, addend: 0x0, symName: __ZNSt3__122__compressed_pair_elemINS_9allocatorIN8nlohmann16json_abi_v3_12_010basic_jsonINS_3mapENS_6vectorENS_12basic_stringIcNS_11char_traitsIcEENS1_IcEEEEbxydS1_NS3_14adl_serializerENS6_IhNS1_IhEEEEvEEEELi1ELb1EE5__getB7v160006Ev, symObjAddr: 0x7384, symBinAddr: 0x100007EF8, symSize: 0x14 }
  - { offsetInCU: 0x3DF1F, offset: 0x3DF1F, size: 0x8, addend: 0x0, symName: __ZNSt3__114__split_bufferIN8nlohmann16json_abi_v3_12_010basic_jsonINS_3mapENS_6vectorENS_12basic_stringIcNS_11char_traitsIcEENS_9allocatorIcEEEEbxydS9_NS2_14adl_serializerENS5_IhNS9_IhEEEEvEERNS9_ISF_EEEC2EmmSH_, symObjAddr: 0x7398, symBinAddr: 0x100007F0C, symSize: 0xD4 }
  - { offsetInCU: 0x3DF95, offset: 0x3DF95, size: 0x8, addend: 0x0, symName: __ZNSt3__117__compressed_pairIPN8nlohmann16json_abi_v3_12_010basic_jsonINS_3mapENS_6vectorENS_12basic_stringIcNS_11char_traitsIcEENS_9allocatorIcEEEEbxydS9_NS2_14adl_serializerENS5_IhNS9_IhEEEEvEERNS9_ISF_EEEC1B7v160006IDnSI_EEOT_OT0_, symObjAddr: 0x746C, symBinAddr: 0x100007FE0, symSize: 0x3C }
  - { offsetInCU: 0x3DFEF, offset: 0x3DFEF, size: 0x8, addend: 0x0, symName: __ZNSt3__114__split_bufferIN8nlohmann16json_abi_v3_12_010basic_jsonINS_3mapENS_6vectorENS_12basic_stringIcNS_11char_traitsIcEENS_9allocatorIcEEEEbxydS9_NS2_14adl_serializerENS5_IhNS9_IhEEEEvEERNS9_ISF_EEE7__allocB7v160006Ev, symObjAddr: 0x74E8, symBinAddr: 0x10000805C, symSize: 0x28 }
  - { offsetInCU: 0x3E015, offset: 0x3E015, size: 0x8, addend: 0x0, symName: __ZNSt3__114__split_bufferIN8nlohmann16json_abi_v3_12_010basic_jsonINS_3mapENS_6vectorENS_12basic_stringIcNS_11char_traitsIcEENS_9allocatorIcEEEEbxydS9_NS2_14adl_serializerENS5_IhNS9_IhEEEEvEERNS9_ISF_EEE9__end_capB7v160006Ev, symObjAddr: 0x7510, symBinAddr: 0x100008084, symSize: 0x28 }
  - { offsetInCU: 0x3E03B, offset: 0x3E03B, size: 0x8, addend: 0x0, symName: __ZNSt3__117__compressed_pairIPN8nlohmann16json_abi_v3_12_010basic_jsonINS_3mapENS_6vectorENS_12basic_stringIcNS_11char_traitsIcEENS_9allocatorIcEEEEbxydS9_NS2_14adl_serializerENS5_IhNS9_IhEEEEvEERNS9_ISF_EEEC2B7v160006IDnSI_EEOT_OT0_, symObjAddr: 0x7538, symBinAddr: 0x1000080AC, symSize: 0x48 }
  - { offsetInCU: 0x3E095, offset: 0x3E095, size: 0x8, addend: 0x0, symName: __ZNSt3__122__compressed_pair_elemIRNS_9allocatorIN8nlohmann16json_abi_v3_12_010basic_jsonINS_3mapENS_6vectorENS_12basic_stringIcNS_11char_traitsIcEENS1_IcEEEEbxydS1_NS3_14adl_serializerENS6_IhNS1_IhEEEEvEEEELi1ELb0EEC2B7v160006ISH_vEEOT_, symObjAddr: 0x7580, symBinAddr: 0x1000080F4, symSize: 0x20 }
  - { offsetInCU: 0x3E0D8, offset: 0x3E0D8, size: 0x8, addend: 0x0, symName: __ZNSt3__19allocatorIN8nlohmann16json_abi_v3_12_010basic_jsonINS_3mapENS_6vectorENS_12basic_stringIcNS_11char_traitsIcEENS0_IcEEEEbxydS0_NS2_14adl_serializerENS5_IhNS0_IhEEEEvEEE8allocateB7v160006Em, symObjAddr: 0x75A0, symBinAddr: 0x100008114, symSize: 0x58 }
  - { offsetInCU: 0x3E10D, offset: 0x3E10D, size: 0x8, addend: 0x0, symName: __ZNSt3__117__compressed_pairIPN8nlohmann16json_abi_v3_12_010basic_jsonINS_3mapENS_6vectorENS_12basic_stringIcNS_11char_traitsIcEENS_9allocatorIcEEEEbxydS9_NS2_14adl_serializerENS5_IhNS9_IhEEEEvEERNS9_ISF_EEE6secondB7v160006Ev, symObjAddr: 0x75F8, symBinAddr: 0x10000816C, symSize: 0x28 }
  - { offsetInCU: 0x3E133, offset: 0x3E133, size: 0x8, addend: 0x0, symName: __ZNSt3__122__compressed_pair_elemIRNS_9allocatorIN8nlohmann16json_abi_v3_12_010basic_jsonINS_3mapENS_6vectorENS_12basic_stringIcNS_11char_traitsIcEENS1_IcEEEEbxydS1_NS3_14adl_serializerENS6_IhNS1_IhEEEEvEEEELi1ELb0EE5__getB7v160006Ev, symObjAddr: 0x7620, symBinAddr: 0x100008194, symSize: 0x18 }
  - { offsetInCU: 0x3E159, offset: 0x3E159, size: 0x8, addend: 0x0, symName: __ZNSt3__117__compressed_pairIPN8nlohmann16json_abi_v3_12_010basic_jsonINS_3mapENS_6vectorENS_12basic_stringIcNS_11char_traitsIcEENS_9allocatorIcEEEEbxydS9_NS2_14adl_serializerENS5_IhNS9_IhEEEEvEERNS9_ISF_EEE5firstB7v160006Ev, symObjAddr: 0x7638, symBinAddr: 0x1000081AC, symSize: 0x24 }
  - { offsetInCU: 0x3E17F, offset: 0x3E17F, size: 0x8, addend: 0x0, symName: __ZNSt3__122__compressed_pair_elemIPN8nlohmann16json_abi_v3_12_010basic_jsonINS_3mapENS_6vectorENS_12basic_stringIcNS_11char_traitsIcEENS_9allocatorIcEEEEbxydS9_NS2_14adl_serializerENS5_IhNS9_IhEEEEvEELi0ELb0EE5__getB7v160006Ev, symObjAddr: 0x765C, symBinAddr: 0x1000081D0, symSize: 0x14 }
  - { offsetInCU: 0x3E1A5, offset: 0x3E1A5, size: 0x8, addend: 0x0, symName: __ZNKSt3__16vectorIN8nlohmann16json_abi_v3_12_010basic_jsonINS_3mapES0_NS_12basic_stringIcNS_11char_traitsIcEENS_9allocatorIcEEEEbxydS8_NS2_14adl_serializerENS0_IhNS8_IhEEEEvEENS8_ISE_EEE17__annotate_deleteB7v160006Ev, symObjAddr: 0x7670, symBinAddr: 0x1000081E4, symSize: 0xB8 }
  - { offsetInCU: 0x3E1CB, offset: 0x3E1CB, size: 0x8, addend: 0x0, symName: __ZNSt3__116reverse_iteratorIPN8nlohmann16json_abi_v3_12_010basic_jsonINS_3mapENS_6vectorENS_12basic_stringIcNS_11char_traitsIcEENS_9allocatorIcEEEEbxydS9_NS2_14adl_serializerENS5_IhNS9_IhEEEEvEEEC1B7v160006ESG_, symObjAddr: 0x7854, symBinAddr: 0x1000083C8, symSize: 0x34 }
  - { offsetInCU: 0x3E204, offset: 0x3E204, size: 0x8, addend: 0x0, symName: __ZNKSt3__116reverse_iteratorIPN8nlohmann16json_abi_v3_12_010basic_jsonINS_3mapENS_6vectorENS_12basic_stringIcNS_11char_traitsIcEENS_9allocatorIcEEEEbxydS9_NS2_14adl_serializerENS5_IhNS9_IhEEEEvEEE4baseB7v160006Ev, symObjAddr: 0x7888, symBinAddr: 0x1000083FC, symSize: 0x18 }
  - { offsetInCU: 0x3E22A, offset: 0x3E22A, size: 0x8, addend: 0x0, symName: __ZNSt3__16vectorIN8nlohmann16json_abi_v3_12_010basic_jsonINS_3mapES0_NS_12basic_stringIcNS_11char_traitsIcEENS_9allocatorIcEEEEbxydS8_NS2_14adl_serializerENS0_IhNS8_IhEEEEvEENS8_ISE_EEE9__end_capB7v160006Ev, symObjAddr: 0x78DC, symBinAddr: 0x100008450, symSize: 0x28 }
  - { offsetInCU: 0x3E250, offset: 0x3E250, size: 0x8, addend: 0x0, symName: __ZNKSt3__16vectorIN8nlohmann16json_abi_v3_12_010basic_jsonINS_3mapES0_NS_12basic_stringIcNS_11char_traitsIcEENS_9allocatorIcEEEEbxydS8_NS2_14adl_serializerENS0_IhNS8_IhEEEEvEENS8_ISE_EEE14__annotate_newB7v160006Em, symObjAddr: 0x7904, symBinAddr: 0x100008478, symSize: 0xAC }
  - { offsetInCU: 0x3E285, offset: 0x3E285, size: 0x8, addend: 0x0, symName: __ZNKSt3__16vectorIN8nlohmann16json_abi_v3_12_010basic_jsonINS_3mapES0_NS_12basic_stringIcNS_11char_traitsIcEENS_9allocatorIcEEEEbxydS8_NS2_14adl_serializerENS0_IhNS8_IhEEEEvEENS8_ISE_EEE31__annotate_contiguous_containerB7v160006EPKvSI_SI_SI_, symObjAddr: 0x79C0, symBinAddr: 0x100008534, symSize: 0x20 }
  - { offsetInCU: 0x3E2D7, offset: 0x3E2D7, size: 0x8, addend: 0x0, symName: __ZNKSt3__16vectorIN8nlohmann16json_abi_v3_12_010basic_jsonINS_3mapES0_NS_12basic_stringIcNS_11char_traitsIcEENS_9allocatorIcEEEEbxydS8_NS2_14adl_serializerENS0_IhNS8_IhEEEEvEENS8_ISE_EEE4dataB7v160006Ev, symObjAddr: 0x79E0, symBinAddr: 0x100008554, symSize: 0x28 }
  - { offsetInCU: 0x3E2FD, offset: 0x3E2FD, size: 0x8, addend: 0x0, symName: __ZNSt3__129_AllocatorDestroyRangeReverseINS_9allocatorIN8nlohmann16json_abi_v3_12_010basic_jsonINS_3mapENS_6vectorENS_12basic_stringIcNS_11char_traitsIcEENS1_IcEEEEbxydS1_NS3_14adl_serializerENS6_IhNS1_IhEEEEvEEEENS_16reverse_iteratorIPSF_EEEC1B7v160006ERSG_RSJ_SM_, symObjAddr: 0x7A68, symBinAddr: 0x1000085DC, symSize: 0x44 }
  - { offsetInCU: 0x3E354, offset: 0x3E354, size: 0x8, addend: 0x0, symName: __ZNSt3__116allocator_traitsINS_9allocatorIN8nlohmann16json_abi_v3_12_010basic_jsonINS_3mapENS_6vectorENS_12basic_stringIcNS_11char_traitsIcEENS1_IcEEEEbxydS1_NS3_14adl_serializerENS6_IhNS1_IhEEEEvEEEEE9constructB7v160006ISF_JSF_EvvEEvRSG_PT_DpOT0_, symObjAddr: 0x7AF4, symBinAddr: 0x100008668, symSize: 0x30 }
  - { offsetInCU: 0x3E3A8, offset: 0x3E3A8, size: 0x8, addend: 0x0, symName: __ZNKSt3__116reverse_iteratorIPN8nlohmann16json_abi_v3_12_010basic_jsonINS_3mapENS_6vectorENS_12basic_stringIcNS_11char_traitsIcEENS_9allocatorIcEEEEbxydS9_NS2_14adl_serializerENS5_IhNS9_IhEEEEvEEEdeB7v160006Ev, symObjAddr: 0x7B48, symBinAddr: 0x1000086BC, symSize: 0x28 }
  - { offsetInCU: 0x3E3DD, offset: 0x3E3DD, size: 0x8, addend: 0x0, symName: __ZNSt3__116reverse_iteratorIPN8nlohmann16json_abi_v3_12_010basic_jsonINS_3mapENS_6vectorENS_12basic_stringIcNS_11char_traitsIcEENS_9allocatorIcEEEEbxydS9_NS2_14adl_serializerENS5_IhNS9_IhEEEEvEEEppB7v160006Ev, symObjAddr: 0x7B70, symBinAddr: 0x1000086E4, symSize: 0x20 }
  - { offsetInCU: 0x3E403, offset: 0x3E403, size: 0x8, addend: 0x0, symName: __ZNSt3__128__exception_guard_exceptionsINS_29_AllocatorDestroyRangeReverseINS_9allocatorIN8nlohmann16json_abi_v3_12_010basic_jsonINS_3mapENS_6vectorENS_12basic_stringIcNS_11char_traitsIcEENS2_IcEEEEbxydS2_NS4_14adl_serializerENS7_IhNS2_IhEEEEvEEEENS_16reverse_iteratorIPSG_EEEEE10__completeB7v160006Ev, symObjAddr: 0x7B90, symBinAddr: 0x100008704, symSize: 0x1C }
  - { offsetInCU: 0x3E429, offset: 0x3E429, size: 0x8, addend: 0x0, symName: __ZNSt3__128__exception_guard_exceptionsINS_29_AllocatorDestroyRangeReverseINS_9allocatorIN8nlohmann16json_abi_v3_12_010basic_jsonINS_3mapENS_6vectorENS_12basic_stringIcNS_11char_traitsIcEENS2_IcEEEEbxydS2_NS4_14adl_serializerENS7_IhNS2_IhEEEEvEEEENS_16reverse_iteratorIPSG_EEEEED1B7v160006Ev, symObjAddr: 0x7BAC, symBinAddr: 0x100008720, symSize: 0x2C }
  - { offsetInCU: 0x3E453, offset: 0x3E453, size: 0x8, addend: 0x0, symName: __ZNSt3__128__exception_guard_exceptionsINS_29_AllocatorDestroyRangeReverseINS_9allocatorIN8nlohmann16json_abi_v3_12_010basic_jsonINS_3mapENS_6vectorENS_12basic_stringIcNS_11char_traitsIcEENS2_IcEEEEbxydS2_NS4_14adl_serializerENS7_IhNS2_IhEEEEvEEEENS_16reverse_iteratorIPSG_EEEEEC1B7v160006ESL_, symObjAddr: 0x7BD8, symBinAddr: 0x10000874C, symSize: 0x34 }
  - { offsetInCU: 0x3E48D, offset: 0x3E48D, size: 0x8, addend: 0x0, symName: __ZNSt3__128__exception_guard_exceptionsINS_29_AllocatorDestroyRangeReverseINS_9allocatorIN8nlohmann16json_abi_v3_12_010basic_jsonINS_3mapENS_6vectorENS_12basic_stringIcNS_11char_traitsIcEENS2_IcEEEEbxydS2_NS4_14adl_serializerENS7_IhNS2_IhEEEEvEEEENS_16reverse_iteratorIPSG_EEEEEC2B7v160006ESL_, symObjAddr: 0x7C0C, symBinAddr: 0x100008780, symSize: 0x30 }
  - { offsetInCU: 0x3E4C7, offset: 0x3E4C7, size: 0x8, addend: 0x0, symName: __ZNSt3__129_AllocatorDestroyRangeReverseINS_9allocatorIN8nlohmann16json_abi_v3_12_010basic_jsonINS_3mapENS_6vectorENS_12basic_stringIcNS_11char_traitsIcEENS1_IcEEEEbxydS1_NS3_14adl_serializerENS6_IhNS1_IhEEEEvEEEENS_16reverse_iteratorIPSF_EEEC2B7v160006ERSG_RSJ_SM_, symObjAddr: 0x7C3C, symBinAddr: 0x1000087B0, symSize: 0x38 }
  - { offsetInCU: 0x3E524, offset: 0x3E524, size: 0x8, addend: 0x0, symName: __ZNSt3__119__to_address_helperINS_16reverse_iteratorIPN8nlohmann16json_abi_v3_12_010basic_jsonINS_3mapENS_6vectorENS_12basic_stringIcNS_11char_traitsIcEENS_9allocatorIcEEEEbxydSA_NS3_14adl_serializerENS6_IhNSA_IhEEEEvEEEEvE6__callB7v160006ERKSI_, symObjAddr: 0x7CB0, symBinAddr: 0x100008824, symSize: 0x38 }
  - { offsetInCU: 0x3E548, offset: 0x3E548, size: 0x8, addend: 0x0, symName: __ZNKSt3__116reverse_iteratorIPN8nlohmann16json_abi_v3_12_010basic_jsonINS_3mapENS_6vectorENS_12basic_stringIcNS_11char_traitsIcEENS_9allocatorIcEEEEbxydS9_NS2_14adl_serializerENS5_IhNS9_IhEEEEvEEEptB7v160006Ev, symObjAddr: 0x7CE8, symBinAddr: 0x10000885C, symSize: 0x2C }
  - { offsetInCU: 0x3E56E, offset: 0x3E56E, size: 0x8, addend: 0x0, symName: __ZNSt3__128__exception_guard_exceptionsINS_29_AllocatorDestroyRangeReverseINS_9allocatorIN8nlohmann16json_abi_v3_12_010basic_jsonINS_3mapENS_6vectorENS_12basic_stringIcNS_11char_traitsIcEENS2_IcEEEEbxydS2_NS4_14adl_serializerENS7_IhNS2_IhEEEEvEEEENS_16reverse_iteratorIPSG_EEEEED2B7v160006Ev, symObjAddr: 0x7DF0, symBinAddr: 0x100008964, symSize: 0x50 }
  - { offsetInCU: 0x3E598, offset: 0x3E598, size: 0x8, addend: 0x0, symName: __ZNKSt3__129_AllocatorDestroyRangeReverseINS_9allocatorIN8nlohmann16json_abi_v3_12_010basic_jsonINS_3mapENS_6vectorENS_12basic_stringIcNS_11char_traitsIcEENS1_IcEEEEbxydS1_NS3_14adl_serializerENS6_IhNS1_IhEEEEvEEEENS_16reverse_iteratorIPSF_EEEclB7v160006Ev, symObjAddr: 0x7E40, symBinAddr: 0x1000089B4, symSize: 0xB4 }
  - { offsetInCU: 0x3E5BF, offset: 0x3E5BF, size: 0x8, addend: 0x0, symName: __ZNSt3__116reverse_iteratorINS0_IPN8nlohmann16json_abi_v3_12_010basic_jsonINS_3mapENS_6vectorENS_12basic_stringIcNS_11char_traitsIcEENS_9allocatorIcEEEEbxydS9_NS2_14adl_serializerENS5_IhNS9_IhEEEEvEEEEEC1B7v160006ESH_, symObjAddr: 0x7F64, symBinAddr: 0x100008AD8, symSize: 0x3C }
  - { offsetInCU: 0x3E5F8, offset: 0x3E5F8, size: 0x8, addend: 0x0, symName: __ZNSt3__116allocator_traitsINS_9allocatorIN8nlohmann16json_abi_v3_12_010basic_jsonINS_3mapENS_6vectorENS_12basic_stringIcNS_11char_traitsIcEENS1_IcEEEEbxydS1_NS3_14adl_serializerENS6_IhNS1_IhEEEEvEEEEE7destroyB7v160006ISF_vvEEvRSG_PT_, symObjAddr: 0x8000, symBinAddr: 0x100008B74, symSize: 0x28 }
  - { offsetInCU: 0x3E632, offset: 0x3E632, size: 0x8, addend: 0x0, symName: __ZNSt3__116reverse_iteratorINS0_IPN8nlohmann16json_abi_v3_12_010basic_jsonINS_3mapENS_6vectorENS_12basic_stringIcNS_11char_traitsIcEENS_9allocatorIcEEEEbxydS9_NS2_14adl_serializerENS5_IhNS9_IhEEEEvEEEEEppB7v160006Ev, symObjAddr: 0x804C, symBinAddr: 0x100008BC0, symSize: 0x30 }
  - { offsetInCU: 0x3E658, offset: 0x3E658, size: 0x8, addend: 0x0, symName: __ZNKSt3__116reverse_iteratorINS0_IPN8nlohmann16json_abi_v3_12_010basic_jsonINS_3mapENS_6vectorENS_12basic_stringIcNS_11char_traitsIcEENS_9allocatorIcEEEEbxydS9_NS2_14adl_serializerENS5_IhNS9_IhEEEEvEEEEE4baseB7v160006Ev, symObjAddr: 0x807C, symBinAddr: 0x100008BF0, symSize: 0x24 }
  - { offsetInCU: 0x3E684, offset: 0x3E684, size: 0x8, addend: 0x0, symName: __ZNSt3__119__to_address_helperINS_16reverse_iteratorINS1_IPN8nlohmann16json_abi_v3_12_010basic_jsonINS_3mapENS_6vectorENS_12basic_stringIcNS_11char_traitsIcEENS_9allocatorIcEEEEbxydSA_NS3_14adl_serializerENS6_IhNSA_IhEEEEvEEEEEEvE6__callB7v160006ERKSJ_, symObjAddr: 0x80E8, symBinAddr: 0x100008C5C, symSize: 0x38 }
  - { offsetInCU: 0x3E6A8, offset: 0x3E6A8, size: 0x8, addend: 0x0, symName: __ZNKSt3__116reverse_iteratorINS0_IPN8nlohmann16json_abi_v3_12_010basic_jsonINS_3mapENS_6vectorENS_12basic_stringIcNS_11char_traitsIcEENS_9allocatorIcEEEEbxydS9_NS2_14adl_serializerENS5_IhNS9_IhEEEEvEEEEEptB7v160006Ev, symObjAddr: 0x8120, symBinAddr: 0x100008C94, symSize: 0x4C }
  - { offsetInCU: 0x3E6CE, offset: 0x3E6CE, size: 0x8, addend: 0x0, symName: __ZNSt3__116reverse_iteratorIPN8nlohmann16json_abi_v3_12_010basic_jsonINS_3mapENS_6vectorENS_12basic_stringIcNS_11char_traitsIcEENS_9allocatorIcEEEEbxydS9_NS2_14adl_serializerENS5_IhNS9_IhEEEEvEEEpLB7v160006El, symObjAddr: 0x8248, symBinAddr: 0x100008DBC, symSize: 0x30 }
  - { offsetInCU: 0x3E703, offset: 0x3E703, size: 0x8, addend: 0x0, symName: __ZNSt3__116reverse_iteratorIPN8nlohmann16json_abi_v3_12_010basic_jsonINS_3mapENS_6vectorENS_12basic_stringIcNS_11char_traitsIcEENS_9allocatorIcEEEEbxydS9_NS2_14adl_serializerENS5_IhNS9_IhEEEEvEEEmmB7v160006Ev, symObjAddr: 0x8278, symBinAddr: 0x100008DEC, symSize: 0x20 }
  - { offsetInCU: 0x3E729, offset: 0x3E729, size: 0x8, addend: 0x0, symName: __ZNSt3__116reverse_iteratorINS0_IPN8nlohmann16json_abi_v3_12_010basic_jsonINS_3mapENS_6vectorENS_12basic_stringIcNS_11char_traitsIcEENS_9allocatorIcEEEEbxydS9_NS2_14adl_serializerENS5_IhNS9_IhEEEEvEEEEEC2B7v160006ESH_, symObjAddr: 0x8298, symBinAddr: 0x100008E0C, symSize: 0x2C }
  - { offsetInCU: 0x3E762, offset: 0x3E762, size: 0x8, addend: 0x0, symName: __ZNSt3__116reverse_iteratorIPN8nlohmann16json_abi_v3_12_010basic_jsonINS_3mapENS_6vectorENS_12basic_stringIcNS_11char_traitsIcEENS_9allocatorIcEEEEbxydS9_NS2_14adl_serializerENS5_IhNS9_IhEEEEvEEEC2B7v160006ESG_, symObjAddr: 0x82C4, symBinAddr: 0x100008E38, symSize: 0x28 }
  - { offsetInCU: 0x3E79B, offset: 0x3E79B, size: 0x8, addend: 0x0, symName: __ZNSt3__117__compressed_pairIPN8nlohmann16json_abi_v3_12_010basic_jsonINS_3mapENS_6vectorENS_12basic_stringIcNS_11char_traitsIcEENS_9allocatorIcEEEEbxydS9_NS2_14adl_serializerENS5_IhNS9_IhEEEEvEENS9_ISF_EEE5firstB7v160006Ev, symObjAddr: 0x82EC, symBinAddr: 0x100008E60, symSize: 0x24 }
  - { offsetInCU: 0x3E7C1, offset: 0x3E7C1, size: 0x8, addend: 0x0, symName: __ZNSt3__114__split_bufferIN8nlohmann16json_abi_v3_12_010basic_jsonINS_3mapENS_6vectorENS_12basic_stringIcNS_11char_traitsIcEENS_9allocatorIcEEEEbxydS9_NS2_14adl_serializerENS5_IhNS9_IhEEEEvEERNS9_ISF_EEED2Ev, symObjAddr: 0x8310, symBinAddr: 0x100008E84, symSize: 0x8C }
  - { offsetInCU: 0x3E7ED, offset: 0x3E7ED, size: 0x8, addend: 0x0, symName: __ZNSt3__114__split_bufferIN8nlohmann16json_abi_v3_12_010basic_jsonINS_3mapENS_6vectorENS_12basic_stringIcNS_11char_traitsIcEENS_9allocatorIcEEEEbxydS9_NS2_14adl_serializerENS5_IhNS9_IhEEEEvEERNS9_ISF_EEE5clearB7v160006Ev, symObjAddr: 0x839C, symBinAddr: 0x100008F10, symSize: 0x28 }
  - { offsetInCU: 0x3E813, offset: 0x3E813, size: 0x8, addend: 0x0, symName: __ZNSt3__116allocator_traitsINS_9allocatorIN8nlohmann16json_abi_v3_12_010basic_jsonINS_3mapENS_6vectorENS_12basic_stringIcNS_11char_traitsIcEENS1_IcEEEEbxydS1_NS3_14adl_serializerENS6_IhNS1_IhEEEEvEEEEE10deallocateB7v160006ERSG_PSF_m, symObjAddr: 0x83C4, symBinAddr: 0x100008F38, symSize: 0x34 }
  - { offsetInCU: 0x3E855, offset: 0x3E855, size: 0x8, addend: 0x0, symName: __ZNKSt3__114__split_bufferIN8nlohmann16json_abi_v3_12_010basic_jsonINS_3mapENS_6vectorENS_12basic_stringIcNS_11char_traitsIcEENS_9allocatorIcEEEEbxydS9_NS2_14adl_serializerENS5_IhNS9_IhEEEEvEERNS9_ISF_EEE8capacityB7v160006Ev, symObjAddr: 0x83F8, symBinAddr: 0x100008F6C, symSize: 0x40 }
  - { offsetInCU: 0x3E87B, offset: 0x3E87B, size: 0x8, addend: 0x0, symName: __ZNSt3__114__split_bufferIN8nlohmann16json_abi_v3_12_010basic_jsonINS_3mapENS_6vectorENS_12basic_stringIcNS_11char_traitsIcEENS_9allocatorIcEEEEbxydS9_NS2_14adl_serializerENS5_IhNS9_IhEEEEvEERNS9_ISF_EEE17__destruct_at_endB7v160006EPSF_, symObjAddr: 0x8438, symBinAddr: 0x100008FAC, symSize: 0x2C }
  - { offsetInCU: 0x3E8B0, offset: 0x3E8B0, size: 0x8, addend: 0x0, symName: __ZNSt3__114__split_bufferIN8nlohmann16json_abi_v3_12_010basic_jsonINS_3mapENS_6vectorENS_12basic_stringIcNS_11char_traitsIcEENS_9allocatorIcEEEEbxydS9_NS2_14adl_serializerENS5_IhNS9_IhEEEEvEERNS9_ISF_EEE17__destruct_at_endB7v160006EPSF_NS_17integral_constantIbLb0EEE, symObjAddr: 0x8464, symBinAddr: 0x100008FD8, symSize: 0x80 }
  - { offsetInCU: 0x3E8F2, offset: 0x3E8F2, size: 0x8, addend: 0x0, symName: __ZNSt3__19allocatorIN8nlohmann16json_abi_v3_12_010basic_jsonINS_3mapENS_6vectorENS_12basic_stringIcNS_11char_traitsIcEENS0_IcEEEEbxydS0_NS2_14adl_serializerENS5_IhNS0_IhEEEEvEEE10deallocateB7v160006EPSE_m, symObjAddr: 0x84E4, symBinAddr: 0x100009058, symSize: 0x40 }
  - { offsetInCU: 0x3E936, offset: 0x3E936, size: 0x8, addend: 0x0, symName: __ZNKSt3__114__split_bufferIN8nlohmann16json_abi_v3_12_010basic_jsonINS_3mapENS_6vectorENS_12basic_stringIcNS_11char_traitsIcEENS_9allocatorIcEEEEbxydS9_NS2_14adl_serializerENS5_IhNS9_IhEEEEvEERNS9_ISF_EEE9__end_capB7v160006Ev, symObjAddr: 0x8524, symBinAddr: 0x100009098, symSize: 0x28 }
  - { offsetInCU: 0x3E95C, offset: 0x3E95C, size: 0x8, addend: 0x0, symName: __ZNKSt3__117__compressed_pairIPN8nlohmann16json_abi_v3_12_010basic_jsonINS_3mapENS_6vectorENS_12basic_stringIcNS_11char_traitsIcEENS_9allocatorIcEEEEbxydS9_NS2_14adl_serializerENS5_IhNS9_IhEEEEvEERNS9_ISF_EEE5firstB7v160006Ev, symObjAddr: 0x854C, symBinAddr: 0x1000090C0, symSize: 0x24 }
  - { offsetInCU: 0x3E9AA, offset: 0x3E9AA, size: 0x8, addend: 0x0, symName: __ZNKSt3__111__move_loopINS_17_ClassicAlgPolicyEEclB7v160006IPN8nlohmann16json_abi_v3_12_010basic_jsonINS_3mapENS_6vectorENS_12basic_stringIcNS_11char_traitsIcEENS_9allocatorIcEEEEbxydSC_NS5_14adl_serializerENS8_IhNSC_IhEEEEvEESJ_NS_20back_insert_iteratorINS8_ISI_NSC_ISI_EEEEEEEENS_4pairIT_T1_EESP_T0_SQ_, symObjAddr: 0x875C, symBinAddr: 0x1000092D0, symSize: 0x98 }
  - { offsetInCU: 0x3EA35, offset: 0x3EA35, size: 0x8, addend: 0x0, symName: __ZNSt3__119__unwrap_range_implINS_11__wrap_iterIPN8nlohmann16json_abi_v3_12_010basic_jsonINS_3mapENS_6vectorENS_12basic_stringIcNS_11char_traitsIcEENS_9allocatorIcEEEEbxydSA_NS3_14adl_serializerENS6_IhNSA_IhEEEEvEEEESI_E8__unwrapB7v160006ESI_SI_, symObjAddr: 0x88F0, symBinAddr: 0x100009464, symSize: 0x68 }
  - { offsetInCU: 0x3EA6E, offset: 0x3EA6E, size: 0x8, addend: 0x0, symName: __ZNSt3__14pairIPN8nlohmann16json_abi_v3_12_010basic_jsonINS_3mapENS_6vectorENS_12basic_stringIcNS_11char_traitsIcEENS_9allocatorIcEEEEbxydS9_NS2_14adl_serializerENS5_IhNS9_IhEEEEvEESG_EC1B7v160006ISG_SG_LPv0EEEOT_OT0_, symObjAddr: 0x8984, symBinAddr: 0x1000094F8, symSize: 0x3C }
  - { offsetInCU: 0x3EACE, offset: 0x3EACE, size: 0x8, addend: 0x0, symName: __ZNSt3__118__unwrap_iter_implINS_11__wrap_iterIPN8nlohmann16json_abi_v3_12_010basic_jsonINS_3mapENS_6vectorENS_12basic_stringIcNS_11char_traitsIcEENS_9allocatorIcEEEEbxydSA_NS3_14adl_serializerENS6_IhNSA_IhEEEEvEEEELb1EE8__unwrapB7v160006ESI_, symObjAddr: 0x89C0, symBinAddr: 0x100009534, symSize: 0x28 }
  - { offsetInCU: 0x3EAFE, offset: 0x3EAFE, size: 0x8, addend: 0x0, symName: __ZNSt3__119__to_address_helperINS_11__wrap_iterIPN8nlohmann16json_abi_v3_12_010basic_jsonINS_3mapENS_6vectorENS_12basic_stringIcNS_11char_traitsIcEENS_9allocatorIcEEEEbxydSA_NS3_14adl_serializerENS6_IhNSA_IhEEEEvEEEEvE6__callB7v160006ERKSI_, symObjAddr: 0x8A0C, symBinAddr: 0x100009580, symSize: 0x30 }
  - { offsetInCU: 0x3EB22, offset: 0x3EB22, size: 0x8, addend: 0x0, symName: __ZNSt3__114pointer_traitsINS_11__wrap_iterIPN8nlohmann16json_abi_v3_12_010basic_jsonINS_3mapENS_6vectorENS_12basic_stringIcNS_11char_traitsIcEENS_9allocatorIcEEEEbxydSA_NS3_14adl_serializerENS6_IhNSA_IhEEEEvEEEEE10to_addressB7v160006ESI_, symObjAddr: 0x8A3C, symBinAddr: 0x1000095B0, symSize: 0x2C }
  - { offsetInCU: 0x3EB46, offset: 0x3EB46, size: 0x8, addend: 0x0, symName: __ZNKSt3__111__wrap_iterIPN8nlohmann16json_abi_v3_12_010basic_jsonINS_3mapENS_6vectorENS_12basic_stringIcNS_11char_traitsIcEENS_9allocatorIcEEEEbxydS9_NS2_14adl_serializerENS5_IhNS9_IhEEEEvEEE4baseB7v160006Ev, symObjAddr: 0x8A68, symBinAddr: 0x1000095DC, symSize: 0x18 }
  - { offsetInCU: 0x3EB6C, offset: 0x3EB6C, size: 0x8, addend: 0x0, symName: __ZNSt3__14pairIPN8nlohmann16json_abi_v3_12_010basic_jsonINS_3mapENS_6vectorENS_12basic_stringIcNS_11char_traitsIcEENS_9allocatorIcEEEEbxydS9_NS2_14adl_serializerENS5_IhNS9_IhEEEEvEESG_EC2B7v160006ISG_SG_LPv0EEEOT_OT0_, symObjAddr: 0x8A80, symBinAddr: 0x1000095F4, symSize: 0x34 }
  - { offsetInCU: 0x3EBCC, offset: 0x3EBCC, size: 0x8, addend: 0x0, symName: __ZNSt3__18_IterOpsINS_17_ClassicAlgPolicyEE11__iter_moveB7v160006IRPN8nlohmann16json_abi_v3_12_010basic_jsonINS_3mapENS_6vectorENS_12basic_stringIcNS_11char_traitsIcEENS_9allocatorIcEEEEbxydSC_NS5_14adl_serializerENS8_IhNSC_IhEEEEvEEEENS_9enable_ifIXsr12is_referenceIDTdeclsr3stdE7declvalIRT_EEEEE5valueEDTclsr3stdE4movedeclsr3stdE7declvalISN_EEEEE4typeEOSM_, symObjAddr: 0x8AB4, symBinAddr: 0x100009628, symSize: 0x28 }
  - { offsetInCU: 0x3EBF9, offset: 0x3EBF9, size: 0x8, addend: 0x0, symName: __ZNSt3__120back_insert_iteratorINS_6vectorIN8nlohmann16json_abi_v3_12_010basic_jsonINS_3mapES1_NS_12basic_stringIcNS_11char_traitsIcEENS_9allocatorIcEEEEbxydS9_NS3_14adl_serializerENS1_IhNS9_IhEEEEvEENS9_ISF_EEEEEdeB7v160006Ev, symObjAddr: 0x8ADC, symBinAddr: 0x100009650, symSize: 0x14 }
  - { offsetInCU: 0x3EC1F, offset: 0x3EC1F, size: 0x8, addend: 0x0, symName: __ZNSt3__120back_insert_iteratorINS_6vectorIN8nlohmann16json_abi_v3_12_010basic_jsonINS_3mapES1_NS_12basic_stringIcNS_11char_traitsIcEENS_9allocatorIcEEEEbxydS9_NS3_14adl_serializerENS1_IhNS9_IhEEEEvEENS9_ISF_EEEEEaSB7v160006EOSF_, symObjAddr: 0x8AF0, symBinAddr: 0x100009664, symSize: 0x38 }
  - { offsetInCU: 0x3EC54, offset: 0x3EC54, size: 0x8, addend: 0x0, symName: __ZNSt3__120back_insert_iteratorINS_6vectorIN8nlohmann16json_abi_v3_12_010basic_jsonINS_3mapES1_NS_12basic_stringIcNS_11char_traitsIcEENS_9allocatorIcEEEEbxydS9_NS3_14adl_serializerENS1_IhNS9_IhEEEEvEENS9_ISF_EEEEEppB7v160006Ev, symObjAddr: 0x8B28, symBinAddr: 0x10000969C, symSize: 0x14 }
  - { offsetInCU: 0x3EC7A, offset: 0x3EC7A, size: 0x8, addend: 0x0, symName: __ZNSt3__18_IterOpsINS_17_ClassicAlgPolicyEE25__validate_iter_referenceB7v160006IRPN8nlohmann16json_abi_v3_12_010basic_jsonINS_3mapENS_6vectorENS_12basic_stringIcNS_11char_traitsIcEENS_9allocatorIcEEEEbxydSC_NS5_14adl_serializerENS8_IhNSC_IhEEEEvEEEEvv, symObjAddr: 0x8B74, symBinAddr: 0x1000096E8, symSize: 0x4 }
  - { offsetInCU: 0x3EC9E, offset: 0x3EC9E, size: 0x8, addend: 0x0, symName: __ZNSt3__14pairIPN8nlohmann16json_abi_v3_12_010basic_jsonINS_3mapENS_6vectorENS_12basic_stringIcNS_11char_traitsIcEENS_9allocatorIcEEEEbxydS9_NS2_14adl_serializerENS5_IhNS9_IhEEEEvEENS_20back_insert_iteratorINS5_ISF_NS9_ISF_EEEEEEEC1B7v160006ISG_SK_LPv0EEEOT_OT0_, symObjAddr: 0x8B78, symBinAddr: 0x1000096EC, symSize: 0x3C }
  - { offsetInCU: 0x3ECFE, offset: 0x3ECFE, size: 0x8, addend: 0x0, symName: __ZNSt3__14pairIPN8nlohmann16json_abi_v3_12_010basic_jsonINS_3mapENS_6vectorENS_12basic_stringIcNS_11char_traitsIcEENS_9allocatorIcEEEEbxydS9_NS2_14adl_serializerENS5_IhNS9_IhEEEEvEENS_20back_insert_iteratorINS5_ISF_NS9_ISF_EEEEEEEC2B7v160006ISG_SK_LPv0EEEOT_OT0_, symObjAddr: 0x8BB4, symBinAddr: 0x100009728, symSize: 0x34 }
  - { offsetInCU: 0x3ED5E, offset: 0x3ED5E, size: 0x8, addend: 0x0, symName: __ZNSt3__118__unwrap_iter_implINS_20back_insert_iteratorINS_6vectorIN8nlohmann16json_abi_v3_12_010basic_jsonINS_3mapES2_NS_12basic_stringIcNS_11char_traitsIcEENS_9allocatorIcEEEEbxydSA_NS4_14adl_serializerENS2_IhNSA_IhEEEEvEENSA_ISG_EEEEEELb0EE8__unwrapB7v160006ESJ_, symObjAddr: 0x8BE8, symBinAddr: 0x10000975C, symSize: 0x1C }
  - { offsetInCU: 0x3EDA5, offset: 0x3EDA5, size: 0x8, addend: 0x0, symName: __ZNSt3__14pairINS_11__wrap_iterIPN8nlohmann16json_abi_v3_12_010basic_jsonINS_3mapENS_6vectorENS_12basic_stringIcNS_11char_traitsIcEENS_9allocatorIcEEEEbxydSA_NS3_14adl_serializerENS6_IhNSA_IhEEEEvEEEENS_20back_insert_iteratorINS6_ISG_NSA_ISG_EEEEEEEC1B7v160006ISI_SM_LPv0EEEOT_OT0_, symObjAddr: 0x8C04, symBinAddr: 0x100009778, symSize: 0x3C }
  - { offsetInCU: 0x3EE05, offset: 0x3EE05, size: 0x8, addend: 0x0, symName: __ZNSt3__14pairINS_11__wrap_iterIPN8nlohmann16json_abi_v3_12_010basic_jsonINS_3mapENS_6vectorENS_12basic_stringIcNS_11char_traitsIcEENS_9allocatorIcEEEEbxydSA_NS3_14adl_serializerENS6_IhNSA_IhEEEEvEEEENS_20back_insert_iteratorINS6_ISG_NSA_ISG_EEEEEEEC2B7v160006ISI_SM_LPv0EEEOT_OT0_, symObjAddr: 0x8C40, symBinAddr: 0x1000097B4, symSize: 0x34 }
  - { offsetInCU: 0x3EE65, offset: 0x3EE65, size: 0x8, addend: 0x0, symName: __ZNSt3__119__unwrap_range_implINS_11__wrap_iterIPN8nlohmann16json_abi_v3_12_010basic_jsonINS_3mapENS_6vectorENS_12basic_stringIcNS_11char_traitsIcEENS_9allocatorIcEEEEbxydSA_NS3_14adl_serializerENS6_IhNSA_IhEEEEvEEEESI_E8__rewrapB7v160006ESI_SH_, symObjAddr: 0x8C74, symBinAddr: 0x1000097E8, symSize: 0x3C }
  - { offsetInCU: 0x3EE98, offset: 0x3EE98, size: 0x8, addend: 0x0, symName: __ZNSt3__118__unwrap_iter_implINS_11__wrap_iterIPN8nlohmann16json_abi_v3_12_010basic_jsonINS_3mapENS_6vectorENS_12basic_stringIcNS_11char_traitsIcEENS_9allocatorIcEEEEbxydSA_NS3_14adl_serializerENS6_IhNSA_IhEEEEvEEEELb1EE8__rewrapB7v160006ESI_SH_, symObjAddr: 0x8CFC, symBinAddr: 0x100009870, symSize: 0x5C }
  - { offsetInCU: 0x3EECB, offset: 0x3EECB, size: 0x8, addend: 0x0, symName: __ZNKSt3__111__wrap_iterIPN8nlohmann16json_abi_v3_12_010basic_jsonINS_3mapENS_6vectorENS_12basic_stringIcNS_11char_traitsIcEENS_9allocatorIcEEEEbxydS9_NS2_14adl_serializerENS5_IhNS9_IhEEEEvEEEplB7v160006El, symObjAddr: 0x8D58, symBinAddr: 0x1000098CC, symSize: 0x3C }
  - { offsetInCU: 0x3EF0F, offset: 0x3EF0F, size: 0x8, addend: 0x0, symName: __ZNSt3__111__wrap_iterIPN8nlohmann16json_abi_v3_12_010basic_jsonINS_3mapENS_6vectorENS_12basic_stringIcNS_11char_traitsIcEENS_9allocatorIcEEEEbxydS9_NS2_14adl_serializerENS5_IhNS9_IhEEEEvEEEpLB7v160006El, symObjAddr: 0x8D94, symBinAddr: 0x100009908, symSize: 0x28 }
  - { offsetInCU: 0x3EF44, offset: 0x3EF44, size: 0x8, addend: 0x0, symName: __ZNSt3__118__unwrap_iter_implINS_20back_insert_iteratorINS_6vectorIN8nlohmann16json_abi_v3_12_010basic_jsonINS_3mapES2_NS_12basic_stringIcNS_11char_traitsIcEENS_9allocatorIcEEEEbxydSA_NS4_14adl_serializerENS2_IhNSA_IhEEEEvEENSA_ISG_EEEEEELb0EE8__rewrapB7v160006ESJ_SJ_, symObjAddr: 0x8DBC, symBinAddr: 0x100009930, symSize: 0x20 }
  - { offsetInCU: 0x3EF73, offset: 0x3EF73, size: 0x8, addend: 0x0, symName: __ZNSt3__16vectorIN8nlohmann16json_abi_v3_12_010basic_jsonINS_3mapES0_NS_12basic_stringIcNS_11char_traitsIcEENS_9allocatorIcEEEEbxydS8_NS2_14adl_serializerENS0_IhNS8_IhEEEEvEENS8_ISE_EEE11__make_iterB7v160006EPSE_, symObjAddr: 0x8DDC, symBinAddr: 0x100009950, symSize: 0x34 }
  - { offsetInCU: 0x3EFA8, offset: 0x3EFA8, size: 0x8, addend: 0x0, symName: __ZNSt3__111__wrap_iterIPN8nlohmann16json_abi_v3_12_010basic_jsonINS_3mapENS_6vectorENS_12basic_stringIcNS_11char_traitsIcEENS_9allocatorIcEEEEbxydS9_NS2_14adl_serializerENS5_IhNS9_IhEEEEvEEEC1B7v160006EPKvSG_, symObjAddr: 0x8E10, symBinAddr: 0x100009984, symSize: 0x3C }
  - { offsetInCU: 0x3EFF0, offset: 0x3EFF0, size: 0x8, addend: 0x0, symName: __ZNSt3__111__wrap_iterIPN8nlohmann16json_abi_v3_12_010basic_jsonINS_3mapENS_6vectorENS_12basic_stringIcNS_11char_traitsIcEENS_9allocatorIcEEEEbxydS9_NS2_14adl_serializerENS5_IhNS9_IhEEEEvEEEC2B7v160006EPKvSG_, symObjAddr: 0x8E4C, symBinAddr: 0x1000099C0, symSize: 0x24 }
  - { offsetInCU: 0x3F038, offset: 0x3F038, size: 0x8, addend: 0x0, symName: __ZNSt3__120back_insert_iteratorINS_6vectorIN8nlohmann16json_abi_v3_12_010basic_jsonINS_3mapES1_NS_12basic_stringIcNS_11char_traitsIcEENS_9allocatorIcEEEEbxydS9_NS3_14adl_serializerENS1_IhNS9_IhEEEEvEENS9_ISF_EEEEEC1B7v160006ERSH_, symObjAddr: 0x8E70, symBinAddr: 0x1000099E4, symSize: 0x34 }
  - { offsetInCU: 0x3F071, offset: 0x3F071, size: 0x8, addend: 0x0, symName: __ZNSt3__120back_insert_iteratorINS_6vectorIN8nlohmann16json_abi_v3_12_010basic_jsonINS_3mapES1_NS_12basic_stringIcNS_11char_traitsIcEENS_9allocatorIcEEEEbxydS9_NS3_14adl_serializerENS1_IhNS9_IhEEEEvEENS9_ISF_EEEEEC2B7v160006ERSH_, symObjAddr: 0x8EA4, symBinAddr: 0x100009A18, symSize: 0x20 }
  - { offsetInCU: 0x3F0AA, offset: 0x3F0AA, size: 0x8, addend: 0x0, symName: __ZNKSt3__16__treeINS_12__value_typeINS_12basic_stringIcNS_11char_traitsIcEENS_9allocatorIcEEEEN8nlohmann16json_abi_v3_12_010basic_jsonINS_3mapENS_6vectorES7_bxydS5_NS9_14adl_serializerENSC_IhNS5_IhEEEEvEEEENS_19__map_value_compareIS7_SH_NS_4lessIvEELb1EEENS5_ISH_EEE4sizeB7v160006Ev, symObjAddr: 0x8EC4, symBinAddr: 0x100009A38, symSize: 0x28 }
  - { offsetInCU: 0x3F0D0, offset: 0x3F0D0, size: 0x8, addend: 0x0, symName: __ZNKSt3__117__compressed_pairImNS_19__map_value_compareINS_12basic_stringIcNS_11char_traitsIcEENS_9allocatorIcEEEENS_12__value_typeIS7_N8nlohmann16json_abi_v3_12_010basic_jsonINS_3mapENS_6vectorES7_bxydS5_NSA_14adl_serializerENSD_IhNS5_IhEEEEvEEEENS_4lessIvEELb1EEEE5firstB7v160006Ev, symObjAddr: 0x8EEC, symBinAddr: 0x100009A60, symSize: 0x24 }
  - { offsetInCU: 0x3F0F6, offset: 0x3F0F6, size: 0x8, addend: 0x0, symName: __ZNKSt3__122__compressed_pair_elemImLi0ELb0EE5__getB7v160006Ev, symObjAddr: 0x8F10, symBinAddr: 0x100009A84, symSize: 0x14 }
  - { offsetInCU: 0x3F11C, offset: 0x3F11C, size: 0x8, addend: 0x0, symName: __ZNSt3__16__treeINS_12__value_typeINS_12basic_stringIcNS_11char_traitsIcEENS_9allocatorIcEEEEN8nlohmann16json_abi_v3_12_010basic_jsonINS_3mapENS_6vectorES7_bxydS5_NS9_14adl_serializerENSC_IhNS5_IhEEEEvEEEENS_19__map_value_compareIS7_SH_NS_4lessIvEELb1EEENS5_ISH_EEE5beginB7v160006Ev, symObjAddr: 0x8F24, symBinAddr: 0x100009A98, symSize: 0x34 }
  - { offsetInCU: 0x3F142, offset: 0x3F142, size: 0x8, addend: 0x0, symName: __ZNSt3__114__map_iteratorINS_15__tree_iteratorINS_12__value_typeINS_12basic_stringIcNS_11char_traitsIcEENS_9allocatorIcEEEEN8nlohmann16json_abi_v3_12_010basic_jsonINS_3mapENS_6vectorES8_bxydS6_NSA_14adl_serializerENSD_IhNS6_IhEEEEvEEEEPNS_11__tree_nodeISI_PvEElEEEC1B7v160006ESN_, symObjAddr: 0x8F58, symBinAddr: 0x100009ACC, symSize: 0x34 }
  - { offsetInCU: 0x3F17B, offset: 0x3F17B, size: 0x8, addend: 0x0, symName: __ZNSt3__115__tree_iteratorINS_12__value_typeINS_12basic_stringIcNS_11char_traitsIcEENS_9allocatorIcEEEEN8nlohmann16json_abi_v3_12_010basic_jsonINS_3mapENS_6vectorES7_bxydS5_NS9_14adl_serializerENSC_IhNS5_IhEEEEvEEEEPNS_11__tree_nodeISH_PvEElEC1B7v160006EPNS_15__tree_end_nodeIPNS_16__tree_node_baseISJ_EEEE, symObjAddr: 0x8F8C, symBinAddr: 0x100009B00, symSize: 0x34 }
  - { offsetInCU: 0x3F1B4, offset: 0x3F1B4, size: 0x8, addend: 0x0, symName: __ZNSt3__115__tree_iteratorINS_12__value_typeINS_12basic_stringIcNS_11char_traitsIcEENS_9allocatorIcEEEEN8nlohmann16json_abi_v3_12_010basic_jsonINS_3mapENS_6vectorES7_bxydS5_NS9_14adl_serializerENSC_IhNS5_IhEEEEvEEEEPNS_11__tree_nodeISH_PvEElEC2B7v160006EPNS_15__tree_end_nodeIPNS_16__tree_node_baseISJ_EEEE, symObjAddr: 0x8FC0, symBinAddr: 0x100009B34, symSize: 0x20 }
  - { offsetInCU: 0x3F1ED, offset: 0x3F1ED, size: 0x8, addend: 0x0, symName: __ZNSt3__114__map_iteratorINS_15__tree_iteratorINS_12__value_typeINS_12basic_stringIcNS_11char_traitsIcEENS_9allocatorIcEEEEN8nlohmann16json_abi_v3_12_010basic_jsonINS_3mapENS_6vectorES8_bxydS6_NSA_14adl_serializerENSD_IhNS6_IhEEEEvEEEEPNS_11__tree_nodeISI_PvEElEEEC2B7v160006ESN_, symObjAddr: 0x8FE0, symBinAddr: 0x100009B54, symSize: 0x20 }
  - { offsetInCU: 0x3F226, offset: 0x3F226, size: 0x8, addend: 0x0, symName: __ZNSt3__16__treeINS_12__value_typeINS_12basic_stringIcNS_11char_traitsIcEENS_9allocatorIcEEEEN8nlohmann16json_abi_v3_12_010basic_jsonINS_3mapENS_6vectorES7_bxydS5_NS9_14adl_serializerENSC_IhNS5_IhEEEEvEEEENS_19__map_value_compareIS7_SH_NS_4lessIvEELb1EEENS5_ISH_EEE3endB7v160006Ev, symObjAddr: 0x9000, symBinAddr: 0x100009B74, symSize: 0x34 }
  - { offsetInCU: 0x3F24C, offset: 0x3F24C, size: 0x8, addend: 0x0, symName: __ZNKSt3__115__tree_iteratorINS_12__value_typeINS_12basic_stringIcNS_11char_traitsIcEENS_9allocatorIcEEEEN8nlohmann16json_abi_v3_12_010basic_jsonINS_3mapENS_6vectorES7_bxydS5_NS9_14adl_serializerENSC_IhNS5_IhEEEEvEEEEPNS_11__tree_nodeISH_PvEElEptB7v160006Ev, symObjAddr: 0x9098, symBinAddr: 0x100009C0C, symSize: 0x2C }
  - { offsetInCU: 0x3F272, offset: 0x3F272, size: 0x8, addend: 0x0, symName: __ZNSt3__112__value_typeINS_12basic_stringIcNS_11char_traitsIcEENS_9allocatorIcEEEEN8nlohmann16json_abi_v3_12_010basic_jsonINS_3mapENS_6vectorES6_bxydS4_NS8_14adl_serializerENSB_IhNS4_IhEEEEvEEE11__get_valueB7v160006Ev, symObjAddr: 0x90C4, symBinAddr: 0x100009C38, symSize: 0x24 }
  - { offsetInCU: 0x3F298, offset: 0x3F298, size: 0x8, addend: 0x0, symName: __ZNSt3__114pointer_traitsIPNS_12__value_typeINS_12basic_stringIcNS_11char_traitsIcEENS_9allocatorIcEEEEN8nlohmann16json_abi_v3_12_010basic_jsonINS_3mapENS_6vectorES7_bxydS5_NS9_14adl_serializerENSC_IhNS5_IhEEEEvEEEEE10pointer_toB7v160006ERSH_, symObjAddr: 0x90E8, symBinAddr: 0x100009C5C, symSize: 0x14 }
  - { offsetInCU: 0x3F2BC, offset: 0x3F2BC, size: 0x8, addend: 0x0, symName: __ZNKSt3__115__tree_iteratorINS_12__value_typeINS_12basic_stringIcNS_11char_traitsIcEENS_9allocatorIcEEEEN8nlohmann16json_abi_v3_12_010basic_jsonINS_3mapENS_6vectorES7_bxydS5_NS9_14adl_serializerENSC_IhNS5_IhEEEEvEEEEPNS_11__tree_nodeISH_PvEElE8__get_npB7v160006Ev, symObjAddr: 0x90FC, symBinAddr: 0x100009C70, symSize: 0x18 }
  - { offsetInCU: 0x3F2E2, offset: 0x3F2E2, size: 0x8, addend: 0x0, symName: __ZNSt3__16vectorIN8nlohmann16json_abi_v3_12_010basic_jsonINS_3mapES0_NS_12basic_stringIcNS_11char_traitsIcEENS_9allocatorIcEEEEbxydS8_NS2_14adl_serializerENS0_IhNS8_IhEEEEvEENS8_ISE_EEE22__construct_one_at_endB7v160006IJSE_EEEvDpOT_, symObjAddr: 0x914C, symBinAddr: 0x100009CC0, symSize: 0x90 }
  - { offsetInCU: 0x3F331, offset: 0x3F331, size: 0x8, addend: 0x0, symName: __ZNSt3__16vectorIN8nlohmann16json_abi_v3_12_010basic_jsonINS_3mapES0_NS_12basic_stringIcNS_11char_traitsIcEENS_9allocatorIcEEEEbxydS8_NS2_14adl_serializerENS0_IhNS8_IhEEEEvEENS8_ISE_EEE21__push_back_slow_pathISE_EEvOT_, symObjAddr: 0x91DC, symBinAddr: 0x100009D50, symSize: 0xD8 }
  - { offsetInCU: 0x3F3AB, offset: 0x3F3AB, size: 0x8, addend: 0x0, symName: __ZNSt3__16vectorIN8nlohmann16json_abi_v3_12_010basic_jsonINS_3mapES0_NS_12basic_stringIcNS_11char_traitsIcEENS_9allocatorIcEEEEbxydS8_NS2_14adl_serializerENS0_IhNS8_IhEEEEvEENS8_ISE_EEE21_ConstructTransactionC1B7v160006ERSG_m, symObjAddr: 0x92B4, symBinAddr: 0x100009E28, symSize: 0x3C }
  - { offsetInCU: 0x3F3F3, offset: 0x3F3F3, size: 0x8, addend: 0x0, symName: __ZNSt3__16vectorIN8nlohmann16json_abi_v3_12_010basic_jsonINS_3mapES0_NS_12basic_stringIcNS_11char_traitsIcEENS_9allocatorIcEEEEbxydS8_NS2_14adl_serializerENS0_IhNS8_IhEEEEvEENS8_ISE_EEE21_ConstructTransactionD1B7v160006Ev, symObjAddr: 0x92F0, symBinAddr: 0x100009E64, symSize: 0x2C }
  - { offsetInCU: 0x3F41D, offset: 0x3F41D, size: 0x8, addend: 0x0, symName: __ZNSt3__16vectorIN8nlohmann16json_abi_v3_12_010basic_jsonINS_3mapES0_NS_12basic_stringIcNS_11char_traitsIcEENS_9allocatorIcEEEEbxydS8_NS2_14adl_serializerENS0_IhNS8_IhEEEEvEENS8_ISE_EEE21_ConstructTransactionC2B7v160006ERSG_m, symObjAddr: 0x931C, symBinAddr: 0x100009E90, symSize: 0x44 }
  - { offsetInCU: 0x3F465, offset: 0x3F465, size: 0x8, addend: 0x0, symName: __ZNSt3__16vectorIN8nlohmann16json_abi_v3_12_010basic_jsonINS_3mapES0_NS_12basic_stringIcNS_11char_traitsIcEENS_9allocatorIcEEEEbxydS8_NS2_14adl_serializerENS0_IhNS8_IhEEEEvEENS8_ISE_EEE21_ConstructTransactionD2B7v160006Ev, symObjAddr: 0x9360, symBinAddr: 0x100009ED4, symSize: 0x20 }
  - { offsetInCU: 0x3F48F, offset: 0x3F48F, size: 0x8, addend: 0x0, symName: __ZNKSt3__16vectorIN8nlohmann16json_abi_v3_12_010basic_jsonINS_3mapES0_NS_12basic_stringIcNS_11char_traitsIcEENS_9allocatorIcEEEEbxydS8_NS2_14adl_serializerENS0_IhNS8_IhEEEEvEENS8_ISE_EEE11__recommendB7v160006Em, symObjAddr: 0x9380, symBinAddr: 0x100009EF4, symSize: 0xB4 }
  - { offsetInCU: 0x3F4E4, offset: 0x3F4E4, size: 0x8, addend: 0x0, symName: __ZNSt3__115__tree_iteratorINS_12__value_typeINS_12basic_stringIcNS_11char_traitsIcEENS_9allocatorIcEEEEN8nlohmann16json_abi_v3_12_010basic_jsonINS_3mapENS_6vectorES7_bxydS5_NS9_14adl_serializerENSC_IhNS5_IhEEEEvEEEEPNS_11__tree_nodeISH_PvEElEppB7v160006Ev, symObjAddr: 0x94B4, symBinAddr: 0x10000A028, symSize: 0x38 }
  - { offsetInCU: 0x3F50A, offset: 0x3F50A, size: 0x8, addend: 0x0, symName: __ZNKSt3__116__tree_node_baseIPvE15__parent_unsafeB7v160006Ev, symObjAddr: 0x95E8, symBinAddr: 0x10000A15C, symSize: 0x18 }
  - { offsetInCU: 0x3F530, offset: 0x3F530, size: 0x8, addend: 0x0, symName: __ZN8nlohmann16json_abi_v3_12_010basic_jsonINSt3__13mapENS2_6vectorENS2_12basic_stringIcNS2_11char_traitsIcEENS2_9allocatorIcEEEEbxydS8_NS0_14adl_serializerENS4_IhNS8_IhEEEEvEC2EOSE_, symObjAddr: 0x9600, symBinAddr: 0x10000A174, symSize: 0x80 }
  - { offsetInCU: 0x3F569, offset: 0x3F569, size: 0x8, addend: 0x0, symName: __ZNSt3__16vectorIN8nlohmann16json_abi_v3_12_010basic_jsonINS_3mapES0_NS_12basic_stringIcNS_11char_traitsIcEENS_9allocatorIcEEEEbxydS8_NS2_14adl_serializerENS0_IhNS8_IhEEEEvEENS8_ISE_EEE17__destruct_at_endB7v160006EPSE_, symObjAddr: 0x9680, symBinAddr: 0x10000A1F4, symSize: 0x60 }
  - { offsetInCU: 0x3F5AD, offset: 0x3F5AD, size: 0x8, addend: 0x0, symName: __ZNSt3__16vectorIN8nlohmann16json_abi_v3_12_010basic_jsonINS_3mapES0_NS_12basic_stringIcNS_11char_traitsIcEENS_9allocatorIcEEEEbxydS8_NS2_14adl_serializerENS0_IhNS8_IhEEEEvEENS8_ISE_EEE27__invalidate_iterators_pastB7v160006EPSE_, symObjAddr: 0x96E0, symBinAddr: 0x10000A254, symSize: 0x14 }
  - { offsetInCU: 0x3F5E4, offset: 0x3F5E4, size: 0x8, addend: 0x0, symName: __ZNSt3__16vectorIN8nlohmann16json_abi_v3_12_010basic_jsonINS_3mapES0_NS_12basic_stringIcNS_11char_traitsIcEENS_9allocatorIcEEEEbxydS8_NS2_14adl_serializerENS0_IhNS8_IhEEEEvEENS8_ISE_EEE22__base_destruct_at_endB7v160006EPSE_, symObjAddr: 0x96F4, symBinAddr: 0x10000A268, symSize: 0x8C }
  - { offsetInCU: 0x3F628, offset: 0x3F628, size: 0x8, addend: 0x0, symName: __ZNKSt3__16vectorIN8nlohmann16json_abi_v3_12_010basic_jsonINS_3mapES0_NS_12basic_stringIcNS_11char_traitsIcEENS_9allocatorIcEEEEbxydS8_NS2_14adl_serializerENS0_IhNS8_IhEEEEvEENS8_ISE_EEE17__annotate_shrinkB7v160006Em, symObjAddr: 0x9780, symBinAddr: 0x10000A2F4, symSize: 0xB4 }
  - { offsetInCU: 0x3F65D, offset: 0x3F65D, size: 0x8, addend: 0x0, symName: __ZNSt3__16vectorIN8nlohmann16json_abi_v3_12_010basic_jsonINS_3mapES0_NS_12basic_stringIcNS_11char_traitsIcEENS_9allocatorIcEEEEbxydS8_NS2_14adl_serializerENS0_IhNS8_IhEEEEvEENS8_ISE_EEE7__clearB7v160006Ev, symObjAddr: 0x9834, symBinAddr: 0x10000A3A8, symSize: 0x28 }
  - { offsetInCU: 0x3F683, offset: 0x3F683, size: 0x8, addend: 0x0, symName: __ZNSt3__16__treeINS_12__value_typeINS_12basic_stringIcNS_11char_traitsIcEENS_9allocatorIcEEEEN8nlohmann16json_abi_v3_12_010basic_jsonINS_3mapENS_6vectorES7_bxydS5_NS9_14adl_serializerENSC_IhNS5_IhEEEEvEEEENS_19__map_value_compareIS7_SH_NS_4lessIvEELb1EEENS5_ISH_EEE5clearEv, symObjAddr: 0x985C, symBinAddr: 0x10000A3D0, symSize: 0x74 }
  - { offsetInCU: 0x3F6AB, offset: 0x3F6AB, size: 0x8, addend: 0x0, symName: __ZNSt3__16__treeINS_12__value_typeINS_12basic_stringIcNS_11char_traitsIcEENS_9allocatorIcEEEEN8nlohmann16json_abi_v3_12_010basic_jsonINS_3mapENS_6vectorES7_bxydS5_NS9_14adl_serializerENSC_IhNS5_IhEEEEvEEEENS_19__map_value_compareIS7_SH_NS_4lessIvEELb1EEENS5_ISH_EEE7destroyEPNS_11__tree_nodeISH_PvEE, symObjAddr: 0x98D0, symBinAddr: 0x10000A444, symSize: 0xAC }
  - { offsetInCU: 0x3F6F8, offset: 0x3F6F8, size: 0x8, addend: 0x0, symName: __ZNKSt3__16__treeINS_12__value_typeINS_12basic_stringIcNS_11char_traitsIcEENS_9allocatorIcEEEEN8nlohmann16json_abi_v3_12_010basic_jsonINS_3mapENS_6vectorES7_bxydS5_NS9_14adl_serializerENSC_IhNS5_IhEEEEvEEEENS_19__map_value_compareIS7_SH_NS_4lessIvEELb1EEENS5_ISH_EEE6__rootB7v160006Ev, symObjAddr: 0x997C, symBinAddr: 0x10000A4F0, symSize: 0x28 }
  - { offsetInCU: 0x3F71E, offset: 0x3F71E, size: 0x8, addend: 0x0, symName: __ZNSt3__16__treeINS_12__value_typeINS_12basic_stringIcNS_11char_traitsIcEENS_9allocatorIcEEEEN8nlohmann16json_abi_v3_12_010basic_jsonINS_3mapENS_6vectorES7_bxydS5_NS9_14adl_serializerENSC_IhNS5_IhEEEEvEEEENS_19__map_value_compareIS7_SH_NS_4lessIvEELb1EEENS5_ISH_EEE4sizeB7v160006Ev, symObjAddr: 0x99A4, symBinAddr: 0x10000A518, symSize: 0x28 }
  - { offsetInCU: 0x3F744, offset: 0x3F744, size: 0x8, addend: 0x0, symName: __ZNSt3__16__treeINS_12__value_typeINS_12basic_stringIcNS_11char_traitsIcEENS_9allocatorIcEEEEN8nlohmann16json_abi_v3_12_010basic_jsonINS_3mapENS_6vectorES7_bxydS5_NS9_14adl_serializerENSC_IhNS5_IhEEEEvEEEENS_19__map_value_compareIS7_SH_NS_4lessIvEELb1EEENS5_ISH_EEE12__node_allocB7v160006Ev, symObjAddr: 0x99CC, symBinAddr: 0x10000A540, symSize: 0x28 }
  - { offsetInCU: 0x3F76A, offset: 0x3F76A, size: 0x8, addend: 0x0, symName: __ZNSt3__116allocator_traitsINS_9allocatorINS_11__tree_nodeINS_12__value_typeINS_12basic_stringIcNS_11char_traitsIcEENS1_IcEEEEN8nlohmann16json_abi_v3_12_010basic_jsonINS_3mapENS_6vectorES8_bxydS1_NSA_14adl_serializerENSD_IhNS1_IhEEEEvEEEEPvEEEEE7destroyB7v160006INS_4pairIKS8_SH_EEvvEEvRSL_PT_, symObjAddr: 0x99F4, symBinAddr: 0x10000A568, symSize: 0x28 }
  - { offsetInCU: 0x3F7A4, offset: 0x3F7A4, size: 0x8, addend: 0x0, symName: __ZNSt3__122__tree_key_value_typesINS_12__value_typeINS_12basic_stringIcNS_11char_traitsIcEENS_9allocatorIcEEEEN8nlohmann16json_abi_v3_12_010basic_jsonINS_3mapENS_6vectorES7_bxydS5_NS9_14adl_serializerENSC_IhNS5_IhEEEEvEEEEE9__get_ptrB7v160006ERSH_, symObjAddr: 0x9A1C, symBinAddr: 0x10000A590, symSize: 0x24 }
  - { offsetInCU: 0x3F7C8, offset: 0x3F7C8, size: 0x8, addend: 0x0, symName: __ZNSt3__116allocator_traitsINS_9allocatorINS_11__tree_nodeINS_12__value_typeINS_12basic_stringIcNS_11char_traitsIcEENS1_IcEEEEN8nlohmann16json_abi_v3_12_010basic_jsonINS_3mapENS_6vectorES8_bxydS1_NSA_14adl_serializerENSD_IhNS1_IhEEEEvEEEEPvEEEEE10deallocateB7v160006ERSL_PSK_m, symObjAddr: 0x9A40, symBinAddr: 0x10000A5B4, symSize: 0x34 }
  - { offsetInCU: 0x3F80A, offset: 0x3F80A, size: 0x8, addend: 0x0, symName: __ZNSt3__117__compressed_pairINS_15__tree_end_nodeIPNS_16__tree_node_baseIPvEEEENS_9allocatorINS_11__tree_nodeINS_12__value_typeINS_12basic_stringIcNS_11char_traitsIcEENS7_IcEEEEN8nlohmann16json_abi_v3_12_010basic_jsonINS_3mapENS_6vectorESE_bxydS7_NSG_14adl_serializerENSJ_IhNS7_IhEEEEvEEEES3_EEEEE6secondB7v160006Ev, symObjAddr: 0x9A74, symBinAddr: 0x10000A5E8, symSize: 0x24 }
  - { offsetInCU: 0x3F830, offset: 0x3F830, size: 0x8, addend: 0x0, symName: __ZNSt3__122__compressed_pair_elemINS_9allocatorINS_11__tree_nodeINS_12__value_typeINS_12basic_stringIcNS_11char_traitsIcEENS1_IcEEEEN8nlohmann16json_abi_v3_12_010basic_jsonINS_3mapENS_6vectorES8_bxydS1_NSA_14adl_serializerENSD_IhNS1_IhEEEEvEEEEPvEEEELi1ELb1EE5__getB7v160006Ev, symObjAddr: 0x9A98, symBinAddr: 0x10000A60C, symSize: 0x14 }
  - { offsetInCU: 0x3F856, offset: 0x3F856, size: 0x8, addend: 0x0, symName: __ZNSt3__14pairIKNS_12basic_stringIcNS_11char_traitsIcEENS_9allocatorIcEEEEN8nlohmann16json_abi_v3_12_010basic_jsonINS_3mapENS_6vectorES6_bxydS4_NS9_14adl_serializerENSC_IhNS4_IhEEEEvEEED1Ev, symObjAddr: 0x9AF4, symBinAddr: 0x10000A668, symSize: 0x2C }
  - { offsetInCU: 0x3F882, offset: 0x3F882, size: 0x8, addend: 0x0, symName: __ZNSt3__14pairIKNS_12basic_stringIcNS_11char_traitsIcEENS_9allocatorIcEEEEN8nlohmann16json_abi_v3_12_010basic_jsonINS_3mapENS_6vectorES6_bxydS4_NS9_14adl_serializerENSC_IhNS4_IhEEEEvEEED2Ev, symObjAddr: 0x9B20, symBinAddr: 0x10000A694, symSize: 0x38 }
  - { offsetInCU: 0x3F8AE, offset: 0x3F8AE, size: 0x8, addend: 0x0, symName: __ZNSt3__19allocatorINS_11__tree_nodeINS_12__value_typeINS_12basic_stringIcNS_11char_traitsIcEENS0_IcEEEEN8nlohmann16json_abi_v3_12_010basic_jsonINS_3mapENS_6vectorES7_bxydS0_NS9_14adl_serializerENSC_IhNS0_IhEEEEvEEEEPvEEE10deallocateB7v160006EPSJ_m, symObjAddr: 0x9B58, symBinAddr: 0x10000A6CC, symSize: 0x44 }
  - { offsetInCU: 0x3F8F2, offset: 0x3F8F2, size: 0x8, addend: 0x0, symName: __ZNKSt3__16__treeINS_12__value_typeINS_12basic_stringIcNS_11char_traitsIcEENS_9allocatorIcEEEEN8nlohmann16json_abi_v3_12_010basic_jsonINS_3mapENS_6vectorES7_bxydS5_NS9_14adl_serializerENSC_IhNS5_IhEEEEvEEEENS_19__map_value_compareIS7_SH_NS_4lessIvEELb1EEENS5_ISH_EEE10__end_nodeB7v160006Ev, symObjAddr: 0x9B9C, symBinAddr: 0x10000A710, symSize: 0x2C }
  - { offsetInCU: 0x3F918, offset: 0x3F918, size: 0x8, addend: 0x0, symName: __ZNKSt3__117__compressed_pairINS_15__tree_end_nodeIPNS_16__tree_node_baseIPvEEEENS_9allocatorINS_11__tree_nodeINS_12__value_typeINS_12basic_stringIcNS_11char_traitsIcEENS7_IcEEEEN8nlohmann16json_abi_v3_12_010basic_jsonINS_3mapENS_6vectorESE_bxydS7_NSG_14adl_serializerENSJ_IhNS7_IhEEEEvEEEES3_EEEEE5firstB7v160006Ev, symObjAddr: 0x9BC8, symBinAddr: 0x10000A73C, symSize: 0x24 }
  - { offsetInCU: 0x3F93E, offset: 0x3F93E, size: 0x8, addend: 0x0, symName: __ZNKSt3__122__compressed_pair_elemINS_15__tree_end_nodeIPNS_16__tree_node_baseIPvEEEELi0ELb0EE5__getB7v160006Ev, symObjAddr: 0x9BEC, symBinAddr: 0x10000A760, symSize: 0x14 }
  - { offsetInCU: 0x3F964, offset: 0x3F964, size: 0x8, addend: 0x0, symName: __ZNSt3__117__compressed_pairImNS_19__map_value_compareINS_12basic_stringIcNS_11char_traitsIcEENS_9allocatorIcEEEENS_12__value_typeIS7_N8nlohmann16json_abi_v3_12_010basic_jsonINS_3mapENS_6vectorES7_bxydS5_NSA_14adl_serializerENSD_IhNS5_IhEEEEvEEEENS_4lessIvEELb1EEEE5firstB7v160006Ev, symObjAddr: 0x9C00, symBinAddr: 0x10000A774, symSize: 0x24 }
  - { offsetInCU: 0x3F98A, offset: 0x3F98A, size: 0x8, addend: 0x0, symName: __ZNSt3__122__compressed_pair_elemImLi0ELb0EE5__getB7v160006Ev, symObjAddr: 0x9C24, symBinAddr: 0x10000A798, symSize: 0x14 }
  - { offsetInCU: 0x3F9B0, offset: 0x3F9B0, size: 0x8, addend: 0x0, symName: __ZNSt3__16vectorIN8nlohmann16json_abi_v3_12_010basic_jsonINS_3mapES0_NS_12basic_stringIcNS_11char_traitsIcEENS_9allocatorIcEEEEbxydS8_NS2_14adl_serializerENS0_IhNS8_IhEEEEvEENS8_ISE_EEED2B7v160006Ev, symObjAddr: 0x9C38, symBinAddr: 0x10000A7AC, symSize: 0x44 }
  - { offsetInCU: 0x3F9DA, offset: 0x3F9DA, size: 0x8, addend: 0x0, symName: __ZNSt3__16vectorIN8nlohmann16json_abi_v3_12_010basic_jsonINS_3mapES0_NS_12basic_stringIcNS_11char_traitsIcEENS_9allocatorIcEEEEbxydS8_NS2_14adl_serializerENS0_IhNS8_IhEEEEvEENS8_ISE_EEE16__destroy_vectorC1ERSG_, symObjAddr: 0x9C7C, symBinAddr: 0x10000A7F0, symSize: 0x34 }
  - { offsetInCU: 0x3FA13, offset: 0x3FA13, size: 0x8, addend: 0x0, symName: __ZNSt3__16vectorIN8nlohmann16json_abi_v3_12_010basic_jsonINS_3mapES0_NS_12basic_stringIcNS_11char_traitsIcEENS_9allocatorIcEEEEbxydS8_NS2_14adl_serializerENS0_IhNS8_IhEEEEvEENS8_ISE_EEE16__destroy_vectorclB7v160006Ev, symObjAddr: 0x9CB0, symBinAddr: 0x10000A824, symSize: 0x9C }
  - { offsetInCU: 0x3FA39, offset: 0x3FA39, size: 0x8, addend: 0x0, symName: __ZNSt3__16vectorIN8nlohmann16json_abi_v3_12_010basic_jsonINS_3mapES0_NS_12basic_stringIcNS_11char_traitsIcEENS_9allocatorIcEEEEbxydS8_NS2_14adl_serializerENS0_IhNS8_IhEEEEvEENS8_ISE_EEE16__destroy_vectorC2ERSG_, symObjAddr: 0x9D4C, symBinAddr: 0x10000A8C0, symSize: 0x20 }
  - { offsetInCU: 0x3FA72, offset: 0x3FA72, size: 0x8, addend: 0x0, symName: __ZNSt3__13mapINS_12basic_stringIcNS_11char_traitsIcEENS_9allocatorIcEEEEN8nlohmann16json_abi_v3_12_010basic_jsonIS0_NS_6vectorES6_bxydS4_NS8_14adl_serializerENSA_IhNS4_IhEEEEvEENS_4lessIvEENS4_INS_4pairIKS6_SE_EEEEED1B7v160006Ev, symObjAddr: 0x9DC4, symBinAddr: 0x10000A938, symSize: 0x2C }
  - { offsetInCU: 0x3FA9C, offset: 0x3FA9C, size: 0x8, addend: 0x0, symName: __ZNSt3__13mapINS_12basic_stringIcNS_11char_traitsIcEENS_9allocatorIcEEEEN8nlohmann16json_abi_v3_12_010basic_jsonIS0_NS_6vectorES6_bxydS4_NS8_14adl_serializerENSA_IhNS4_IhEEEEvEENS_4lessIvEENS4_INS_4pairIKS6_SE_EEEEED2B7v160006Ev, symObjAddr: 0x9DF0, symBinAddr: 0x10000A964, symSize: 0x2C }
  - { offsetInCU: 0x3FAC6, offset: 0x3FAC6, size: 0x8, addend: 0x0, symName: __ZNSt3__16__treeINS_12__value_typeINS_12basic_stringIcNS_11char_traitsIcEENS_9allocatorIcEEEEN8nlohmann16json_abi_v3_12_010basic_jsonINS_3mapENS_6vectorES7_bxydS5_NS9_14adl_serializerENSC_IhNS5_IhEEEEvEEEENS_19__map_value_compareIS7_SH_NS_4lessIvEELb1EEENS5_ISH_EEED1Ev, symObjAddr: 0x9E1C, symBinAddr: 0x10000A990, symSize: 0x2C }
  - { offsetInCU: 0x3FAF2, offset: 0x3FAF2, size: 0x8, addend: 0x0, symName: __ZNSt3__16__treeINS_12__value_typeINS_12basic_stringIcNS_11char_traitsIcEENS_9allocatorIcEEEEN8nlohmann16json_abi_v3_12_010basic_jsonINS_3mapENS_6vectorES7_bxydS5_NS9_14adl_serializerENSC_IhNS5_IhEEEEvEEEENS_19__map_value_compareIS7_SH_NS_4lessIvEELb1EEENS5_ISH_EEED2Ev, symObjAddr: 0x9E48, symBinAddr: 0x10000A9BC, symSize: 0x38 }
  - { offsetInCU: 0x3FB1E, offset: 0x3FB1E, size: 0x8, addend: 0x0, symName: __ZN8nlohmann16json_abi_v3_12_027byte_container_with_subtypeINSt3__16vectorIhNS2_9allocatorIhEEEEED1Ev, symObjAddr: 0x9F58, symBinAddr: 0x10000AACC, symSize: 0x2C }
  - { offsetInCU: 0x3FB4B, offset: 0x3FB4B, size: 0x8, addend: 0x0, symName: __ZN8nlohmann16json_abi_v3_12_027byte_container_with_subtypeINSt3__16vectorIhNS2_9allocatorIhEEEEED2Ev, symObjAddr: 0x9F84, symBinAddr: 0x10000AAF8, symSize: 0x2C }
  - { offsetInCU: 0x3FB78, offset: 0x3FB78, size: 0x8, addend: 0x0, symName: __ZNSt3__16vectorIhNS_9allocatorIhEEED2B7v160006Ev, symObjAddr: 0x9FB0, symBinAddr: 0x10000AB24, symSize: 0x44 }
  - { offsetInCU: 0x3FBA2, offset: 0x3FBA2, size: 0x8, addend: 0x0, symName: __ZNSt3__16vectorIhNS_9allocatorIhEEE16__destroy_vectorC1ERS3_, symObjAddr: 0x9FF4, symBinAddr: 0x10000AB68, symSize: 0x34 }
  - { offsetInCU: 0x3FBDB, offset: 0x3FBDB, size: 0x8, addend: 0x0, symName: __ZNSt3__16vectorIhNS_9allocatorIhEEE16__destroy_vectorclB7v160006Ev, symObjAddr: 0xA028, symBinAddr: 0x10000AB9C, symSize: 0x9C }
  - { offsetInCU: 0x3FC01, offset: 0x3FC01, size: 0x8, addend: 0x0, symName: __ZNSt3__16vectorIhNS_9allocatorIhEEE16__destroy_vectorC2ERS3_, symObjAddr: 0xA0C4, symBinAddr: 0x10000AC38, symSize: 0x20 }
  - { offsetInCU: 0x3FC3A, offset: 0x3FC3A, size: 0x8, addend: 0x0, symName: __ZNKSt3__16vectorIhNS_9allocatorIhEEE17__annotate_deleteB7v160006Ev, symObjAddr: 0xA0E4, symBinAddr: 0x10000AC58, symSize: 0xB8 }
  - { offsetInCU: 0x3FC60, offset: 0x3FC60, size: 0x8, addend: 0x0, symName: __ZNSt3__16vectorIhNS_9allocatorIhEEE7__clearB7v160006Ev, symObjAddr: 0xA1AC, symBinAddr: 0x10000AD20, symSize: 0x28 }
  - { offsetInCU: 0x3FC86, offset: 0x3FC86, size: 0x8, addend: 0x0, symName: __ZNSt3__116allocator_traitsINS_9allocatorIhEEE10deallocateB7v160006ERS2_Phm, symObjAddr: 0xA1D4, symBinAddr: 0x10000AD48, symSize: 0x34 }
  - { offsetInCU: 0x3FCC8, offset: 0x3FCC8, size: 0x8, addend: 0x0, symName: __ZNSt3__16vectorIhNS_9allocatorIhEEE7__allocB7v160006Ev, symObjAddr: 0xA208, symBinAddr: 0x10000AD7C, symSize: 0x28 }
  - { offsetInCU: 0x3FCEE, offset: 0x3FCEE, size: 0x8, addend: 0x0, symName: __ZNKSt3__16vectorIhNS_9allocatorIhEEE8capacityB7v160006Ev, symObjAddr: 0xA230, symBinAddr: 0x10000ADA4, symSize: 0x38 }
  - { offsetInCU: 0x3FD14, offset: 0x3FD14, size: 0x8, addend: 0x0, symName: __ZNKSt3__16vectorIhNS_9allocatorIhEEE31__annotate_contiguous_containerB7v160006EPKvS5_S5_S5_, symObjAddr: 0xA268, symBinAddr: 0x10000ADDC, symSize: 0x20 }
  - { offsetInCU: 0x3FD66, offset: 0x3FD66, size: 0x8, addend: 0x0, symName: __ZNKSt3__16vectorIhNS_9allocatorIhEEE4dataB7v160006Ev, symObjAddr: 0xA288, symBinAddr: 0x10000ADFC, symSize: 0x28 }
  - { offsetInCU: 0x3FD8C, offset: 0x3FD8C, size: 0x8, addend: 0x0, symName: __ZNKSt3__16vectorIhNS_9allocatorIhEEE4sizeB7v160006Ev, symObjAddr: 0xA2B0, symBinAddr: 0x10000AE24, symSize: 0x20 }
  - { offsetInCU: 0x3FDB2, offset: 0x3FDB2, size: 0x8, addend: 0x0, symName: __ZNSt3__16vectorIhNS_9allocatorIhEEE22__base_destruct_at_endB7v160006EPh, symObjAddr: 0xA2E4, symBinAddr: 0x10000AE58, symSize: 0x8C }
  - { offsetInCU: 0x3FDF6, offset: 0x3FDF6, size: 0x8, addend: 0x0, symName: __ZNSt3__116allocator_traitsINS_9allocatorIhEEE7destroyB7v160006IhvvEEvRS2_PT_, symObjAddr: 0xA370, symBinAddr: 0x10000AEE4, symSize: 0x28 }
  - { offsetInCU: 0x3FE30, offset: 0x3FE30, size: 0x8, addend: 0x0, symName: __ZNSt3__19allocatorIhE10deallocateB7v160006EPhm, symObjAddr: 0xA3CC, symBinAddr: 0x10000AF40, symSize: 0x40 }
  - { offsetInCU: 0x3FE74, offset: 0x3FE74, size: 0x8, addend: 0x0, symName: __ZNSt3__117__compressed_pairIPhNS_9allocatorIhEEE6secondB7v160006Ev, symObjAddr: 0xA40C, symBinAddr: 0x10000AF80, symSize: 0x24 }
  - { offsetInCU: 0x3FE9A, offset: 0x3FE9A, size: 0x8, addend: 0x0, symName: __ZNSt3__122__compressed_pair_elemINS_9allocatorIhEELi1ELb1EE5__getB7v160006Ev, symObjAddr: 0xA430, symBinAddr: 0x10000AFA4, symSize: 0x14 }
  - { offsetInCU: 0x3FEC0, offset: 0x3FEC0, size: 0x8, addend: 0x0, symName: __ZNKSt3__16vectorIhNS_9allocatorIhEEE9__end_capB7v160006Ev, symObjAddr: 0xA444, symBinAddr: 0x10000AFB8, symSize: 0x28 }
  - { offsetInCU: 0x3FEE6, offset: 0x3FEE6, size: 0x8, addend: 0x0, symName: __ZNKSt3__117__compressed_pairIPhNS_9allocatorIhEEE5firstB7v160006Ev, symObjAddr: 0xA46C, symBinAddr: 0x10000AFE0, symSize: 0x24 }
  - { offsetInCU: 0x3FF0C, offset: 0x3FF0C, size: 0x8, addend: 0x0, symName: __ZNKSt3__122__compressed_pair_elemIPhLi0ELb0EE5__getB7v160006Ev, symObjAddr: 0xA490, symBinAddr: 0x10000B004, symSize: 0x14 }
  - { offsetInCU: 0x3FF32, offset: 0x3FF32, size: 0x8, addend: 0x0, symName: __ZN8nlohmann16json_abi_v3_12_010basic_jsonINSt3__13mapENS2_6vectorENS2_12basic_stringIcNS2_11char_traitsIcEENS2_9allocatorIcEEEEbxydS8_NS0_14adl_serializerENS4_IhNS8_IhEEEEvE10json_valueC2Ex, symObjAddr: 0xA4A4, symBinAddr: 0x10000B018, symSize: 0x20 }
  - { offsetInCU: 0x3FF6B, offset: 0x3FF6B, size: 0x8, addend: 0x0, symName: __ZN8nlohmann16json_abi_v3_12_010basic_jsonINSt3__13mapENS2_6vectorENS2_12basic_stringIcNS2_11char_traitsIcEENS2_9allocatorIcEEEEbxydS8_NS0_14adl_serializerENS4_IhNS8_IhEEEEvEixESA_, symObjAddr: 0xA4C4, symBinAddr: 0x10000B038, symSize: 0x194 }
  - { offsetInCU: 0x3FFBE, offset: 0x3FFBE, size: 0x8, addend: 0x0, symName: __ZNK8nlohmann16json_abi_v3_12_010basic_jsonINSt3__13mapENS2_6vectorENS2_12basic_stringIcNS2_11char_traitsIcEENS2_9allocatorIcEEEEbxydS8_NS0_14adl_serializerENS4_IhNS8_IhEEEEvE7is_nullEv, symObjAddr: 0xA658, symBinAddr: 0x10000B1CC, symSize: 0x24 }
  - { offsetInCU: 0x3FFEA, offset: 0x3FFEA, size: 0x8, addend: 0x0, symName: __ZNSt3__13mapINS_12basic_stringIcNS_11char_traitsIcEENS_9allocatorIcEEEEN8nlohmann16json_abi_v3_12_010basic_jsonIS0_NS_6vectorES6_bxydS4_NS8_14adl_serializerENSA_IhNS4_IhEEEEvEENS_4lessIvEENS4_INS_4pairIKS6_SE_EEEEE7emplaceB7v160006IJS6_DnEEENSH_INS_14__map_iteratorINS_15__tree_iteratorINS_12__value_typeIS6_SE_EEPNS_11__tree_nodeISQ_PvEElEEEEbEEDpOT_, symObjAddr: 0xA67C, symBinAddr: 0x10000B1F0, symSize: 0x54 }
  - { offsetInCU: 0x4003E, offset: 0x4003E, size: 0x8, addend: 0x0, symName: __ZN8nlohmann16json_abi_v3_12_010basic_jsonINSt3__13mapENS2_6vectorENS2_12basic_stringIcNS2_11char_traitsIcEENS2_9allocatorIcEEEEbxydS8_NS0_14adl_serializerENS4_IhNS8_IhEEEEvE10set_parentERSE_m, symObjAddr: 0xA6D0, symBinAddr: 0x10000B244, symSize: 0x1C }
  - { offsetInCU: 0x40082, offset: 0x40082, size: 0x8, addend: 0x0, symName: __ZNKSt3__114__map_iteratorINS_15__tree_iteratorINS_12__value_typeINS_12basic_stringIcNS_11char_traitsIcEENS_9allocatorIcEEEEN8nlohmann16json_abi_v3_12_010basic_jsonINS_3mapENS_6vectorES8_bxydS6_NSA_14adl_serializerENSD_IhNS6_IhEEEEvEEEEPNS_11__tree_nodeISI_PvEElEEEptB7v160006Ev, symObjAddr: 0xA6EC, symBinAddr: 0x10000B260, symSize: 0x2C }
  - { offsetInCU: 0x400AE, offset: 0x400AE, size: 0x8, addend: 0x0, symName: __ZN8nlohmann16json_abi_v3_12_06detail10type_error6createIPNS0_10basic_jsonINSt3__13mapENS5_6vectorENS5_12basic_stringIcNS5_11char_traitsIcEENS5_9allocatorIcEEEEbxydSB_NS0_14adl_serializerENS7_IhNSB_IhEEEEvEELi0EEES2_iRKSD_T_, symObjAddr: 0xA72C, symBinAddr: 0x10000B2A0, symSize: 0x130 }
  - { offsetInCU: 0x4010E, offset: 0x4010E, size: 0x8, addend: 0x0, symName: __ZNK8nlohmann16json_abi_v3_12_010basic_jsonINSt3__13mapENS2_6vectorENS2_12basic_stringIcNS2_11char_traitsIcEENS2_9allocatorIcEEEEbxydS8_NS0_14adl_serializerENS4_IhNS8_IhEEEEvE9type_nameEv, symObjAddr: 0xA928, symBinAddr: 0x10000B49C, symSize: 0xD8 }
  - { offsetInCU: 0x40134, offset: 0x40134, size: 0x8, addend: 0x0, symName: __ZN8nlohmann16json_abi_v3_12_06detail10type_errorD1Ev, symObjAddr: 0xAA28, symBinAddr: 0x10000B59C, symSize: 0x2C }
  - { offsetInCU: 0x40161, offset: 0x40161, size: 0x8, addend: 0x0, symName: __ZNSt3__16__treeINS_12__value_typeINS_12basic_stringIcNS_11char_traitsIcEENS_9allocatorIcEEEEN8nlohmann16json_abi_v3_12_010basic_jsonINS_3mapENS_6vectorES7_bxydS5_NS9_14adl_serializerENSC_IhNS5_IhEEEEvEEEENS_19__map_value_compareIS7_SH_NS_4lessIvEELb1EEENS5_ISH_EEE16__emplace_uniqueB7v160006IS7_DnEENS_9enable_ifIXsr21__can_extract_map_keyIT_S7_NS_4pairIKS7_SG_EEEE5valueENSR_INS_15__tree_iteratorISH_PNS_11__tree_nodeISH_PvEElEEbEEE4typeEOSQ_OT0_, symObjAddr: 0xAA54, symBinAddr: 0x10000B5C8, symSize: 0x48 }
  - { offsetInCU: 0x401B7, offset: 0x401B7, size: 0x8, addend: 0x0, symName: __ZNSt3__14pairINS_14__map_iteratorINS_15__tree_iteratorINS_12__value_typeINS_12basic_stringIcNS_11char_traitsIcEENS_9allocatorIcEEEEN8nlohmann16json_abi_v3_12_010basic_jsonINS_3mapENS_6vectorES9_bxydS7_NSB_14adl_serializerENSE_IhNS7_IhEEEEvEEEEPNS_11__tree_nodeISJ_PvEElEEEEbEC1B7v160006ISO_bLSL_0EEEONS0_IT_T0_EE, symObjAddr: 0xAA9C, symBinAddr: 0x10000B610, symSize: 0x34 }
  - { offsetInCU: 0x40208, offset: 0x40208, size: 0x8, addend: 0x0, symName: __ZNSt3__16__treeINS_12__value_typeINS_12basic_stringIcNS_11char_traitsIcEENS_9allocatorIcEEEEN8nlohmann16json_abi_v3_12_010basic_jsonINS_3mapENS_6vectorES7_bxydS5_NS9_14adl_serializerENSC_IhNS5_IhEEEEvEEEENS_19__map_value_compareIS7_SH_NS_4lessIvEELb1EEENS5_ISH_EEE25__emplace_unique_key_argsIS7_JS7_DnEEENS_4pairINS_15__tree_iteratorISH_PNS_11__tree_nodeISH_PvEElEEbEERKT_DpOT0_, symObjAddr: 0xAAD0, symBinAddr: 0x10000B644, symSize: 0xF8 }
  - { offsetInCU: 0x402CA, offset: 0x402CA, size: 0x8, addend: 0x0, symName: __ZNSt3__16__treeINS_12__value_typeINS_12basic_stringIcNS_11char_traitsIcEENS_9allocatorIcEEEEN8nlohmann16json_abi_v3_12_010basic_jsonINS_3mapENS_6vectorES7_bxydS5_NS9_14adl_serializerENSC_IhNS5_IhEEEEvEEEENS_19__map_value_compareIS7_SH_NS_4lessIvEELb1EEENS5_ISH_EEE12__find_equalIS7_EERPNS_16__tree_node_baseIPvEERPNS_15__tree_end_nodeISS_EERKT_, symObjAddr: 0xABC8, symBinAddr: 0x10000B73C, symSize: 0x184 }
  - { offsetInCU: 0x40337, offset: 0x40337, size: 0x8, addend: 0x0, symName: __ZNSt3__16__treeINS_12__value_typeINS_12basic_stringIcNS_11char_traitsIcEENS_9allocatorIcEEEEN8nlohmann16json_abi_v3_12_010basic_jsonINS_3mapENS_6vectorES7_bxydS5_NS9_14adl_serializerENSC_IhNS5_IhEEEEvEEEENS_19__map_value_compareIS7_SH_NS_4lessIvEELb1EEENS5_ISH_EEE16__construct_nodeIJS7_DnEEENS_10unique_ptrINS_11__tree_nodeISH_PvEENS_22__tree_node_destructorINS5_ISS_EEEEEEDpOT_, symObjAddr: 0xAD4C, symBinAddr: 0x10000B8C0, symSize: 0x110 }
  - { offsetInCU: 0x403AC, offset: 0x403AC, size: 0x8, addend: 0x0, symName: __ZNSt3__16__treeINS_12__value_typeINS_12basic_stringIcNS_11char_traitsIcEENS_9allocatorIcEEEEN8nlohmann16json_abi_v3_12_010basic_jsonINS_3mapENS_6vectorES7_bxydS5_NS9_14adl_serializerENSC_IhNS5_IhEEEEvEEEENS_19__map_value_compareIS7_SH_NS_4lessIvEELb1EEENS5_ISH_EEE16__insert_node_atEPNS_15__tree_end_nodeIPNS_16__tree_node_baseIPvEEEERSS_SS_, symObjAddr: 0xAE5C, symBinAddr: 0x10000B9D0, symSize: 0xCC }
  - { offsetInCU: 0x40401, offset: 0x40401, size: 0x8, addend: 0x0, symName: __ZNKSt3__110unique_ptrINS_11__tree_nodeINS_12__value_typeINS_12basic_stringIcNS_11char_traitsIcEENS_9allocatorIcEEEEN8nlohmann16json_abi_v3_12_010basic_jsonINS_3mapENS_6vectorES8_bxydS6_NSA_14adl_serializerENSD_IhNS6_IhEEEEvEEEEPvEENS_22__tree_node_destructorINS6_ISK_EEEEE3getB7v160006Ev, symObjAddr: 0xAF28, symBinAddr: 0x10000BA9C, symSize: 0x28 }
  - { offsetInCU: 0x40427, offset: 0x40427, size: 0x8, addend: 0x0, symName: __ZNSt3__110unique_ptrINS_11__tree_nodeINS_12__value_typeINS_12basic_stringIcNS_11char_traitsIcEENS_9allocatorIcEEEEN8nlohmann16json_abi_v3_12_010basic_jsonINS_3mapENS_6vectorES8_bxydS6_NSA_14adl_serializerENSD_IhNS6_IhEEEEvEEEEPvEENS_22__tree_node_destructorINS6_ISK_EEEEE7releaseB7v160006Ev, symObjAddr: 0xAF50, symBinAddr: 0x10000BAC4, symSize: 0x44 }
  - { offsetInCU: 0x4045C, offset: 0x4045C, size: 0x8, addend: 0x0, symName: __ZNSt3__110unique_ptrINS_11__tree_nodeINS_12__value_typeINS_12basic_stringIcNS_11char_traitsIcEENS_9allocatorIcEEEEN8nlohmann16json_abi_v3_12_010basic_jsonINS_3mapENS_6vectorES8_bxydS6_NSA_14adl_serializerENSD_IhNS6_IhEEEEvEEEEPvEENS_22__tree_node_destructorINS6_ISK_EEEEED1B7v160006Ev, symObjAddr: 0xAF94, symBinAddr: 0x10000BB08, symSize: 0x2C }
  - { offsetInCU: 0x40486, offset: 0x40486, size: 0x8, addend: 0x0, symName: __ZNSt3__115__tree_iteratorINS_12__value_typeINS_12basic_stringIcNS_11char_traitsIcEENS_9allocatorIcEEEEN8nlohmann16json_abi_v3_12_010basic_jsonINS_3mapENS_6vectorES7_bxydS5_NS9_14adl_serializerENSC_IhNS5_IhEEEEvEEEEPNS_11__tree_nodeISH_PvEElEC1B7v160006ESL_, symObjAddr: 0xAFC0, symBinAddr: 0x10000BB34, symSize: 0x34 }
  - { offsetInCU: 0x404C5, offset: 0x404C5, size: 0x8, addend: 0x0, symName: __ZNSt3__14pairINS_15__tree_iteratorINS_12__value_typeINS_12basic_stringIcNS_11char_traitsIcEENS_9allocatorIcEEEEN8nlohmann16json_abi_v3_12_010basic_jsonINS_3mapENS_6vectorES8_bxydS6_NSA_14adl_serializerENSD_IhNS6_IhEEEEvEEEEPNS_11__tree_nodeISI_PvEElEEbEC1B7v160006ISN_RbLSK_0EEEOT_OT0_, symObjAddr: 0xAFF4, symBinAddr: 0x10000BB68, symSize: 0x3C }
  - { offsetInCU: 0x40525, offset: 0x40525, size: 0x8, addend: 0x0, symName: __ZNKSt3__16__treeINS_12__value_typeINS_12basic_stringIcNS_11char_traitsIcEENS_9allocatorIcEEEEN8nlohmann16json_abi_v3_12_010basic_jsonINS_3mapENS_6vectorES7_bxydS5_NS9_14adl_serializerENSC_IhNS5_IhEEEEvEEEENS_19__map_value_compareIS7_SH_NS_4lessIvEELb1EEENS5_ISH_EEE10__root_ptrEv, symObjAddr: 0xB030, symBinAddr: 0x10000BBA4, symSize: 0x24 }
  - { offsetInCU: 0x4054B, offset: 0x4054B, size: 0x8, addend: 0x0, symName: __ZNSt3__16__treeINS_12__value_typeINS_12basic_stringIcNS_11char_traitsIcEENS_9allocatorIcEEEEN8nlohmann16json_abi_v3_12_010basic_jsonINS_3mapENS_6vectorES7_bxydS5_NS9_14adl_serializerENSC_IhNS5_IhEEEEvEEEENS_19__map_value_compareIS7_SH_NS_4lessIvEELb1EEENS5_ISH_EEE10value_compB7v160006Ev, symObjAddr: 0xB054, symBinAddr: 0x10000BBC8, symSize: 0x28 }
  - { offsetInCU: 0x40571, offset: 0x40571, size: 0x8, addend: 0x0, symName: __ZNKSt3__119__map_value_compareINS_12basic_stringIcNS_11char_traitsIcEENS_9allocatorIcEEEENS_12__value_typeIS6_N8nlohmann16json_abi_v3_12_010basic_jsonINS_3mapENS_6vectorES6_bxydS4_NS9_14adl_serializerENSC_IhNS4_IhEEEEvEEEENS_4lessIvEELb1EEclB7v160006ERKS6_RKSH_, symObjAddr: 0xB07C, symBinAddr: 0x10000BBF0, symSize: 0x50 }
  - { offsetInCU: 0x405B5, offset: 0x405B5, size: 0x8, addend: 0x0, symName: __ZNKSt3__119__map_value_compareINS_12basic_stringIcNS_11char_traitsIcEENS_9allocatorIcEEEENS_12__value_typeIS6_N8nlohmann16json_abi_v3_12_010basic_jsonINS_3mapENS_6vectorES6_bxydS4_NS9_14adl_serializerENSC_IhNS4_IhEEEEvEEEENS_4lessIvEELb1EEclB7v160006ERKSH_RKS6_, symObjAddr: 0xB0CC, symBinAddr: 0x10000BC40, symSize: 0x48 }
  - { offsetInCU: 0x405F9, offset: 0x405F9, size: 0x8, addend: 0x0, symName: __ZNSt3__117__compressed_pairImNS_19__map_value_compareINS_12basic_stringIcNS_11char_traitsIcEENS_9allocatorIcEEEENS_12__value_typeIS7_N8nlohmann16json_abi_v3_12_010basic_jsonINS_3mapENS_6vectorES7_bxydS5_NSA_14adl_serializerENSD_IhNS5_IhEEEEvEEEENS_4lessIvEELb1EEEE6secondB7v160006Ev, symObjAddr: 0xB114, symBinAddr: 0x10000BC88, symSize: 0x24 }
  - { offsetInCU: 0x4061F, offset: 0x4061F, size: 0x8, addend: 0x0, symName: __ZNSt3__122__compressed_pair_elemINS_19__map_value_compareINS_12basic_stringIcNS_11char_traitsIcEENS_9allocatorIcEEEENS_12__value_typeIS7_N8nlohmann16json_abi_v3_12_010basic_jsonINS_3mapENS_6vectorES7_bxydS5_NSA_14adl_serializerENSD_IhNS5_IhEEEEvEEEENS_4lessIvEELb1EEELi1ELb1EE5__getB7v160006Ev, symObjAddr: 0xB138, symBinAddr: 0x10000BCAC, symSize: 0x14 }
  - { offsetInCU: 0x4064B, offset: 0x4064B, size: 0x8, addend: 0x0, symName: __ZNKSt3__14lessIvEclB7v160006IRKNS_12basic_stringIcNS_11char_traitsIcEENS_9allocatorIcEEEESA_EEDTltclsr3stdE7forwardIT_Efp_Eclsr3stdE7forwardIT0_Efp0_EEOSB_OSC_, symObjAddr: 0xB14C, symBinAddr: 0x10000BCC0, symSize: 0x50 }
  - { offsetInCU: 0x406A1, offset: 0x406A1, size: 0x8, addend: 0x0, symName: __ZNKSt3__112__value_typeINS_12basic_stringIcNS_11char_traitsIcEENS_9allocatorIcEEEEN8nlohmann16json_abi_v3_12_010basic_jsonINS_3mapENS_6vectorES6_bxydS4_NS8_14adl_serializerENSB_IhNS4_IhEEEEvEEE11__get_valueB7v160006Ev, symObjAddr: 0xB19C, symBinAddr: 0x10000BD10, symSize: 0x24 }
  - { offsetInCU: 0x406D7, offset: 0x406D7, size: 0x8, addend: 0x0, symName: __ZNSt3__120_CmpUnspecifiedParamC1B7v160006EMS0_i, symObjAddr: 0xB240, symBinAddr: 0x10000BDB4, symSize: 0x34 }
  - { offsetInCU: 0x4070C, offset: 0x4070C, size: 0x8, addend: 0x0, symName: __ZNSt3__120_CmpUnspecifiedParamC2B7v160006EMS0_i, symObjAddr: 0xB2F0, symBinAddr: 0x10000BE64, symSize: 0x18 }
  - { offsetInCU: 0x40741, offset: 0x40741, size: 0x8, addend: 0x0, symName: __ZNSt3__116allocator_traitsINS_9allocatorINS_11__tree_nodeINS_12__value_typeINS_12basic_stringIcNS_11char_traitsIcEENS1_IcEEEEN8nlohmann16json_abi_v3_12_010basic_jsonINS_3mapENS_6vectorES8_bxydS1_NSA_14adl_serializerENSD_IhNS1_IhEEEEvEEEEPvEEEEE8allocateB7v160006ERSL_m, symObjAddr: 0xB340, symBinAddr: 0x10000BEB4, symSize: 0x2C }
  - { offsetInCU: 0x40774, offset: 0x40774, size: 0x8, addend: 0x0, symName: __ZNSt3__122__tree_node_destructorINS_9allocatorINS_11__tree_nodeINS_12__value_typeINS_12basic_stringIcNS_11char_traitsIcEENS1_IcEEEEN8nlohmann16json_abi_v3_12_010basic_jsonINS_3mapENS_6vectorES8_bxydS1_NSA_14adl_serializerENSD_IhNS1_IhEEEEvEEEEPvEEEEEC1B7v160006ERSL_b, symObjAddr: 0xB36C, symBinAddr: 0x10000BEE0, symSize: 0x48 }
  - { offsetInCU: 0x407C2, offset: 0x407C2, size: 0x8, addend: 0x0, symName: __ZNSt3__110unique_ptrINS_11__tree_nodeINS_12__value_typeINS_12basic_stringIcNS_11char_traitsIcEENS_9allocatorIcEEEEN8nlohmann16json_abi_v3_12_010basic_jsonINS_3mapENS_6vectorES8_bxydS6_NSA_14adl_serializerENSD_IhNS6_IhEEEEvEEEEPvEENS_22__tree_node_destructorINS6_ISK_EEEEEC1B7v160006ILb1EvEEPSK_NS_16__dependent_typeINS_27__unique_ptr_deleter_sfinaeISN_EEXT_EE20__good_rval_ref_typeE, symObjAddr: 0xB3B4, symBinAddr: 0x10000BF28, symSize: 0x3C }
  - { offsetInCU: 0x40815, offset: 0x40815, size: 0x8, addend: 0x0, symName: __ZNSt3__116allocator_traitsINS_9allocatorINS_11__tree_nodeINS_12__value_typeINS_12basic_stringIcNS_11char_traitsIcEENS1_IcEEEEN8nlohmann16json_abi_v3_12_010basic_jsonINS_3mapENS_6vectorES8_bxydS1_NSA_14adl_serializerENSD_IhNS1_IhEEEEvEEEEPvEEEEE9constructB7v160006INS_4pairIKS8_SH_EEJS8_DnEvvEEvRSL_PT_DpOT0_, symObjAddr: 0xB3F0, symBinAddr: 0x10000BF64, symSize: 0x38 }
  - { offsetInCU: 0x4087D, offset: 0x4087D, size: 0x8, addend: 0x0, symName: __ZNKSt3__110unique_ptrINS_11__tree_nodeINS_12__value_typeINS_12basic_stringIcNS_11char_traitsIcEENS_9allocatorIcEEEEN8nlohmann16json_abi_v3_12_010basic_jsonINS_3mapENS_6vectorES8_bxydS6_NSA_14adl_serializerENSD_IhNS6_IhEEEEvEEEEPvEENS_22__tree_node_destructorINS6_ISK_EEEEEptB7v160006Ev, symObjAddr: 0xB428, symBinAddr: 0x10000BF9C, symSize: 0x28 }
  - { offsetInCU: 0x408A3, offset: 0x408A3, size: 0x8, addend: 0x0, symName: __ZNSt3__110unique_ptrINS_11__tree_nodeINS_12__value_typeINS_12basic_stringIcNS_11char_traitsIcEENS_9allocatorIcEEEEN8nlohmann16json_abi_v3_12_010basic_jsonINS_3mapENS_6vectorES8_bxydS6_NSA_14adl_serializerENSD_IhNS6_IhEEEEvEEEEPvEENS_22__tree_node_destructorINS6_ISK_EEEEE11get_deleterB7v160006Ev, symObjAddr: 0xB450, symBinAddr: 0x10000BFC4, symSize: 0x24 }
  - { offsetInCU: 0x408C9, offset: 0x408C9, size: 0x8, addend: 0x0, symName: __ZNSt3__19allocatorINS_11__tree_nodeINS_12__value_typeINS_12basic_stringIcNS_11char_traitsIcEENS0_IcEEEEN8nlohmann16json_abi_v3_12_010basic_jsonINS_3mapENS_6vectorES7_bxydS0_NS9_14adl_serializerENSC_IhNS0_IhEEEEvEEEEPvEEE8allocateB7v160006Em, symObjAddr: 0xB474, symBinAddr: 0x10000BFE8, symSize: 0x5C }
  - { offsetInCU: 0x40909, offset: 0x40909, size: 0x8, addend: 0x0, symName: __ZNSt3__116allocator_traitsINS_9allocatorINS_11__tree_nodeINS_12__value_typeINS_12basic_stringIcNS_11char_traitsIcEENS1_IcEEEEN8nlohmann16json_abi_v3_12_010basic_jsonINS_3mapENS_6vectorES8_bxydS1_NSA_14adl_serializerENSD_IhNS1_IhEEEEvEEEEPvEEEEE8max_sizeB7v160006ISL_vvEEmRKSL_, symObjAddr: 0xB4D0, symBinAddr: 0x10000C044, symSize: 0x28 }
  - { offsetInCU: 0x40934, offset: 0x40934, size: 0x8, addend: 0x0, symName: __ZNSt3__122__tree_node_destructorINS_9allocatorINS_11__tree_nodeINS_12__value_typeINS_12basic_stringIcNS_11char_traitsIcEENS1_IcEEEEN8nlohmann16json_abi_v3_12_010basic_jsonINS_3mapENS_6vectorES8_bxydS1_NSA_14adl_serializerENSD_IhNS1_IhEEEEvEEEEPvEEEEEC2B7v160006ERSL_b, symObjAddr: 0xB4F8, symBinAddr: 0x10000C06C, symSize: 0x38 }
  - { offsetInCU: 0x4097C, offset: 0x4097C, size: 0x8, addend: 0x0, symName: __ZNSt3__110unique_ptrINS_11__tree_nodeINS_12__value_typeINS_12basic_stringIcNS_11char_traitsIcEENS_9allocatorIcEEEEN8nlohmann16json_abi_v3_12_010basic_jsonINS_3mapENS_6vectorES8_bxydS6_NSA_14adl_serializerENSD_IhNS6_IhEEEEvEEEEPvEENS_22__tree_node_destructorINS6_ISK_EEEEEC2B7v160006ILb1EvEEPSK_NS_16__dependent_typeINS_27__unique_ptr_deleter_sfinaeISN_EEXT_EE20__good_rval_ref_typeE, symObjAddr: 0xB530, symBinAddr: 0x10000C0A4, symSize: 0x48 }
  - { offsetInCU: 0x409CF, offset: 0x409CF, size: 0x8, addend: 0x0, symName: __ZNSt3__117__compressed_pairIPNS_11__tree_nodeINS_12__value_typeINS_12basic_stringIcNS_11char_traitsIcEENS_9allocatorIcEEEEN8nlohmann16json_abi_v3_12_010basic_jsonINS_3mapENS_6vectorES8_bxydS6_NSA_14adl_serializerENSD_IhNS6_IhEEEEvEEEEPvEENS_22__tree_node_destructorINS6_ISK_EEEEEC1B7v160006IRSL_SO_EEOT_OT0_, symObjAddr: 0xB578, symBinAddr: 0x10000C0EC, symSize: 0x3C }
  - { offsetInCU: 0x40A29, offset: 0x40A29, size: 0x8, addend: 0x0, symName: __ZNSt3__117__compressed_pairIPNS_11__tree_nodeINS_12__value_typeINS_12basic_stringIcNS_11char_traitsIcEENS_9allocatorIcEEEEN8nlohmann16json_abi_v3_12_010basic_jsonINS_3mapENS_6vectorES8_bxydS6_NSA_14adl_serializerENSD_IhNS6_IhEEEEvEEEEPvEENS_22__tree_node_destructorINS6_ISK_EEEEEC2B7v160006IRSL_SO_EEOT_OT0_, symObjAddr: 0xB5B4, symBinAddr: 0x10000C128, symSize: 0x48 }
  - { offsetInCU: 0x40A83, offset: 0x40A83, size: 0x8, addend: 0x0, symName: __ZNSt3__122__compressed_pair_elemIPNS_11__tree_nodeINS_12__value_typeINS_12basic_stringIcNS_11char_traitsIcEENS_9allocatorIcEEEEN8nlohmann16json_abi_v3_12_010basic_jsonINS_3mapENS_6vectorES8_bxydS6_NSA_14adl_serializerENSD_IhNS6_IhEEEEvEEEEPvEELi0ELb0EEC2B7v160006IRSL_vEEOT_, symObjAddr: 0xB5FC, symBinAddr: 0x10000C170, symSize: 0x24 }
  - { offsetInCU: 0x40AC6, offset: 0x40AC6, size: 0x8, addend: 0x0, symName: __ZNSt3__122__compressed_pair_elemINS_22__tree_node_destructorINS_9allocatorINS_11__tree_nodeINS_12__value_typeINS_12basic_stringIcNS_11char_traitsIcEENS2_IcEEEEN8nlohmann16json_abi_v3_12_010basic_jsonINS_3mapENS_6vectorES9_bxydS2_NSB_14adl_serializerENSE_IhNS2_IhEEEEvEEEEPvEEEEEELi1ELb0EEC2B7v160006ISN_vEEOT_, symObjAddr: 0xB620, symBinAddr: 0x10000C194, symSize: 0x24 }
  - { offsetInCU: 0x40B09, offset: 0x40B09, size: 0x8, addend: 0x0, symName: __ZNSt3__14pairIKNS_12basic_stringIcNS_11char_traitsIcEENS_9allocatorIcEEEEN8nlohmann16json_abi_v3_12_010basic_jsonINS_3mapENS_6vectorES6_bxydS4_NS9_14adl_serializerENSC_IhNS4_IhEEEEvEEEC1B7v160006IS6_DnLPv0EEEOT_OT0_, symObjAddr: 0xB688, symBinAddr: 0x10000C1FC, symSize: 0x3C }
  - { offsetInCU: 0x40B69, offset: 0x40B69, size: 0x8, addend: 0x0, symName: __ZNSt3__14pairIKNS_12basic_stringIcNS_11char_traitsIcEENS_9allocatorIcEEEEN8nlohmann16json_abi_v3_12_010basic_jsonINS_3mapENS_6vectorES6_bxydS4_NS9_14adl_serializerENSC_IhNS4_IhEEEEvEEEC2B7v160006IS6_DnLPv0EEEOT_OT0_, symObjAddr: 0xB6C4, symBinAddr: 0x10000C238, symSize: 0x48 }
  - { offsetInCU: 0x40BC9, offset: 0x40BC9, size: 0x8, addend: 0x0, symName: __ZNSt3__112basic_stringIcNS_11char_traitsIcEENS_9allocatorIcEEEC1B7v160006EOS5_, symObjAddr: 0xB70C, symBinAddr: 0x10000C280, symSize: 0x34 }
  - { offsetInCU: 0x40C02, offset: 0x40C02, size: 0x8, addend: 0x0, symName: __ZNSt3__112basic_stringIcNS_11char_traitsIcEENS_9allocatorIcEEEC2B7v160006EOS5_, symObjAddr: 0xB740, symBinAddr: 0x10000C2B4, symSize: 0x80 }
  - { offsetInCU: 0x40C3B, offset: 0x40C3B, size: 0x8, addend: 0x0, symName: __ZNKSt3__117__compressed_pairIPNS_11__tree_nodeINS_12__value_typeINS_12basic_stringIcNS_11char_traitsIcEENS_9allocatorIcEEEEN8nlohmann16json_abi_v3_12_010basic_jsonINS_3mapENS_6vectorES8_bxydS6_NSA_14adl_serializerENSD_IhNS6_IhEEEEvEEEEPvEENS_22__tree_node_destructorINS6_ISK_EEEEE5firstB7v160006Ev, symObjAddr: 0xB7D4, symBinAddr: 0x10000C348, symSize: 0x24 }
  - { offsetInCU: 0x40C61, offset: 0x40C61, size: 0x8, addend: 0x0, symName: __ZNKSt3__122__compressed_pair_elemIPNS_11__tree_nodeINS_12__value_typeINS_12basic_stringIcNS_11char_traitsIcEENS_9allocatorIcEEEEN8nlohmann16json_abi_v3_12_010basic_jsonINS_3mapENS_6vectorES8_bxydS6_NSA_14adl_serializerENSD_IhNS6_IhEEEEvEEEEPvEELi0ELb0EE5__getB7v160006Ev, symObjAddr: 0xB7F8, symBinAddr: 0x10000C36C, symSize: 0x14 }
  - { offsetInCU: 0x40C87, offset: 0x40C87, size: 0x8, addend: 0x0, symName: __ZNSt3__117__compressed_pairIPNS_11__tree_nodeINS_12__value_typeINS_12basic_stringIcNS_11char_traitsIcEENS_9allocatorIcEEEEN8nlohmann16json_abi_v3_12_010basic_jsonINS_3mapENS_6vectorES8_bxydS6_NSA_14adl_serializerENSD_IhNS6_IhEEEEvEEEEPvEENS_22__tree_node_destructorINS6_ISK_EEEEE6secondB7v160006Ev, symObjAddr: 0xB80C, symBinAddr: 0x10000C380, symSize: 0x28 }
  - { offsetInCU: 0x40CAD, offset: 0x40CAD, size: 0x8, addend: 0x0, symName: __ZNSt3__122__compressed_pair_elemINS_22__tree_node_destructorINS_9allocatorINS_11__tree_nodeINS_12__value_typeINS_12basic_stringIcNS_11char_traitsIcEENS2_IcEEEEN8nlohmann16json_abi_v3_12_010basic_jsonINS_3mapENS_6vectorES9_bxydS2_NSB_14adl_serializerENSE_IhNS2_IhEEEEvEEEEPvEEEEEELi1ELb0EE5__getB7v160006Ev, symObjAddr: 0xB834, symBinAddr: 0x10000C3A8, symSize: 0x14 }
  - { offsetInCU: 0x40CD3, offset: 0x40CD3, size: 0x8, addend: 0x0, symName: __ZNSt3__116__tree_node_baseIPvE12__set_parentB7v160006EPS2_, symObjAddr: 0xBC68, symBinAddr: 0x10000C7DC, symSize: 0x20 }
  - { offsetInCU: 0x40D08, offset: 0x40D08, size: 0x8, addend: 0x0, symName: __ZNSt3__117__compressed_pairIPNS_11__tree_nodeINS_12__value_typeINS_12basic_stringIcNS_11char_traitsIcEENS_9allocatorIcEEEEN8nlohmann16json_abi_v3_12_010basic_jsonINS_3mapENS_6vectorES8_bxydS6_NSA_14adl_serializerENSD_IhNS6_IhEEEEvEEEEPvEENS_22__tree_node_destructorINS6_ISK_EEEEE5firstB7v160006Ev, symObjAddr: 0xBC88, symBinAddr: 0x10000C7FC, symSize: 0x24 }
  - { offsetInCU: 0x40D2E, offset: 0x40D2E, size: 0x8, addend: 0x0, symName: __ZNSt3__122__compressed_pair_elemIPNS_11__tree_nodeINS_12__value_typeINS_12basic_stringIcNS_11char_traitsIcEENS_9allocatorIcEEEEN8nlohmann16json_abi_v3_12_010basic_jsonINS_3mapENS_6vectorES8_bxydS6_NSA_14adl_serializerENSD_IhNS6_IhEEEEvEEEEPvEELi0ELb0EE5__getB7v160006Ev, symObjAddr: 0xBCAC, symBinAddr: 0x10000C820, symSize: 0x14 }
  - { offsetInCU: 0x40D54, offset: 0x40D54, size: 0x8, addend: 0x0, symName: __ZNSt3__110unique_ptrINS_11__tree_nodeINS_12__value_typeINS_12basic_stringIcNS_11char_traitsIcEENS_9allocatorIcEEEEN8nlohmann16json_abi_v3_12_010basic_jsonINS_3mapENS_6vectorES8_bxydS6_NSA_14adl_serializerENSD_IhNS6_IhEEEEvEEEEPvEENS_22__tree_node_destructorINS6_ISK_EEEEED2B7v160006Ev, symObjAddr: 0xBCC0, symBinAddr: 0x10000C834, symSize: 0x30 }
  - { offsetInCU: 0x40D7E, offset: 0x40D7E, size: 0x8, addend: 0x0, symName: __ZNSt3__110unique_ptrINS_11__tree_nodeINS_12__value_typeINS_12basic_stringIcNS_11char_traitsIcEENS_9allocatorIcEEEEN8nlohmann16json_abi_v3_12_010basic_jsonINS_3mapENS_6vectorES8_bxydS6_NSA_14adl_serializerENSD_IhNS6_IhEEEEvEEEEPvEENS_22__tree_node_destructorINS6_ISK_EEEEE5resetB7v160006EPSK_, symObjAddr: 0xBCF0, symBinAddr: 0x10000C864, symSize: 0x78 }
  - { offsetInCU: 0x40DC2, offset: 0x40DC2, size: 0x8, addend: 0x0, symName: __ZNSt3__122__tree_node_destructorINS_9allocatorINS_11__tree_nodeINS_12__value_typeINS_12basic_stringIcNS_11char_traitsIcEENS1_IcEEEEN8nlohmann16json_abi_v3_12_010basic_jsonINS_3mapENS_6vectorES8_bxydS1_NSA_14adl_serializerENSD_IhNS1_IhEEEEvEEEEPvEEEEEclB7v160006EPSK_, symObjAddr: 0xBD68, symBinAddr: 0x10000C8DC, symSize: 0x90 }
  - { offsetInCU: 0x40DF7, offset: 0x40DF7, size: 0x8, addend: 0x0, symName: __ZNSt3__115__tree_iteratorINS_12__value_typeINS_12basic_stringIcNS_11char_traitsIcEENS_9allocatorIcEEEEN8nlohmann16json_abi_v3_12_010basic_jsonINS_3mapENS_6vectorES7_bxydS5_NS9_14adl_serializerENSC_IhNS5_IhEEEEvEEEEPNS_11__tree_nodeISH_PvEElEC2B7v160006ESL_, symObjAddr: 0xBDF8, symBinAddr: 0x10000C96C, symSize: 0x20 }
  - { offsetInCU: 0x40E30, offset: 0x40E30, size: 0x8, addend: 0x0, symName: __ZNSt3__14pairINS_15__tree_iteratorINS_12__value_typeINS_12basic_stringIcNS_11char_traitsIcEENS_9allocatorIcEEEEN8nlohmann16json_abi_v3_12_010basic_jsonINS_3mapENS_6vectorES8_bxydS6_NSA_14adl_serializerENSD_IhNS6_IhEEEEvEEEEPNS_11__tree_nodeISI_PvEElEEbEC2B7v160006ISN_RbLSK_0EEEOT_OT0_, symObjAddr: 0xBE18, symBinAddr: 0x10000C98C, symSize: 0x38 }
  - { offsetInCU: 0x40E90, offset: 0x40E90, size: 0x8, addend: 0x0, symName: __ZNSt3__14pairINS_14__map_iteratorINS_15__tree_iteratorINS_12__value_typeINS_12basic_stringIcNS_11char_traitsIcEENS_9allocatorIcEEEEN8nlohmann16json_abi_v3_12_010basic_jsonINS_3mapENS_6vectorES9_bxydS7_NSB_14adl_serializerENSE_IhNS7_IhEEEEvEEEEPNS_11__tree_nodeISJ_PvEElEEEEbEC2B7v160006ISO_bLSL_0EEEONS0_IT_T0_EE, symObjAddr: 0xBE50, symBinAddr: 0x10000C9C4, symSize: 0x50 }
  - { offsetInCU: 0x40EE1, offset: 0x40EE1, size: 0x8, addend: 0x0, symName: __ZNSt3__114pointer_traitsIPNS_4pairIKNS_12basic_stringIcNS_11char_traitsIcEENS_9allocatorIcEEEEN8nlohmann16json_abi_v3_12_010basic_jsonINS_3mapENS_6vectorES7_bxydS5_NSA_14adl_serializerENSD_IhNS5_IhEEEEvEEEEE10pointer_toB7v160006ERSI_, symObjAddr: 0xBEA0, symBinAddr: 0x10000CA14, symSize: 0x14 }
  - { offsetInCU: 0x40F05, offset: 0x40F05, size: 0x8, addend: 0x0, symName: __ZN8nlohmann16json_abi_v3_12_06detail9exception11diagnosticsINS0_10basic_jsonINSt3__13mapENS5_6vectorENS5_12basic_stringIcNS5_11char_traitsIcEENS5_9allocatorIcEEEEbxydSB_NS0_14adl_serializerENS7_IhNSB_IhEEEEvEEEESD_PKT_, symObjAddr: 0xBEB4, symBinAddr: 0x10000CA28, symSize: 0x2C }
  - { offsetInCU: 0x40F32, offset: 0x40F32, size: 0x8, addend: 0x0, symName: __ZN8nlohmann16json_abi_v3_12_06detail10type_errorC1EiPKc, symObjAddr: 0xBEE0, symBinAddr: 0x10000CA54, symSize: 0x3C }
  - { offsetInCU: 0x40F7A, offset: 0x40F7A, size: 0x8, addend: 0x0, symName: __ZN8nlohmann16json_abi_v3_12_06detail9exception18get_byte_positionsINS0_10basic_jsonINSt3__13mapENS5_6vectorENS5_12basic_stringIcNS5_11char_traitsIcEENS5_9allocatorIcEEEEbxydSB_NS0_14adl_serializerENS7_IhNSB_IhEEEEvEEEESD_PKT_, symObjAddr: 0xBF1C, symBinAddr: 0x10000CA90, symSize: 0x3C }
  - { offsetInCU: 0x40FA7, offset: 0x40FA7, size: 0x8, addend: 0x0, symName: __ZN8nlohmann16json_abi_v3_12_06detail10type_errorC2EiPKc, symObjAddr: 0xBF58, symBinAddr: 0x10000CACC, symSize: 0x54 }
  - { offsetInCU: 0x40FEF, offset: 0x40FEF, size: 0x8, addend: 0x0, symName: __ZN8nlohmann16json_abi_v3_12_06detail10type_errorD0Ev, symObjAddr: 0xBFAC, symBinAddr: 0x10000CB20, symSize: 0x30 }
  - { offsetInCU: 0x4101C, offset: 0x4101C, size: 0x8, addend: 0x0, symName: __ZN8nlohmann16json_abi_v3_12_06detail10type_errorD2Ev, symObjAddr: 0xC094, symBinAddr: 0x10000CC08, symSize: 0x2C }
  - { offsetInCU: 0x41049, offset: 0x41049, size: 0x8, addend: 0x0, symName: __ZN8nlohmann16json_abi_v3_12_010basic_jsonINSt3__13mapENS2_6vectorENS2_12basic_stringIcNS2_11char_traitsIcEENS2_9allocatorIcEEEEbxydS8_NS0_14adl_serializerENS4_IhNS8_IhEEEEvEC1ESt16initializer_listINS0_6detail8json_refISE_EEEbNSG_7value_tE, symObjAddr: 0xC138, symBinAddr: 0x10000CCAC, symSize: 0x58 }
  - { offsetInCU: 0x410A0, offset: 0x410A0, size: 0x8, addend: 0x0, symName: __ZN8nlohmann16json_abi_v3_12_010basic_jsonINSt3__13mapENS2_6vectorENS2_12basic_stringIcNS2_11char_traitsIcEENS2_9allocatorIcEEEEbxydS8_NS0_14adl_serializerENS4_IhNS8_IhEEEEvEC2ESt16initializer_listINS0_6detail8json_refISE_EEEbNSG_7value_tE, symObjAddr: 0xC190, symBinAddr: 0x10000CD04, symSize: 0x36C }
  - { offsetInCU: 0x41194, offset: 0x41194, size: 0x8, addend: 0x0, symName: __ZNKSt16initializer_listIN8nlohmann16json_abi_v3_12_06detail8json_refINS1_10basic_jsonINSt3__13mapENS5_6vectorENS5_12basic_stringIcNS5_11char_traitsIcEENS5_9allocatorIcEEEEbxydSB_NS1_14adl_serializerENS7_IhNSB_IhEEEEvEEEEE5beginB7v160006Ev, symObjAddr: 0xC590, symBinAddr: 0x10000D104, symSize: 0x18 }
  - { offsetInCU: 0x411BA, offset: 0x411BA, size: 0x8, addend: 0x0, symName: __ZNKSt16initializer_listIN8nlohmann16json_abi_v3_12_06detail8json_refINS1_10basic_jsonINSt3__13mapENS5_6vectorENS5_12basic_stringIcNS5_11char_traitsIcEENS5_9allocatorIcEEEEbxydSB_NS1_14adl_serializerENS7_IhNSB_IhEEEEvEEEEE3endB7v160006Ev, symObjAddr: 0xC5A8, symBinAddr: 0x10000D11C, symSize: 0x28 }
  - { offsetInCU: 0x411E0, offset: 0x411E0, size: 0x8, addend: 0x0, symName: __ZN8nlohmann16json_abi_v3_12_06detail10type_error6createIDnLi0EEES2_iRKNSt3__112basic_stringIcNS4_11char_traitsIcEENS4_9allocatorIcEEEET_, symObjAddr: 0xC5D0, symBinAddr: 0x10000D144, symSize: 0x130 }
  - { offsetInCU: 0x41240, offset: 0x41240, size: 0x8, addend: 0x0, symName: __ZNK8nlohmann16json_abi_v3_12_06detail8json_refINS0_10basic_jsonINSt3__13mapENS4_6vectorENS4_12basic_stringIcNS4_11char_traitsIcEENS4_9allocatorIcEEEEbxydSA_NS0_14adl_serializerENS6_IhNSA_IhEEEEvEEE15moved_or_copiedEv, symObjAddr: 0xC700, symBinAddr: 0x10000D274, symSize: 0x64 }
  - { offsetInCU: 0x41266, offset: 0x41266, size: 0x8, addend: 0x0, symName: __ZNSt3__13mapINS_12basic_stringIcNS_11char_traitsIcEENS_9allocatorIcEEEEN8nlohmann16json_abi_v3_12_010basic_jsonIS0_NS_6vectorES6_bxydS4_NS8_14adl_serializerENSA_IhNS4_IhEEEEvEENS_4lessIvEENS4_INS_4pairIKS6_SE_EEEEE7emplaceB7v160006IJS6_SE_EEENSH_INS_14__map_iteratorINS_15__tree_iteratorINS_12__value_typeIS6_SE_EEPNS_11__tree_nodeISQ_PvEElEEEEbEEDpOT_, symObjAddr: 0xC764, symBinAddr: 0x10000D2D8, symSize: 0x54 }
  - { offsetInCU: 0x412BA, offset: 0x412BA, size: 0x8, addend: 0x0, symName: __ZNSt3__16vectorIN8nlohmann16json_abi_v3_12_010basic_jsonINS_3mapES0_NS_12basic_stringIcNS_11char_traitsIcEENS_9allocatorIcEEEEbxydS8_NS2_14adl_serializerENS0_IhNS8_IhEEEEvEENS8_ISE_EEEixB7v160006Em, symObjAddr: 0xC7B8, symBinAddr: 0x10000D32C, symSize: 0x24 }
  - { offsetInCU: 0x412F7, offset: 0x412F7, size: 0x8, addend: 0x0, symName: __ZN8nlohmann16json_abi_v3_12_010basic_jsonINSt3__13mapENS2_6vectorENS2_12basic_stringIcNS2_11char_traitsIcEENS2_9allocatorIcEEEEbxydS8_NS0_14adl_serializerENS4_IhNS8_IhEEEEvE6createINS4_ISE_NS8_ISE_EEEEJPKNS0_6detail8json_refISE_EESM_EEEPT_DpOT0_, symObjAddr: 0xC7DC, symBinAddr: 0x10000D350, symSize: 0xFC }
  - { offsetInCU: 0x41399, offset: 0x41399, size: 0x8, addend: 0x0, symName: __ZN8nlohmann16json_abi_v3_12_010basic_jsonINSt3__13mapENS2_6vectorENS2_12basic_stringIcNS2_11char_traitsIcEENS2_9allocatorIcEEEEbxydS8_NS0_14adl_serializerENS4_IhNS8_IhEEEEvE4dataD1Ev, symObjAddr: 0xC8D8, symBinAddr: 0x10000D44C, symSize: 0x2C }
  - { offsetInCU: 0x413CE, offset: 0x413CE, size: 0x8, addend: 0x0, symName: __ZZN8nlohmann16json_abi_v3_12_010basic_jsonINSt3__13mapENS2_6vectorENS2_12basic_stringIcNS2_11char_traitsIcEENS2_9allocatorIcEEEEbxydS8_NS0_14adl_serializerENS4_IhNS8_IhEEEEvEC1ESt16initializer_listINS0_6detail8json_refISE_EEEbNSG_7value_tEENKUlRKSI_E_clESM_, symObjAddr: 0xC904, symBinAddr: 0x10000D478, symSize: 0x84 }
  - { offsetInCU: 0x41407, offset: 0x41407, size: 0x8, addend: 0x0, symName: __ZNK8nlohmann16json_abi_v3_12_06detail8json_refINS0_10basic_jsonINSt3__13mapENS4_6vectorENS4_12basic_stringIcNS4_11char_traitsIcEENS4_9allocatorIcEEEEbxydSA_NS0_14adl_serializerENS6_IhNSA_IhEEEEvEEEptEv, symObjAddr: 0xC988, symBinAddr: 0x10000D4FC, symSize: 0x24 }
  - { offsetInCU: 0x4142D, offset: 0x4142D, size: 0x8, addend: 0x0, symName: __ZNK8nlohmann16json_abi_v3_12_010basic_jsonINSt3__13mapENS2_6vectorENS2_12basic_stringIcNS2_11char_traitsIcEENS2_9allocatorIcEEEEbxydS8_NS0_14adl_serializerENS4_IhNS8_IhEEEEvE4sizeEv, symObjAddr: 0xC9AC, symBinAddr: 0x10000D520, symSize: 0xA4 }
  - { offsetInCU: 0x41453, offset: 0x41453, size: 0x8, addend: 0x0, symName: __ZNK8nlohmann16json_abi_v3_12_06detail8json_refINS0_10basic_jsonINSt3__13mapENS4_6vectorENS4_12basic_stringIcNS4_11char_traitsIcEENS4_9allocatorIcEEEEbxydSA_NS0_14adl_serializerENS6_IhNSA_IhEEEEvEEEdeEv, symObjAddr: 0xCA78, symBinAddr: 0x10000D5EC, symSize: 0x4C }
  - { offsetInCU: 0x41479, offset: 0x41479, size: 0x8, addend: 0x0, symName: __ZNK8nlohmann16json_abi_v3_12_010basic_jsonINSt3__13mapENS2_6vectorENS2_12basic_stringIcNS2_11char_traitsIcEENS2_9allocatorIcEEEEbxydS8_NS0_14adl_serializerENS4_IhNS8_IhEEEEvEixEm, symObjAddr: 0xCAC4, symBinAddr: 0x10000D638, symSize: 0x11C }
  - { offsetInCU: 0x414AE, offset: 0x414AE, size: 0x8, addend: 0x0, symName: __ZNK8nlohmann16json_abi_v3_12_010basic_jsonINSt3__13mapENS2_6vectorENS2_12basic_stringIcNS2_11char_traitsIcEENS2_9allocatorIcEEEEbxydS8_NS0_14adl_serializerENS4_IhNS8_IhEEEEvE9is_stringEv, symObjAddr: 0xCBE0, symBinAddr: 0x10000D754, symSize: 0x24 }
  - { offsetInCU: 0x414D4, offset: 0x414D4, size: 0x8, addend: 0x0, symName: __ZN8nlohmann16json_abi_v3_12_06detail10type_error6createIPKNS0_10basic_jsonINSt3__13mapENS5_6vectorENS5_12basic_stringIcNS5_11char_traitsIcEENS5_9allocatorIcEEEEbxydSB_NS0_14adl_serializerENS7_IhNSB_IhEEEEvEELi0EEES2_iRKSD_T_, symObjAddr: 0xCC04, symBinAddr: 0x10000D778, symSize: 0x130 }
  - { offsetInCU: 0x41534, offset: 0x41534, size: 0x8, addend: 0x0, symName: __ZN8nlohmann16json_abi_v3_12_010basic_jsonINSt3__13mapENS2_6vectorENS2_12basic_stringIcNS2_11char_traitsIcEENS2_9allocatorIcEEEEbxydS8_NS0_14adl_serializerENS4_IhNS8_IhEEEEvEC1ERKSE_, symObjAddr: 0xCE34, symBinAddr: 0x10000D9A8, symSize: 0x34 }
  - { offsetInCU: 0x4156D, offset: 0x4156D, size: 0x8, addend: 0x0, symName: __ZN8nlohmann16json_abi_v3_12_010basic_jsonINSt3__13mapENS2_6vectorENS2_12basic_stringIcNS2_11char_traitsIcEENS2_9allocatorIcEEEEbxydS8_NS0_14adl_serializerENS4_IhNS8_IhEEEEvEC2ERKSE_, symObjAddr: 0xCE68, symBinAddr: 0x10000D9DC, symSize: 0x1F8 }
  - { offsetInCU: 0x415A6, offset: 0x415A6, size: 0x8, addend: 0x0, symName: __ZN8nlohmann16json_abi_v3_12_010basic_jsonINSt3__13mapENS2_6vectorENS2_12basic_stringIcNS2_11char_traitsIcEENS2_9allocatorIcEEEEbxydS8_NS0_14adl_serializerENS4_IhNS8_IhEEEEvE10json_valueC1ERKNS3_ISA_SE_NS2_4lessIvEENS8_INS2_4pairIKSA_SE_EEEEEE, symObjAddr: 0xD088, symBinAddr: 0x10000DBFC, symSize: 0x34 }
  - { offsetInCU: 0x415DF, offset: 0x415DF, size: 0x8, addend: 0x0, symName: __ZN8nlohmann16json_abi_v3_12_010basic_jsonINSt3__13mapENS2_6vectorENS2_12basic_stringIcNS2_11char_traitsIcEENS2_9allocatorIcEEEEbxydS8_NS0_14adl_serializerENS4_IhNS8_IhEEEEvE10json_valueC1ERKNS4_ISE_NS8_ISE_EEEE, symObjAddr: 0xD0BC, symBinAddr: 0x10000DC30, symSize: 0x34 }
  - { offsetInCU: 0x41618, offset: 0x41618, size: 0x8, addend: 0x0, symName: __ZN8nlohmann16json_abi_v3_12_010basic_jsonINSt3__13mapENS2_6vectorENS2_12basic_stringIcNS2_11char_traitsIcEENS2_9allocatorIcEEEEbxydS8_NS0_14adl_serializerENS4_IhNS8_IhEEEEvE10json_valueC1ERKSA_, symObjAddr: 0xD0F0, symBinAddr: 0x10000DC64, symSize: 0x34 }
  - { offsetInCU: 0x41651, offset: 0x41651, size: 0x8, addend: 0x0, symName: __ZN8nlohmann16json_abi_v3_12_010basic_jsonINSt3__13mapENS2_6vectorENS2_12basic_stringIcNS2_11char_traitsIcEENS2_9allocatorIcEEEEbxydS8_NS0_14adl_serializerENS4_IhNS8_IhEEEEvE10json_valueC1Eb, symObjAddr: 0xD124, symBinAddr: 0x10000DC98, symSize: 0x40 }
  - { offsetInCU: 0x4168A, offset: 0x4168A, size: 0x8, addend: 0x0, symName: __ZN8nlohmann16json_abi_v3_12_010basic_jsonINSt3__13mapENS2_6vectorENS2_12basic_stringIcNS2_11char_traitsIcEENS2_9allocatorIcEEEEbxydS8_NS0_14adl_serializerENS4_IhNS8_IhEEEEvE10json_valueC1Ey, symObjAddr: 0xD164, symBinAddr: 0x10000DCD8, symSize: 0x34 }
  - { offsetInCU: 0x416C3, offset: 0x416C3, size: 0x8, addend: 0x0, symName: __ZN8nlohmann16json_abi_v3_12_010basic_jsonINSt3__13mapENS2_6vectorENS2_12basic_stringIcNS2_11char_traitsIcEENS2_9allocatorIcEEEEbxydS8_NS0_14adl_serializerENS4_IhNS8_IhEEEEvE10json_valueC1Ed, symObjAddr: 0xD198, symBinAddr: 0x10000DD0C, symSize: 0x34 }
  - { offsetInCU: 0x416FC, offset: 0x416FC, size: 0x8, addend: 0x0, symName: __ZN8nlohmann16json_abi_v3_12_010basic_jsonINSt3__13mapENS2_6vectorENS2_12basic_stringIcNS2_11char_traitsIcEENS2_9allocatorIcEEEEbxydS8_NS0_14adl_serializerENS4_IhNS8_IhEEEEvE10json_valueC1ERKNS0_27byte_container_with_subtypeISD_EE, symObjAddr: 0xD1CC, symBinAddr: 0x10000DD40, symSize: 0x34 }
  - { offsetInCU: 0x41735, offset: 0x41735, size: 0x8, addend: 0x0, symName: __ZN8nlohmann16json_abi_v3_12_010basic_jsonINSt3__13mapENS2_6vectorENS2_12basic_stringIcNS2_11char_traitsIcEENS2_9allocatorIcEEEEbxydS8_NS0_14adl_serializerENS4_IhNS8_IhEEEEvE10json_valueC2ERKNS3_ISA_SE_NS2_4lessIvEENS8_INS2_4pairIKSA_SE_EEEEEE, symObjAddr: 0xD200, symBinAddr: 0x10000DD74, symSize: 0x3C }
  - { offsetInCU: 0x4176E, offset: 0x4176E, size: 0x8, addend: 0x0, symName: __ZN8nlohmann16json_abi_v3_12_010basic_jsonINSt3__13mapENS2_6vectorENS2_12basic_stringIcNS2_11char_traitsIcEENS2_9allocatorIcEEEEbxydS8_NS0_14adl_serializerENS4_IhNS8_IhEEEEvE6createINS3_ISA_SE_NS2_4lessIvEENS8_INS2_4pairIKSA_SE_EEEEEEJRKSM_EEEPT_DpOT0_, symObjAddr: 0xD23C, symBinAddr: 0x10000DDB0, symSize: 0xF4 }
  - { offsetInCU: 0x4186F, offset: 0x4186F, size: 0x8, addend: 0x0, symName: __ZNSt3__110unique_ptrINS_3mapINS_12basic_stringIcNS_11char_traitsIcEENS_9allocatorIcEEEEN8nlohmann16json_abi_v3_12_010basic_jsonIS1_NS_6vectorES7_bxydS5_NS9_14adl_serializerENSB_IhNS5_IhEEEEvEENS_4lessIvEENS5_INS_4pairIKS7_SF_EEEEEEZNSF_6createISM_JRKSM_EEEPT_DpOT0_EUlPSM_E_EC1B7v160006ILb1EvEESV_NS_16__dependent_typeINS_27__unique_ptr_deleter_sfinaeISW_EEXT_EE15__lval_ref_typeE, symObjAddr: 0xD330, symBinAddr: 0x10000DEA4, symSize: 0x3C }
  - { offsetInCU: 0x418C2, offset: 0x418C2, size: 0x8, addend: 0x0, symName: __ZNSt3__116allocator_traitsINS_9allocatorINS_3mapINS_12basic_stringIcNS_11char_traitsIcEENS1_IcEEEEN8nlohmann16json_abi_v3_12_010basic_jsonIS2_NS_6vectorES7_bxydS1_NS9_14adl_serializerENSB_IhNS1_IhEEEEvEENS_4lessIvEENS1_INS_4pairIKS7_SF_EEEEEEEEE9constructB7v160006ISM_JRKSM_EvvEEvRSN_PT_DpOT0_, symObjAddr: 0xD36C, symBinAddr: 0x10000DEE0, symSize: 0x30 }
  - { offsetInCU: 0x41916, offset: 0x41916, size: 0x8, addend: 0x0, symName: __ZNKSt3__110unique_ptrINS_3mapINS_12basic_stringIcNS_11char_traitsIcEENS_9allocatorIcEEEEN8nlohmann16json_abi_v3_12_010basic_jsonIS1_NS_6vectorES7_bxydS5_NS9_14adl_serializerENSB_IhNS5_IhEEEEvEENS_4lessIvEENS5_INS_4pairIKS7_SF_EEEEEEZNSF_6createISM_JRKSM_EEEPT_DpOT0_EUlPSM_E_E3getB7v160006Ev, symObjAddr: 0xD39C, symBinAddr: 0x10000DF10, symSize: 0x28 }
  - { offsetInCU: 0x4193C, offset: 0x4193C, size: 0x8, addend: 0x0, symName: __ZNSt3__110unique_ptrINS_3mapINS_12basic_stringIcNS_11char_traitsIcEENS_9allocatorIcEEEEN8nlohmann16json_abi_v3_12_010basic_jsonIS1_NS_6vectorES7_bxydS5_NS9_14adl_serializerENSB_IhNS5_IhEEEEvEENS_4lessIvEENS5_INS_4pairIKS7_SF_EEEEEEZNSF_6createISM_JRKSM_EEEPT_DpOT0_EUlPSM_E_E7releaseB7v160006Ev, symObjAddr: 0xD3F4, symBinAddr: 0x10000DF68, symSize: 0x44 }
  - { offsetInCU: 0x41971, offset: 0x41971, size: 0x8, addend: 0x0, symName: __ZNSt3__110unique_ptrINS_3mapINS_12basic_stringIcNS_11char_traitsIcEENS_9allocatorIcEEEEN8nlohmann16json_abi_v3_12_010basic_jsonIS1_NS_6vectorES7_bxydS5_NS9_14adl_serializerENSB_IhNS5_IhEEEEvEENS_4lessIvEENS5_INS_4pairIKS7_SF_EEEEEEZNSF_6createISM_JRKSM_EEEPT_DpOT0_EUlPSM_E_ED1B7v160006Ev, symObjAddr: 0xD438, symBinAddr: 0x10000DFAC, symSize: 0x2C }
  - { offsetInCU: 0x4199B, offset: 0x4199B, size: 0x8, addend: 0x0, symName: __ZNSt3__110unique_ptrINS_3mapINS_12basic_stringIcNS_11char_traitsIcEENS_9allocatorIcEEEEN8nlohmann16json_abi_v3_12_010basic_jsonIS1_NS_6vectorES7_bxydS5_NS9_14adl_serializerENSB_IhNS5_IhEEEEvEENS_4lessIvEENS5_INS_4pairIKS7_SF_EEEEEEZNSF_6createISM_JRKSM_EEEPT_DpOT0_EUlPSM_E_EC2B7v160006ILb1EvEESV_NS_16__dependent_typeINS_27__unique_ptr_deleter_sfinaeISW_EEXT_EE15__lval_ref_typeE, symObjAddr: 0xD464, symBinAddr: 0x10000DFD8, symSize: 0x48 }
  - { offsetInCU: 0x419EE, offset: 0x419EE, size: 0x8, addend: 0x0, symName: __ZNSt3__117__compressed_pairIPNS_3mapINS_12basic_stringIcNS_11char_traitsIcEENS_9allocatorIcEEEEN8nlohmann16json_abi_v3_12_010basic_jsonIS1_NS_6vectorES7_bxydS5_NS9_14adl_serializerENSB_IhNS5_IhEEEEvEENS_4lessIvEENS5_INS_4pairIKS7_SF_EEEEEEZNSF_6createISM_JRKSM_EEEPT_DpOT0_EUlSN_E_EC1B7v160006IRSN_RKSW_EEOSR_OT0_, symObjAddr: 0xD4AC, symBinAddr: 0x10000E020, symSize: 0x3C }
  - { offsetInCU: 0x41A48, offset: 0x41A48, size: 0x8, addend: 0x0, symName: __ZNSt3__117__compressed_pairIPNS_3mapINS_12basic_stringIcNS_11char_traitsIcEENS_9allocatorIcEEEEN8nlohmann16json_abi_v3_12_010basic_jsonIS1_NS_6vectorES7_bxydS5_NS9_14adl_serializerENSB_IhNS5_IhEEEEvEENS_4lessIvEENS5_INS_4pairIKS7_SF_EEEEEEZNSF_6createISM_JRKSM_EEEPT_DpOT0_EUlSN_E_EC2B7v160006IRSN_RKSW_EEOSR_OT0_, symObjAddr: 0xD4E8, symBinAddr: 0x10000E05C, symSize: 0x48 }
  - { offsetInCU: 0x41AA2, offset: 0x41AA2, size: 0x8, addend: 0x0, symName: __ZNSt3__122__compressed_pair_elemIZN8nlohmann16json_abi_v3_12_010basic_jsonINS_3mapENS_6vectorENS_12basic_stringIcNS_11char_traitsIcEENS_9allocatorIcEEEEbxydS9_NS2_14adl_serializerENS5_IhNS9_IhEEEEvE6createINS4_ISB_SF_NS_4lessIvEENS9_INS_4pairIKSB_SF_EEEEEEJRKSN_EEEPT_DpOT0_EUlPSN_E_Li1ELb0EEC2B7v160006IRKSW_vEEOSQ_, symObjAddr: 0xD530, symBinAddr: 0x10000E0A4, symSize: 0x24 }
  - { offsetInCU: 0x41AE5, offset: 0x41AE5, size: 0x8, addend: 0x0, symName: __ZNSt3__13mapINS_12basic_stringIcNS_11char_traitsIcEENS_9allocatorIcEEEEN8nlohmann16json_abi_v3_12_010basic_jsonIS0_NS_6vectorES6_bxydS4_NS8_14adl_serializerENSA_IhNS4_IhEEEEvEENS_4lessIvEENS4_INS_4pairIKS6_SE_EEEEEC1B7v160006ERKSL_, symObjAddr: 0xD590, symBinAddr: 0x10000E104, symSize: 0x34 }
  - { offsetInCU: 0x41B1E, offset: 0x41B1E, size: 0x8, addend: 0x0, symName: __ZNSt3__13mapINS_12basic_stringIcNS_11char_traitsIcEENS_9allocatorIcEEEEN8nlohmann16json_abi_v3_12_010basic_jsonIS0_NS_6vectorES6_bxydS4_NS8_14adl_serializerENSA_IhNS4_IhEEEEvEENS_4lessIvEENS4_INS_4pairIKS6_SE_EEEEEC2B7v160006ERKSL_, symObjAddr: 0xD5C4, symBinAddr: 0x10000E138, symSize: 0x88 }
  - { offsetInCU: 0x41B57, offset: 0x41B57, size: 0x8, addend: 0x0, symName: __ZNSt3__16__treeINS_12__value_typeINS_12basic_stringIcNS_11char_traitsIcEENS_9allocatorIcEEEEN8nlohmann16json_abi_v3_12_010basic_jsonINS_3mapENS_6vectorES7_bxydS5_NS9_14adl_serializerENSC_IhNS5_IhEEEEvEEEENS_19__map_value_compareIS7_SH_NS_4lessIvEELb1EEENS5_ISH_EEEC1ERKSN_, symObjAddr: 0xD64C, symBinAddr: 0x10000E1C0, symSize: 0x34 }
  - { offsetInCU: 0x41B92, offset: 0x41B92, size: 0x8, addend: 0x0, symName: __ZNSt3__13mapINS_12basic_stringIcNS_11char_traitsIcEENS_9allocatorIcEEEEN8nlohmann16json_abi_v3_12_010basic_jsonIS0_NS_6vectorES6_bxydS4_NS8_14adl_serializerENSA_IhNS4_IhEEEEvEENS_4lessIvEENS4_INS_4pairIKS6_SE_EEEEE6insertB7v160006INS_20__map_const_iteratorINS_21__tree_const_iteratorINS_12__value_typeIS6_SE_EEPNS_11__tree_nodeISQ_PvEElEEEEEEvT_SX_, symObjAddr: 0xD680, symBinAddr: 0x10000E1F4, symSize: 0x8C }
  - { offsetInCU: 0x41BFC, offset: 0x41BFC, size: 0x8, addend: 0x0, symName: __ZNKSt3__13mapINS_12basic_stringIcNS_11char_traitsIcEENS_9allocatorIcEEEEN8nlohmann16json_abi_v3_12_010basic_jsonIS0_NS_6vectorES6_bxydS4_NS8_14adl_serializerENSA_IhNS4_IhEEEEvEENS_4lessIvEENS4_INS_4pairIKS6_SE_EEEEE5beginB7v160006Ev, symObjAddr: 0xD70C, symBinAddr: 0x10000E280, symSize: 0x38 }
  - { offsetInCU: 0x41C22, offset: 0x41C22, size: 0x8, addend: 0x0, symName: __ZNKSt3__13mapINS_12basic_stringIcNS_11char_traitsIcEENS_9allocatorIcEEEEN8nlohmann16json_abi_v3_12_010basic_jsonIS0_NS_6vectorES6_bxydS4_NS8_14adl_serializerENSA_IhNS4_IhEEEEvEENS_4lessIvEENS4_INS_4pairIKS6_SE_EEEEE3endB7v160006Ev, symObjAddr: 0xD744, symBinAddr: 0x10000E2B8, symSize: 0x38 }
  - { offsetInCU: 0x41C48, offset: 0x41C48, size: 0x8, addend: 0x0, symName: __ZNSt3__16__treeINS_12__value_typeINS_12basic_stringIcNS_11char_traitsIcEENS_9allocatorIcEEEEN8nlohmann16json_abi_v3_12_010basic_jsonINS_3mapENS_6vectorES7_bxydS5_NS9_14adl_serializerENSC_IhNS5_IhEEEEvEEEENS_19__map_value_compareIS7_SH_NS_4lessIvEELb1EEENS5_ISH_EEEC2ERKSN_, symObjAddr: 0xD77C, symBinAddr: 0x10000E2F0, symSize: 0x9C }
  - { offsetInCU: 0x41C83, offset: 0x41C83, size: 0x8, addend: 0x0, symName: __ZNSt3__116allocator_traitsINS_9allocatorINS_11__tree_nodeINS_12__value_typeINS_12basic_stringIcNS_11char_traitsIcEENS1_IcEEEEN8nlohmann16json_abi_v3_12_010basic_jsonINS_3mapENS_6vectorES8_bxydS1_NSA_14adl_serializerENSD_IhNS1_IhEEEEvEEEEPvEEEEE37select_on_container_copy_constructionB7v160006ISL_vvEESL_RKSL_, symObjAddr: 0xD818, symBinAddr: 0x10000E38C, symSize: 0x10 }
  - { offsetInCU: 0x41CB2, offset: 0x41CB2, size: 0x8, addend: 0x0, symName: __ZNKSt3__16__treeINS_12__value_typeINS_12basic_stringIcNS_11char_traitsIcEENS_9allocatorIcEEEEN8nlohmann16json_abi_v3_12_010basic_jsonINS_3mapENS_6vectorES7_bxydS5_NS9_14adl_serializerENSC_IhNS5_IhEEEEvEEEENS_19__map_value_compareIS7_SH_NS_4lessIvEELb1EEENS5_ISH_EEE12__node_allocB7v160006Ev, symObjAddr: 0xD828, symBinAddr: 0x10000E39C, symSize: 0x28 }
  - { offsetInCU: 0x41CDE, offset: 0x41CDE, size: 0x8, addend: 0x0, symName: __ZNSt3__117__compressed_pairINS_15__tree_end_nodeIPNS_16__tree_node_baseIPvEEEENS_9allocatorINS_11__tree_nodeINS_12__value_typeINS_12basic_stringIcNS_11char_traitsIcEENS7_IcEEEEN8nlohmann16json_abi_v3_12_010basic_jsonINS_3mapENS_6vectorESE_bxydS7_NSG_14adl_serializerENSJ_IhNS7_IhEEEEvEEEES3_EEEEEC1B7v160006INS_18__default_init_tagESQ_EEOT_OT0_, symObjAddr: 0xD850, symBinAddr: 0x10000E3C4, symSize: 0x3C }
  - { offsetInCU: 0x41D38, offset: 0x41D38, size: 0x8, addend: 0x0, symName: __ZNKSt3__16__treeINS_12__value_typeINS_12basic_stringIcNS_11char_traitsIcEENS_9allocatorIcEEEEN8nlohmann16json_abi_v3_12_010basic_jsonINS_3mapENS_6vectorES7_bxydS5_NS9_14adl_serializerENSC_IhNS5_IhEEEEvEEEENS_19__map_value_compareIS7_SH_NS_4lessIvEELb1EEENS5_ISH_EEE10value_compB7v160006Ev, symObjAddr: 0xD88C, symBinAddr: 0x10000E400, symSize: 0x28 }
  - { offsetInCU: 0x41D5E, offset: 0x41D5E, size: 0x8, addend: 0x0, symName: __ZNKSt3__117__compressed_pairINS_15__tree_end_nodeIPNS_16__tree_node_baseIPvEEEENS_9allocatorINS_11__tree_nodeINS_12__value_typeINS_12basic_stringIcNS_11char_traitsIcEENS7_IcEEEEN8nlohmann16json_abi_v3_12_010basic_jsonINS_3mapENS_6vectorESE_bxydS7_NSG_14adl_serializerENSJ_IhNS7_IhEEEEvEEEES3_EEEEE6secondB7v160006Ev, symObjAddr: 0xD8B4, symBinAddr: 0x10000E428, symSize: 0x24 }
  - { offsetInCU: 0x41D84, offset: 0x41D84, size: 0x8, addend: 0x0, symName: __ZNKSt3__122__compressed_pair_elemINS_9allocatorINS_11__tree_nodeINS_12__value_typeINS_12basic_stringIcNS_11char_traitsIcEENS1_IcEEEEN8nlohmann16json_abi_v3_12_010basic_jsonINS_3mapENS_6vectorES8_bxydS1_NSA_14adl_serializerENSD_IhNS1_IhEEEEvEEEEPvEEEELi1ELb1EE5__getB7v160006Ev, symObjAddr: 0xD8D8, symBinAddr: 0x10000E44C, symSize: 0x14 }
  - { offsetInCU: 0x41DAA, offset: 0x41DAA, size: 0x8, addend: 0x0, symName: __ZNSt3__117__compressed_pairINS_15__tree_end_nodeIPNS_16__tree_node_baseIPvEEEENS_9allocatorINS_11__tree_nodeINS_12__value_typeINS_12basic_stringIcNS_11char_traitsIcEENS7_IcEEEEN8nlohmann16json_abi_v3_12_010basic_jsonINS_3mapENS_6vectorESE_bxydS7_NSG_14adl_serializerENSJ_IhNS7_IhEEEEvEEEES3_EEEEEC2B7v160006INS_18__default_init_tagESQ_EEOT_OT0_, symObjAddr: 0xD8EC, symBinAddr: 0x10000E460, symSize: 0x40 }
  - { offsetInCU: 0x41E04, offset: 0x41E04, size: 0x8, addend: 0x0, symName: __ZNSt3__122__compressed_pair_elemINS_15__tree_end_nodeIPNS_16__tree_node_baseIPvEEEELi0ELb0EEC2B7v160006ENS_18__default_init_tagE, symObjAddr: 0xD92C, symBinAddr: 0x10000E4A0, symSize: 0x2C }
  - { offsetInCU: 0x41E39, offset: 0x41E39, size: 0x8, addend: 0x0, symName: __ZNSt3__122__compressed_pair_elemINS_9allocatorINS_11__tree_nodeINS_12__value_typeINS_12basic_stringIcNS_11char_traitsIcEENS1_IcEEEEN8nlohmann16json_abi_v3_12_010basic_jsonINS_3mapENS_6vectorES8_bxydS1_NSA_14adl_serializerENSD_IhNS1_IhEEEEvEEEEPvEEEELi1ELb1EEC2B7v160006ISL_vEEOT_, symObjAddr: 0xD958, symBinAddr: 0x10000E4CC, symSize: 0x18 }
  - { offsetInCU: 0x41E7C, offset: 0x41E7C, size: 0x8, addend: 0x0, symName: __ZNKSt3__117__compressed_pairImNS_19__map_value_compareINS_12basic_stringIcNS_11char_traitsIcEENS_9allocatorIcEEEENS_12__value_typeIS7_N8nlohmann16json_abi_v3_12_010basic_jsonINS_3mapENS_6vectorES7_bxydS5_NSA_14adl_serializerENSD_IhNS5_IhEEEEvEEEENS_4lessIvEELb1EEEE6secondB7v160006Ev, symObjAddr: 0xD970, symBinAddr: 0x10000E4E4, symSize: 0x24 }
  - { offsetInCU: 0x41EA2, offset: 0x41EA2, size: 0x8, addend: 0x0, symName: __ZNKSt3__122__compressed_pair_elemINS_19__map_value_compareINS_12basic_stringIcNS_11char_traitsIcEENS_9allocatorIcEEEENS_12__value_typeIS7_N8nlohmann16json_abi_v3_12_010basic_jsonINS_3mapENS_6vectorES7_bxydS5_NSA_14adl_serializerENSD_IhNS5_IhEEEEvEEEENS_4lessIvEELb1EEELi1ELb1EE5__getB7v160006Ev, symObjAddr: 0xD994, symBinAddr: 0x10000E508, symSize: 0x14 }
  - { offsetInCU: 0x41EC8, offset: 0x41EC8, size: 0x8, addend: 0x0, symName: __ZNKSt3__13mapINS_12basic_stringIcNS_11char_traitsIcEENS_9allocatorIcEEEEN8nlohmann16json_abi_v3_12_010basic_jsonIS0_NS_6vectorES6_bxydS4_NS8_14adl_serializerENSA_IhNS4_IhEEEEvEENS_4lessIvEENS4_INS_4pairIKS6_SE_EEEEE4cendB7v160006Ev, symObjAddr: 0xD9A8, symBinAddr: 0x10000E51C, symSize: 0x2C }
  - { offsetInCU: 0x41EEE, offset: 0x41EEE, size: 0x8, addend: 0x0, symName: __ZNSt3__13mapINS_12basic_stringIcNS_11char_traitsIcEENS_9allocatorIcEEEEN8nlohmann16json_abi_v3_12_010basic_jsonIS0_NS_6vectorES6_bxydS4_NS8_14adl_serializerENSA_IhNS4_IhEEEEvEENS_4lessIvEENS4_INS_4pairIKS6_SE_EEEEE6insertB7v160006ENS_20__map_const_iteratorINS_21__tree_const_iteratorINS_12__value_typeIS6_SE_EEPNS_11__tree_nodeISP_PvEElEEEERKSJ_, symObjAddr: 0xDA04, symBinAddr: 0x10000E578, symSize: 0x50 }
  - { offsetInCU: 0x41F32, offset: 0x41F32, size: 0x8, addend: 0x0, symName: __ZNSt3__120__map_const_iteratorINS_21__tree_const_iteratorINS_12__value_typeINS_12basic_stringIcNS_11char_traitsIcEENS_9allocatorIcEEEEN8nlohmann16json_abi_v3_12_010basic_jsonINS_3mapENS_6vectorES8_bxydS6_NSA_14adl_serializerENSD_IhNS6_IhEEEEvEEEEPNS_11__tree_nodeISI_PvEElEEEC1B7v160006ESN_, symObjAddr: 0xDA54, symBinAddr: 0x10000E5C8, symSize: 0x34 }
  - { offsetInCU: 0x41F6B, offset: 0x41F6B, size: 0x8, addend: 0x0, symName: __ZNKSt3__120__map_const_iteratorINS_21__tree_const_iteratorINS_12__value_typeINS_12basic_stringIcNS_11char_traitsIcEENS_9allocatorIcEEEEN8nlohmann16json_abi_v3_12_010basic_jsonINS_3mapENS_6vectorES8_bxydS6_NSA_14adl_serializerENSD_IhNS6_IhEEEEvEEEEPNS_11__tree_nodeISI_PvEElEEEdeB7v160006Ev, symObjAddr: 0xDA88, symBinAddr: 0x10000E5FC, symSize: 0x28 }
  - { offsetInCU: 0x41F91, offset: 0x41F91, size: 0x8, addend: 0x0, symName: __ZNSt3__120__map_const_iteratorINS_21__tree_const_iteratorINS_12__value_typeINS_12basic_stringIcNS_11char_traitsIcEENS_9allocatorIcEEEEN8nlohmann16json_abi_v3_12_010basic_jsonINS_3mapENS_6vectorES8_bxydS6_NSA_14adl_serializerENSD_IhNS6_IhEEEEvEEEEPNS_11__tree_nodeISI_PvEElEEEppB7v160006Ev, symObjAddr: 0xDAB0, symBinAddr: 0x10000E624, symSize: 0x2C }
  - { offsetInCU: 0x41FB7, offset: 0x41FB7, size: 0x8, addend: 0x0, symName: __ZNSt3__16__treeINS_12__value_typeINS_12basic_stringIcNS_11char_traitsIcEENS_9allocatorIcEEEEN8nlohmann16json_abi_v3_12_010basic_jsonINS_3mapENS_6vectorES7_bxydS5_NS9_14adl_serializerENSC_IhNS5_IhEEEEvEEEENS_19__map_value_compareIS7_SH_NS_4lessIvEELb1EEENS5_ISH_EEE15__insert_uniqueB7v160006ENS_21__tree_const_iteratorISH_PNS_11__tree_nodeISH_PvEElEERKNS_4pairIKS7_SG_EE, symObjAddr: 0xDB40, symBinAddr: 0x10000E6B4, symSize: 0x64 }
  - { offsetInCU: 0x41FFB, offset: 0x41FFB, size: 0x8, addend: 0x0, symName: __ZNSt3__16__treeINS_12__value_typeINS_12basic_stringIcNS_11char_traitsIcEENS_9allocatorIcEEEEN8nlohmann16json_abi_v3_12_010basic_jsonINS_3mapENS_6vectorES7_bxydS5_NS9_14adl_serializerENSC_IhNS5_IhEEEEvEEEENS_19__map_value_compareIS7_SH_NS_4lessIvEELb1EEENS5_ISH_EEE30__emplace_hint_unique_key_argsIS7_JRKNS_4pairIKS7_SG_EEEEENSP_INS_15__tree_iteratorISH_PNS_11__tree_nodeISH_PvEElEEbEENS_21__tree_const_iteratorISH_SY_lEERKT_DpOT0_, symObjAddr: 0xDBA4, symBinAddr: 0x10000E718, symSize: 0x104 }
  - { offsetInCU: 0x420C8, offset: 0x420C8, size: 0x8, addend: 0x0, symName: __ZNSt3__122__tree_key_value_typesINS_12__value_typeINS_12basic_stringIcNS_11char_traitsIcEENS_9allocatorIcEEEEN8nlohmann16json_abi_v3_12_010basic_jsonINS_3mapENS_6vectorES7_bxydS5_NS9_14adl_serializerENSC_IhNS5_IhEEEEvEEEEE9__get_keyB7v160006IKNS_4pairIKS7_SG_EEEENS_9enable_ifIXsr17__is_same_uncvrefIT_SM_EE5valueERSL_E4typeERSP_, symObjAddr: 0xDCA8, symBinAddr: 0x10000E81C, symSize: 0x14 }
  - { offsetInCU: 0x420F5, offset: 0x420F5, size: 0x8, addend: 0x0, symName: __ZNSt3__16__treeINS_12__value_typeINS_12basic_stringIcNS_11char_traitsIcEENS_9allocatorIcEEEEN8nlohmann16json_abi_v3_12_010basic_jsonINS_3mapENS_6vectorES7_bxydS5_NS9_14adl_serializerENSC_IhNS5_IhEEEEvEEEENS_19__map_value_compareIS7_SH_NS_4lessIvEELb1EEENS5_ISH_EEE12__find_equalIS7_EERPNS_16__tree_node_baseIPvEENS_21__tree_const_iteratorISH_PNS_11__tree_nodeISH_SQ_EElEERPNS_15__tree_end_nodeISS_EEST_RKT_, symObjAddr: 0xDCBC, symBinAddr: 0x10000E830, symSize: 0x304 }
  - { offsetInCU: 0x4219E, offset: 0x4219E, size: 0x8, addend: 0x0, symName: __ZNSt3__16__treeINS_12__value_typeINS_12basic_stringIcNS_11char_traitsIcEENS_9allocatorIcEEEEN8nlohmann16json_abi_v3_12_010basic_jsonINS_3mapENS_6vectorES7_bxydS5_NS9_14adl_serializerENSC_IhNS5_IhEEEEvEEEENS_19__map_value_compareIS7_SH_NS_4lessIvEELb1EEENS5_ISH_EEE16__construct_nodeIJRKNS_4pairIKS7_SG_EEEEENS_10unique_ptrINS_11__tree_nodeISH_PvEENS_22__tree_node_destructorINS5_ISX_EEEEEEDpOT_, symObjAddr: 0xDFC0, symBinAddr: 0x10000EB34, symSize: 0x108 }
  - { offsetInCU: 0x421FF, offset: 0x421FF, size: 0x8, addend: 0x0, symName: __ZNSt3__121__tree_const_iteratorINS_12__value_typeINS_12basic_stringIcNS_11char_traitsIcEENS_9allocatorIcEEEEN8nlohmann16json_abi_v3_12_010basic_jsonINS_3mapENS_6vectorES7_bxydS5_NS9_14adl_serializerENSC_IhNS5_IhEEEEvEEEEPNS_11__tree_nodeISH_PvEElEC1B7v160006ENS_15__tree_iteratorISH_SL_lEE, symObjAddr: 0xE0C8, symBinAddr: 0x10000EC3C, symSize: 0x34 }
  - { offsetInCU: 0x42238, offset: 0x42238, size: 0x8, addend: 0x0, symName: __ZNKSt3__121__tree_const_iteratorINS_12__value_typeINS_12basic_stringIcNS_11char_traitsIcEENS_9allocatorIcEEEEN8nlohmann16json_abi_v3_12_010basic_jsonINS_3mapENS_6vectorES7_bxydS5_NS9_14adl_serializerENSC_IhNS5_IhEEEEvEEEEPNS_11__tree_nodeISH_PvEElEdeB7v160006Ev, symObjAddr: 0xE0FC, symBinAddr: 0x10000EC70, symSize: 0x28 }
  - { offsetInCU: 0x4225E, offset: 0x4225E, size: 0x8, addend: 0x0, symName: __ZNSt3__121__tree_const_iteratorINS_12__value_typeINS_12basic_stringIcNS_11char_traitsIcEENS_9allocatorIcEEEEN8nlohmann16json_abi_v3_12_010basic_jsonINS_3mapENS_6vectorES7_bxydS5_NS9_14adl_serializerENSC_IhNS5_IhEEEEvEEEEPNS_11__tree_nodeISH_PvEElEmmB7v160006Ev, symObjAddr: 0xE124, symBinAddr: 0x10000EC98, symSize: 0x38 }
  - { offsetInCU: 0x42284, offset: 0x42284, size: 0x8, addend: 0x0, symName: __ZNKSt3__121__tree_const_iteratorINS_12__value_typeINS_12basic_stringIcNS_11char_traitsIcEENS_9allocatorIcEEEEN8nlohmann16json_abi_v3_12_010basic_jsonINS_3mapENS_6vectorES7_bxydS5_NS9_14adl_serializerENSC_IhNS5_IhEEEEvEEEEPNS_11__tree_nodeISH_PvEElE8__get_npB7v160006Ev, symObjAddr: 0xE1AC, symBinAddr: 0x10000ED20, symSize: 0x18 }
  - { offsetInCU: 0x422AA, offset: 0x422AA, size: 0x8, addend: 0x0, symName: __ZNSt3__121__tree_const_iteratorINS_12__value_typeINS_12basic_stringIcNS_11char_traitsIcEENS_9allocatorIcEEEEN8nlohmann16json_abi_v3_12_010basic_jsonINS_3mapENS_6vectorES7_bxydS5_NS9_14adl_serializerENSC_IhNS5_IhEEEEvEEEEPNS_11__tree_nodeISH_PvEElEC2B7v160006ENS_15__tree_iteratorISH_SL_lEE, symObjAddr: 0xE1C4, symBinAddr: 0x10000ED38, symSize: 0x20 }
  - { offsetInCU: 0x422E3, offset: 0x422E3, size: 0x8, addend: 0x0, symName: __ZNSt3__121__tree_const_iteratorINS_12__value_typeINS_12basic_stringIcNS_11char_traitsIcEENS_9allocatorIcEEEEN8nlohmann16json_abi_v3_12_010basic_jsonINS_3mapENS_6vectorES7_bxydS5_NS9_14adl_serializerENSC_IhNS5_IhEEEEvEEEEPNS_11__tree_nodeISH_PvEElEppB7v160006Ev, symObjAddr: 0xE3A0, symBinAddr: 0x10000EF14, symSize: 0x38 }
  - { offsetInCU: 0x42309, offset: 0x42309, size: 0x8, addend: 0x0, symName: __ZNSt3__116allocator_traitsINS_9allocatorINS_11__tree_nodeINS_12__value_typeINS_12basic_stringIcNS_11char_traitsIcEENS1_IcEEEEN8nlohmann16json_abi_v3_12_010basic_jsonINS_3mapENS_6vectorES8_bxydS1_NSA_14adl_serializerENSD_IhNS1_IhEEEEvEEEEPvEEEEE9constructB7v160006INS_4pairIKS8_SH_EEJRKSQ_EvvEEvRSL_PT_DpOT0_, symObjAddr: 0xE3D8, symBinAddr: 0x10000EF4C, symSize: 0x30 }
  - { offsetInCU: 0x4235D, offset: 0x4235D, size: 0x8, addend: 0x0, symName: __ZNSt3__14pairIKNS_12basic_stringIcNS_11char_traitsIcEENS_9allocatorIcEEEEN8nlohmann16json_abi_v3_12_010basic_jsonINS_3mapENS_6vectorES6_bxydS4_NS9_14adl_serializerENSC_IhNS4_IhEEEEvEEEC1ERKSH_, symObjAddr: 0xE444, symBinAddr: 0x10000EFB8, symSize: 0x34 }
  - { offsetInCU: 0x42392, offset: 0x42392, size: 0x8, addend: 0x0, symName: __ZNSt3__14pairIKNS_12basic_stringIcNS_11char_traitsIcEENS_9allocatorIcEEEEN8nlohmann16json_abi_v3_12_010basic_jsonINS_3mapENS_6vectorES6_bxydS4_NS9_14adl_serializerENSC_IhNS4_IhEEEEvEEEC2ERKSH_, symObjAddr: 0xE478, symBinAddr: 0x10000EFEC, symSize: 0x70 }
  - { offsetInCU: 0x423C7, offset: 0x423C7, size: 0x8, addend: 0x0, symName: __ZNSt3__120__map_const_iteratorINS_21__tree_const_iteratorINS_12__value_typeINS_12basic_stringIcNS_11char_traitsIcEENS_9allocatorIcEEEEN8nlohmann16json_abi_v3_12_010basic_jsonINS_3mapENS_6vectorES8_bxydS6_NSA_14adl_serializerENSD_IhNS6_IhEEEEvEEEEPNS_11__tree_nodeISI_PvEElEEEC2B7v160006ESN_, symObjAddr: 0xE4E8, symBinAddr: 0x10000F05C, symSize: 0x20 }
  - { offsetInCU: 0x42400, offset: 0x42400, size: 0x8, addend: 0x0, symName: __ZNKSt3__121__tree_const_iteratorINS_12__value_typeINS_12basic_stringIcNS_11char_traitsIcEENS_9allocatorIcEEEEN8nlohmann16json_abi_v3_12_010basic_jsonINS_3mapENS_6vectorES7_bxydS5_NS9_14adl_serializerENSC_IhNS5_IhEEEEvEEEEPNS_11__tree_nodeISH_PvEElEptB7v160006Ev, symObjAddr: 0xE508, symBinAddr: 0x10000F07C, symSize: 0x2C }
  - { offsetInCU: 0x42426, offset: 0x42426, size: 0x8, addend: 0x0, symName: __ZNSt3__114pointer_traitsIPKNS_12__value_typeINS_12basic_stringIcNS_11char_traitsIcEENS_9allocatorIcEEEEN8nlohmann16json_abi_v3_12_010basic_jsonINS_3mapENS_6vectorES7_bxydS5_NS9_14adl_serializerENSC_IhNS5_IhEEEEvEEEEE10pointer_toB7v160006ERSI_, symObjAddr: 0xE534, symBinAddr: 0x10000F0A8, symSize: 0x14 }
  - { offsetInCU: 0x4244A, offset: 0x4244A, size: 0x8, addend: 0x0, symName: __ZNKSt3__16__treeINS_12__value_typeINS_12basic_stringIcNS_11char_traitsIcEENS_9allocatorIcEEEEN8nlohmann16json_abi_v3_12_010basic_jsonINS_3mapENS_6vectorES7_bxydS5_NS9_14adl_serializerENSC_IhNS5_IhEEEEvEEEENS_19__map_value_compareIS7_SH_NS_4lessIvEELb1EEENS5_ISH_EEE5beginB7v160006Ev, symObjAddr: 0xE548, symBinAddr: 0x10000F0BC, symSize: 0x34 }
  - { offsetInCU: 0x42470, offset: 0x42470, size: 0x8, addend: 0x0, symName: __ZNKSt3__16__treeINS_12__value_typeINS_12basic_stringIcNS_11char_traitsIcEENS_9allocatorIcEEEEN8nlohmann16json_abi_v3_12_010basic_jsonINS_3mapENS_6vectorES7_bxydS5_NS9_14adl_serializerENSC_IhNS5_IhEEEEvEEEENS_19__map_value_compareIS7_SH_NS_4lessIvEELb1EEENS5_ISH_EEE12__begin_nodeB7v160006Ev, symObjAddr: 0xE57C, symBinAddr: 0x10000F0F0, symSize: 0x14 }
  - { offsetInCU: 0x42496, offset: 0x42496, size: 0x8, addend: 0x0, symName: __ZNSt3__121__tree_const_iteratorINS_12__value_typeINS_12basic_stringIcNS_11char_traitsIcEENS_9allocatorIcEEEEN8nlohmann16json_abi_v3_12_010basic_jsonINS_3mapENS_6vectorES7_bxydS5_NS9_14adl_serializerENSC_IhNS5_IhEEEEvEEEEPNS_11__tree_nodeISH_PvEElEC1B7v160006EPNS_15__tree_end_nodeIPNS_16__tree_node_baseISJ_EEEE, symObjAddr: 0xE590, symBinAddr: 0x10000F104, symSize: 0x34 }
  - { offsetInCU: 0x424CF, offset: 0x424CF, size: 0x8, addend: 0x0, symName: __ZNSt3__121__tree_const_iteratorINS_12__value_typeINS_12basic_stringIcNS_11char_traitsIcEENS_9allocatorIcEEEEN8nlohmann16json_abi_v3_12_010basic_jsonINS_3mapENS_6vectorES7_bxydS5_NS9_14adl_serializerENSC_IhNS5_IhEEEEvEEEEPNS_11__tree_nodeISH_PvEElEC2B7v160006EPNS_15__tree_end_nodeIPNS_16__tree_node_baseISJ_EEEE, symObjAddr: 0xE5C4, symBinAddr: 0x10000F138, symSize: 0x20 }
  - { offsetInCU: 0x42508, offset: 0x42508, size: 0x8, addend: 0x0, symName: __ZNKSt3__16__treeINS_12__value_typeINS_12basic_stringIcNS_11char_traitsIcEENS_9allocatorIcEEEEN8nlohmann16json_abi_v3_12_010basic_jsonINS_3mapENS_6vectorES7_bxydS5_NS9_14adl_serializerENSC_IhNS5_IhEEEEvEEEENS_19__map_value_compareIS7_SH_NS_4lessIvEELb1EEENS5_ISH_EEE3endB7v160006Ev, symObjAddr: 0xE5E4, symBinAddr: 0x10000F158, symSize: 0x34 }
  - { offsetInCU: 0x4252E, offset: 0x4252E, size: 0x8, addend: 0x0, symName: __ZNKSt3__117__compressed_pairIPNS_3mapINS_12basic_stringIcNS_11char_traitsIcEENS_9allocatorIcEEEEN8nlohmann16json_abi_v3_12_010basic_jsonIS1_NS_6vectorES7_bxydS5_NS9_14adl_serializerENSB_IhNS5_IhEEEEvEENS_4lessIvEENS5_INS_4pairIKS7_SF_EEEEEEZNSF_6createISM_JRKSM_EEEPT_DpOT0_EUlSN_E_E5firstB7v160006Ev, symObjAddr: 0xE618, symBinAddr: 0x10000F18C, symSize: 0x24 }
  - { offsetInCU: 0x42554, offset: 0x42554, size: 0x8, addend: 0x0, symName: __ZNKSt3__110unique_ptrINS_3mapINS_12basic_stringIcNS_11char_traitsIcEENS_9allocatorIcEEEEN8nlohmann16json_abi_v3_12_010basic_jsonIS1_NS_6vectorES7_bxydS5_NS9_14adl_serializerENSB_IhNS5_IhEEEEvEENS_4lessIvEENS5_INS_4pairIKS7_SF_EEEEEEZNSF_6createISM_JRKSM_EEEPT_DpOT0_EUlPSM_E_EcvbB7v160006Ev, symObjAddr: 0xE63C, symBinAddr: 0x10000F1B0, symSize: 0x34 }
  - { offsetInCU: 0x4257A, offset: 0x4257A, size: 0x8, addend: 0x0, symName: __ZNSt3__117__compressed_pairIPNS_3mapINS_12basic_stringIcNS_11char_traitsIcEENS_9allocatorIcEEEEN8nlohmann16json_abi_v3_12_010basic_jsonIS1_NS_6vectorES7_bxydS5_NS9_14adl_serializerENSB_IhNS5_IhEEEEvEENS_4lessIvEENS5_INS_4pairIKS7_SF_EEEEEEZNSF_6createISM_JRKSM_EEEPT_DpOT0_EUlSN_E_E5firstB7v160006Ev, symObjAddr: 0xE670, symBinAddr: 0x10000F1E4, symSize: 0x24 }
  - { offsetInCU: 0x425A0, offset: 0x425A0, size: 0x8, addend: 0x0, symName: __ZNSt3__110unique_ptrINS_3mapINS_12basic_stringIcNS_11char_traitsIcEENS_9allocatorIcEEEEN8nlohmann16json_abi_v3_12_010basic_jsonIS1_NS_6vectorES7_bxydS5_NS9_14adl_serializerENSB_IhNS5_IhEEEEvEENS_4lessIvEENS5_INS_4pairIKS7_SF_EEEEEEZNSF_6createISM_JRKSM_EEEPT_DpOT0_EUlPSM_E_ED2B7v160006Ev, symObjAddr: 0xE694, symBinAddr: 0x10000F208, symSize: 0x30 }
  - { offsetInCU: 0x425CA, offset: 0x425CA, size: 0x8, addend: 0x0, symName: __ZNSt3__110unique_ptrINS_3mapINS_12basic_stringIcNS_11char_traitsIcEENS_9allocatorIcEEEEN8nlohmann16json_abi_v3_12_010basic_jsonIS1_NS_6vectorES7_bxydS5_NS9_14adl_serializerENSB_IhNS5_IhEEEEvEENS_4lessIvEENS5_INS_4pairIKS7_SF_EEEEEEZNSF_6createISM_JRKSM_EEEPT_DpOT0_EUlPSM_E_E5resetB7v160006ESV_, symObjAddr: 0xE6C4, symBinAddr: 0x10000F238, symSize: 0x80 }
  - { offsetInCU: 0x4260E, offset: 0x4260E, size: 0x8, addend: 0x0, symName: __ZNSt3__117__compressed_pairIPNS_3mapINS_12basic_stringIcNS_11char_traitsIcEENS_9allocatorIcEEEEN8nlohmann16json_abi_v3_12_010basic_jsonIS1_NS_6vectorES7_bxydS5_NS9_14adl_serializerENSB_IhNS5_IhEEEEvEENS_4lessIvEENS5_INS_4pairIKS7_SF_EEEEEEZNSF_6createISM_JRKSM_EEEPT_DpOT0_EUlSN_E_E6secondB7v160006Ev, symObjAddr: 0xE744, symBinAddr: 0x10000F2B8, symSize: 0x28 }
  - { offsetInCU: 0x4263A, offset: 0x4263A, size: 0x8, addend: 0x0, symName: __ZZN8nlohmann16json_abi_v3_12_010basic_jsonINSt3__13mapENS2_6vectorENS2_12basic_stringIcNS2_11char_traitsIcEENS2_9allocatorIcEEEEbxydS8_NS0_14adl_serializerENS4_IhNS8_IhEEEEvE6createINS3_ISA_SE_NS2_4lessIvEENS8_INS2_4pairIKSA_SE_EEEEEEJRKSM_EEEPT_DpOT0_ENKUlPSM_E_clESU_, symObjAddr: 0xE76C, symBinAddr: 0x10000F2E0, symSize: 0x34 }
  - { offsetInCU: 0x42673, offset: 0x42673, size: 0x8, addend: 0x0, symName: __ZNSt3__122__compressed_pair_elemIZN8nlohmann16json_abi_v3_12_010basic_jsonINS_3mapENS_6vectorENS_12basic_stringIcNS_11char_traitsIcEENS_9allocatorIcEEEEbxydS9_NS2_14adl_serializerENS5_IhNS9_IhEEEEvE6createINS4_ISB_SF_NS_4lessIvEENS9_INS_4pairIKSB_SF_EEEEEEJRKSN_EEEPT_DpOT0_EUlPSN_E_Li1ELb0EE5__getB7v160006Ev, symObjAddr: 0xE7A0, symBinAddr: 0x10000F314, symSize: 0x14 }
  - { offsetInCU: 0x42699, offset: 0x42699, size: 0x8, addend: 0x0, symName: __ZN8nlohmann16json_abi_v3_12_010basic_jsonINSt3__13mapENS2_6vectorENS2_12basic_stringIcNS2_11char_traitsIcEENS2_9allocatorIcEEEEbxydS8_NS0_14adl_serializerENS4_IhNS8_IhEEEEvE10json_valueC2ERKNS4_ISE_NS8_ISE_EEEE, symObjAddr: 0xE7B4, symBinAddr: 0x10000F328, symSize: 0x3C }
  - { offsetInCU: 0x426D2, offset: 0x426D2, size: 0x8, addend: 0x0, symName: __ZN8nlohmann16json_abi_v3_12_010basic_jsonINSt3__13mapENS2_6vectorENS2_12basic_stringIcNS2_11char_traitsIcEENS2_9allocatorIcEEEEbxydS8_NS0_14adl_serializerENS4_IhNS8_IhEEEEvE6createINS4_ISE_NS8_ISE_EEEEJRKSH_EEEPT_DpOT0_, symObjAddr: 0xE7F0, symBinAddr: 0x10000F364, symSize: 0xF4 }
  - { offsetInCU: 0x427D3, offset: 0x427D3, size: 0x8, addend: 0x0, symName: __ZNSt3__110unique_ptrINS_6vectorIN8nlohmann16json_abi_v3_12_010basic_jsonINS_3mapES1_NS_12basic_stringIcNS_11char_traitsIcEENS_9allocatorIcEEEEbxydS9_NS3_14adl_serializerENS1_IhNS9_IhEEEEvEENS9_ISF_EEEEZNSF_6createISH_JRKSH_EEEPT_DpOT0_EUlPSH_E_EC1B7v160006ILb1EvEESQ_NS_16__dependent_typeINS_27__unique_ptr_deleter_sfinaeISR_EEXT_EE15__lval_ref_typeE, symObjAddr: 0xE8E4, symBinAddr: 0x10000F458, symSize: 0x3C }
  - { offsetInCU: 0x42826, offset: 0x42826, size: 0x8, addend: 0x0, symName: __ZNSt3__116allocator_traitsINS_9allocatorINS_6vectorIN8nlohmann16json_abi_v3_12_010basic_jsonINS_3mapES2_NS_12basic_stringIcNS_11char_traitsIcEENS1_IcEEEEbxydS1_NS4_14adl_serializerENS2_IhNS1_IhEEEEvEENS1_ISF_EEEEEEE9constructB7v160006ISH_JRKSH_EvvEEvRSI_PT_DpOT0_, symObjAddr: 0xE920, symBinAddr: 0x10000F494, symSize: 0x30 }
  - { offsetInCU: 0x4287A, offset: 0x4287A, size: 0x8, addend: 0x0, symName: __ZNKSt3__110unique_ptrINS_6vectorIN8nlohmann16json_abi_v3_12_010basic_jsonINS_3mapES1_NS_12basic_stringIcNS_11char_traitsIcEENS_9allocatorIcEEEEbxydS9_NS3_14adl_serializerENS1_IhNS9_IhEEEEvEENS9_ISF_EEEEZNSF_6createISH_JRKSH_EEEPT_DpOT0_EUlPSH_E_E3getB7v160006Ev, symObjAddr: 0xE950, symBinAddr: 0x10000F4C4, symSize: 0x28 }
  - { offsetInCU: 0x428A0, offset: 0x428A0, size: 0x8, addend: 0x0, symName: __ZNSt3__110unique_ptrINS_6vectorIN8nlohmann16json_abi_v3_12_010basic_jsonINS_3mapES1_NS_12basic_stringIcNS_11char_traitsIcEENS_9allocatorIcEEEEbxydS9_NS3_14adl_serializerENS1_IhNS9_IhEEEEvEENS9_ISF_EEEEZNSF_6createISH_JRKSH_EEEPT_DpOT0_EUlPSH_E_E7releaseB7v160006Ev, symObjAddr: 0xE9A8, symBinAddr: 0x10000F51C, symSize: 0x44 }
  - { offsetInCU: 0x428D5, offset: 0x428D5, size: 0x8, addend: 0x0, symName: __ZNSt3__110unique_ptrINS_6vectorIN8nlohmann16json_abi_v3_12_010basic_jsonINS_3mapES1_NS_12basic_stringIcNS_11char_traitsIcEENS_9allocatorIcEEEEbxydS9_NS3_14adl_serializerENS1_IhNS9_IhEEEEvEENS9_ISF_EEEEZNSF_6createISH_JRKSH_EEEPT_DpOT0_EUlPSH_E_ED1B7v160006Ev, symObjAddr: 0xE9EC, symBinAddr: 0x10000F560, symSize: 0x2C }
  - { offsetInCU: 0x428FF, offset: 0x428FF, size: 0x8, addend: 0x0, symName: __ZNSt3__110unique_ptrINS_6vectorIN8nlohmann16json_abi_v3_12_010basic_jsonINS_3mapES1_NS_12basic_stringIcNS_11char_traitsIcEENS_9allocatorIcEEEEbxydS9_NS3_14adl_serializerENS1_IhNS9_IhEEEEvEENS9_ISF_EEEEZNSF_6createISH_JRKSH_EEEPT_DpOT0_EUlPSH_E_EC2B7v160006ILb1EvEESQ_NS_16__dependent_typeINS_27__unique_ptr_deleter_sfinaeISR_EEXT_EE15__lval_ref_typeE, symObjAddr: 0xEA18, symBinAddr: 0x10000F58C, symSize: 0x48 }
  - { offsetInCU: 0x42952, offset: 0x42952, size: 0x8, addend: 0x0, symName: __ZNSt3__117__compressed_pairIPNS_6vectorIN8nlohmann16json_abi_v3_12_010basic_jsonINS_3mapES1_NS_12basic_stringIcNS_11char_traitsIcEENS_9allocatorIcEEEEbxydS9_NS3_14adl_serializerENS1_IhNS9_IhEEEEvEENS9_ISF_EEEEZNSF_6createISH_JRKSH_EEEPT_DpOT0_EUlSI_E_EC1B7v160006IRSI_RKSR_EEOSM_OT0_, symObjAddr: 0xEA60, symBinAddr: 0x10000F5D4, symSize: 0x3C }
  - { offsetInCU: 0x429AC, offset: 0x429AC, size: 0x8, addend: 0x0, symName: __ZNSt3__117__compressed_pairIPNS_6vectorIN8nlohmann16json_abi_v3_12_010basic_jsonINS_3mapES1_NS_12basic_stringIcNS_11char_traitsIcEENS_9allocatorIcEEEEbxydS9_NS3_14adl_serializerENS1_IhNS9_IhEEEEvEENS9_ISF_EEEEZNSF_6createISH_JRKSH_EEEPT_DpOT0_EUlSI_E_EC2B7v160006IRSI_RKSR_EEOSM_OT0_, symObjAddr: 0xEA9C, symBinAddr: 0x10000F610, symSize: 0x48 }
  - { offsetInCU: 0x42A06, offset: 0x42A06, size: 0x8, addend: 0x0, symName: __ZNSt3__122__compressed_pair_elemIZN8nlohmann16json_abi_v3_12_010basic_jsonINS_3mapENS_6vectorENS_12basic_stringIcNS_11char_traitsIcEENS_9allocatorIcEEEEbxydS9_NS2_14adl_serializerENS5_IhNS9_IhEEEEvE6createINS5_ISF_NS9_ISF_EEEEJRKSI_EEEPT_DpOT0_EUlPSI_E_Li1ELb0EEC2B7v160006IRKSR_vEEOSL_, symObjAddr: 0xEAE4, symBinAddr: 0x10000F658, symSize: 0x24 }
  - { offsetInCU: 0x42A49, offset: 0x42A49, size: 0x8, addend: 0x0, symName: __ZNSt3__16vectorIN8nlohmann16json_abi_v3_12_010basic_jsonINS_3mapES0_NS_12basic_stringIcNS_11char_traitsIcEENS_9allocatorIcEEEEbxydS8_NS2_14adl_serializerENS0_IhNS8_IhEEEEvEENS8_ISE_EEEC1ERKSG_, symObjAddr: 0xEB44, symBinAddr: 0x10000F6B8, symSize: 0x34 }
  - { offsetInCU: 0x42A84, offset: 0x42A84, size: 0x8, addend: 0x0, symName: __ZNSt3__16vectorIN8nlohmann16json_abi_v3_12_010basic_jsonINS_3mapES0_NS_12basic_stringIcNS_11char_traitsIcEENS_9allocatorIcEEEEbxydS8_NS2_14adl_serializerENS0_IhNS8_IhEEEEvEENS8_ISE_EEEC2ERKSG_, symObjAddr: 0xEB78, symBinAddr: 0x10000F6EC, symSize: 0x110 }
  - { offsetInCU: 0x42AE4, offset: 0x42AE4, size: 0x8, addend: 0x0, symName: __ZNSt3__116allocator_traitsINS_9allocatorIN8nlohmann16json_abi_v3_12_010basic_jsonINS_3mapENS_6vectorENS_12basic_stringIcNS_11char_traitsIcEENS1_IcEEEEbxydS1_NS3_14adl_serializerENS6_IhNS1_IhEEEEvEEEEE37select_on_container_copy_constructionB7v160006ISG_vvEESG_RKSG_, symObjAddr: 0xEC88, symBinAddr: 0x10000F7FC, symSize: 0x10 }
  - { offsetInCU: 0x42B19, offset: 0x42B19, size: 0x8, addend: 0x0, symName: __ZNSt3__117__compressed_pairIPN8nlohmann16json_abi_v3_12_010basic_jsonINS_3mapENS_6vectorENS_12basic_stringIcNS_11char_traitsIcEENS_9allocatorIcEEEEbxydS9_NS2_14adl_serializerENS5_IhNS9_IhEEEEvEENS9_ISF_EEEC1B7v160006IDnSH_EEOT_OT0_, symObjAddr: 0xEC98, symBinAddr: 0x10000F80C, symSize: 0x3C }
  - { offsetInCU: 0x42B73, offset: 0x42B73, size: 0x8, addend: 0x0, symName: __ZNSt3__16vectorIN8nlohmann16json_abi_v3_12_010basic_jsonINS_3mapES0_NS_12basic_stringIcNS_11char_traitsIcEENS_9allocatorIcEEEEbxydS8_NS2_14adl_serializerENS0_IhNS8_IhEEEEvEENS8_ISE_EEE11__vallocateB7v160006Em, symObjAddr: 0xED14, symBinAddr: 0x10000F888, symSize: 0xAC }
  - { offsetInCU: 0x42BB7, offset: 0x42BB7, size: 0x8, addend: 0x0, symName: __ZNSt3__16vectorIN8nlohmann16json_abi_v3_12_010basic_jsonINS_3mapES0_NS_12basic_stringIcNS_11char_traitsIcEENS_9allocatorIcEEEEbxydS8_NS2_14adl_serializerENS0_IhNS8_IhEEEEvEENS8_ISE_EEE18__construct_at_endIPSE_Li0EEEvT_SJ_m, symObjAddr: 0xEDC0, symBinAddr: 0x10000F934, symSize: 0x8C }
  - { offsetInCU: 0x42C2A, offset: 0x42C2A, size: 0x8, addend: 0x0, symName: __ZNSt3__128__exception_guard_exceptionsINS_6vectorIN8nlohmann16json_abi_v3_12_010basic_jsonINS_3mapES1_NS_12basic_stringIcNS_11char_traitsIcEENS_9allocatorIcEEEEbxydS9_NS3_14adl_serializerENS1_IhNS9_IhEEEEvEENS9_ISF_EEE16__destroy_vectorEE10__completeB7v160006Ev, symObjAddr: 0xEE4C, symBinAddr: 0x10000F9C0, symSize: 0x1C }
  - { offsetInCU: 0x42C50, offset: 0x42C50, size: 0x8, addend: 0x0, symName: __ZNSt3__128__exception_guard_exceptionsINS_6vectorIN8nlohmann16json_abi_v3_12_010basic_jsonINS_3mapES1_NS_12basic_stringIcNS_11char_traitsIcEENS_9allocatorIcEEEEbxydS9_NS3_14adl_serializerENS1_IhNS9_IhEEEEvEENS9_ISF_EEE16__destroy_vectorEED1B7v160006Ev, symObjAddr: 0xEE68, symBinAddr: 0x10000F9DC, symSize: 0x2C }
  - { offsetInCU: 0x42C7A, offset: 0x42C7A, size: 0x8, addend: 0x0, symName: __ZNSt3__117__compressed_pairIPN8nlohmann16json_abi_v3_12_010basic_jsonINS_3mapENS_6vectorENS_12basic_stringIcNS_11char_traitsIcEENS_9allocatorIcEEEEbxydS9_NS2_14adl_serializerENS5_IhNS9_IhEEEEvEENS9_ISF_EEEC2B7v160006IDnSH_EEOT_OT0_, symObjAddr: 0xEE94, symBinAddr: 0x10000FA08, symSize: 0x44 }
  - { offsetInCU: 0x42CD4, offset: 0x42CD4, size: 0x8, addend: 0x0, symName: __ZNSt3__122__compressed_pair_elemINS_9allocatorIN8nlohmann16json_abi_v3_12_010basic_jsonINS_3mapENS_6vectorENS_12basic_stringIcNS_11char_traitsIcEENS1_IcEEEEbxydS1_NS3_14adl_serializerENS6_IhNS1_IhEEEEvEEEELi1ELb1EEC2B7v160006ISG_vEEOT_, symObjAddr: 0xEED8, symBinAddr: 0x10000FA4C, symSize: 0x18 }
  - { offsetInCU: 0x42D17, offset: 0x42D17, size: 0x8, addend: 0x0, symName: __ZNSt3__128__exception_guard_exceptionsINS_6vectorIN8nlohmann16json_abi_v3_12_010basic_jsonINS_3mapES1_NS_12basic_stringIcNS_11char_traitsIcEENS_9allocatorIcEEEEbxydS9_NS3_14adl_serializerENS1_IhNS9_IhEEEEvEENS9_ISF_EEE16__destroy_vectorEEC1B7v160006ESI_, symObjAddr: 0xEEF0, symBinAddr: 0x10000FA64, symSize: 0x34 }
  - { offsetInCU: 0x42D50, offset: 0x42D50, size: 0x8, addend: 0x0, symName: __ZNSt3__128__exception_guard_exceptionsINS_6vectorIN8nlohmann16json_abi_v3_12_010basic_jsonINS_3mapES1_NS_12basic_stringIcNS_11char_traitsIcEENS_9allocatorIcEEEEbxydS9_NS3_14adl_serializerENS1_IhNS9_IhEEEEvEENS9_ISF_EEE16__destroy_vectorEEC2B7v160006ESI_, symObjAddr: 0xEF24, symBinAddr: 0x10000FA98, symSize: 0x24 }
  - { offsetInCU: 0x42D89, offset: 0x42D89, size: 0x8, addend: 0x0, symName: __ZNSt3__129_AllocatorDestroyRangeReverseINS_9allocatorIN8nlohmann16json_abi_v3_12_010basic_jsonINS_3mapENS_6vectorENS_12basic_stringIcNS_11char_traitsIcEENS1_IcEEEEbxydS1_NS3_14adl_serializerENS6_IhNS1_IhEEEEvEEEEPSF_EC1B7v160006ERSG_RSH_SK_, symObjAddr: 0xF088, symBinAddr: 0x10000FBFC, symSize: 0x44 }
  - { offsetInCU: 0x42DE0, offset: 0x42DE0, size: 0x8, addend: 0x0, symName: __ZNSt3__116allocator_traitsINS_9allocatorIN8nlohmann16json_abi_v3_12_010basic_jsonINS_3mapENS_6vectorENS_12basic_stringIcNS_11char_traitsIcEENS1_IcEEEEbxydS1_NS3_14adl_serializerENS6_IhNS1_IhEEEEvEEEEE9constructB7v160006ISF_JRSF_EvvEEvRSG_PT_DpOT0_, symObjAddr: 0xF0CC, symBinAddr: 0x10000FC40, symSize: 0x30 }
  - { offsetInCU: 0x42E34, offset: 0x42E34, size: 0x8, addend: 0x0, symName: __ZNSt3__128__exception_guard_exceptionsINS_29_AllocatorDestroyRangeReverseINS_9allocatorIN8nlohmann16json_abi_v3_12_010basic_jsonINS_3mapENS_6vectorENS_12basic_stringIcNS_11char_traitsIcEENS2_IcEEEEbxydS2_NS4_14adl_serializerENS7_IhNS2_IhEEEEvEEEEPSG_EEE10__completeB7v160006Ev, symObjAddr: 0xF0FC, symBinAddr: 0x10000FC70, symSize: 0x1C }
  - { offsetInCU: 0x42E5A, offset: 0x42E5A, size: 0x8, addend: 0x0, symName: __ZNSt3__128__exception_guard_exceptionsINS_29_AllocatorDestroyRangeReverseINS_9allocatorIN8nlohmann16json_abi_v3_12_010basic_jsonINS_3mapENS_6vectorENS_12basic_stringIcNS_11char_traitsIcEENS2_IcEEEEbxydS2_NS4_14adl_serializerENS7_IhNS2_IhEEEEvEEEEPSG_EEED1B7v160006Ev, symObjAddr: 0xF118, symBinAddr: 0x10000FC8C, symSize: 0x2C }
  - { offsetInCU: 0x42E84, offset: 0x42E84, size: 0x8, addend: 0x0, symName: __ZNSt3__128__exception_guard_exceptionsINS_29_AllocatorDestroyRangeReverseINS_9allocatorIN8nlohmann16json_abi_v3_12_010basic_jsonINS_3mapENS_6vectorENS_12basic_stringIcNS_11char_traitsIcEENS2_IcEEEEbxydS2_NS4_14adl_serializerENS7_IhNS2_IhEEEEvEEEEPSG_EEEC1B7v160006ESJ_, symObjAddr: 0xF144, symBinAddr: 0x10000FCB8, symSize: 0x34 }
  - { offsetInCU: 0x42EBE, offset: 0x42EBE, size: 0x8, addend: 0x0, symName: __ZNSt3__128__exception_guard_exceptionsINS_29_AllocatorDestroyRangeReverseINS_9allocatorIN8nlohmann16json_abi_v3_12_010basic_jsonINS_3mapENS_6vectorENS_12basic_stringIcNS_11char_traitsIcEENS2_IcEEEEbxydS2_NS4_14adl_serializerENS7_IhNS2_IhEEEEvEEEEPSG_EEEC2B7v160006ESJ_, symObjAddr: 0xF178, symBinAddr: 0x10000FCEC, symSize: 0x30 }
  - { offsetInCU: 0x42EF8, offset: 0x42EF8, size: 0x8, addend: 0x0, symName: __ZNSt3__129_AllocatorDestroyRangeReverseINS_9allocatorIN8nlohmann16json_abi_v3_12_010basic_jsonINS_3mapENS_6vectorENS_12basic_stringIcNS_11char_traitsIcEENS1_IcEEEEbxydS1_NS3_14adl_serializerENS6_IhNS1_IhEEEEvEEEEPSF_EC2B7v160006ERSG_RSH_SK_, symObjAddr: 0xF1A8, symBinAddr: 0x10000FD1C, symSize: 0x38 }
  - { offsetInCU: 0x42F4F, offset: 0x42F4F, size: 0x8, addend: 0x0, symName: __ZNSt3__128__exception_guard_exceptionsINS_29_AllocatorDestroyRangeReverseINS_9allocatorIN8nlohmann16json_abi_v3_12_010basic_jsonINS_3mapENS_6vectorENS_12basic_stringIcNS_11char_traitsIcEENS2_IcEEEEbxydS2_NS4_14adl_serializerENS7_IhNS2_IhEEEEvEEEEPSG_EEED2B7v160006Ev, symObjAddr: 0xF21C, symBinAddr: 0x10000FD90, symSize: 0x50 }
  - { offsetInCU: 0x42F79, offset: 0x42F79, size: 0x8, addend: 0x0, symName: __ZNKSt3__129_AllocatorDestroyRangeReverseINS_9allocatorIN8nlohmann16json_abi_v3_12_010basic_jsonINS_3mapENS_6vectorENS_12basic_stringIcNS_11char_traitsIcEENS1_IcEEEEbxydS1_NS3_14adl_serializerENS6_IhNS1_IhEEEEvEEEEPSF_EclB7v160006Ev, symObjAddr: 0xF26C, symBinAddr: 0x10000FDE0, symSize: 0x68 }
  - { offsetInCU: 0x42F9F, offset: 0x42F9F, size: 0x8, addend: 0x0, symName: __ZNSt3__128__exception_guard_exceptionsINS_6vectorIN8nlohmann16json_abi_v3_12_010basic_jsonINS_3mapES1_NS_12basic_stringIcNS_11char_traitsIcEENS_9allocatorIcEEEEbxydS9_NS3_14adl_serializerENS1_IhNS9_IhEEEEvEENS9_ISF_EEE16__destroy_vectorEED2B7v160006Ev, symObjAddr: 0xF344, symBinAddr: 0x10000FEB8, symSize: 0x50 }
  - { offsetInCU: 0x42FC9, offset: 0x42FC9, size: 0x8, addend: 0x0, symName: __ZNKSt3__117__compressed_pairIPNS_6vectorIN8nlohmann16json_abi_v3_12_010basic_jsonINS_3mapES1_NS_12basic_stringIcNS_11char_traitsIcEENS_9allocatorIcEEEEbxydS9_NS3_14adl_serializerENS1_IhNS9_IhEEEEvEENS9_ISF_EEEEZNSF_6createISH_JRKSH_EEEPT_DpOT0_EUlSI_E_E5firstB7v160006Ev, symObjAddr: 0xF394, symBinAddr: 0x10000FF08, symSize: 0x24 }
  - { offsetInCU: 0x42FEF, offset: 0x42FEF, size: 0x8, addend: 0x0, symName: __ZNKSt3__110unique_ptrINS_6vectorIN8nlohmann16json_abi_v3_12_010basic_jsonINS_3mapES1_NS_12basic_stringIcNS_11char_traitsIcEENS_9allocatorIcEEEEbxydS9_NS3_14adl_serializerENS1_IhNS9_IhEEEEvEENS9_ISF_EEEEZNSF_6createISH_JRKSH_EEEPT_DpOT0_EUlPSH_E_EcvbB7v160006Ev, symObjAddr: 0xF3B8, symBinAddr: 0x10000FF2C, symSize: 0x34 }
  - { offsetInCU: 0x43015, offset: 0x43015, size: 0x8, addend: 0x0, symName: __ZNSt3__117__compressed_pairIPNS_6vectorIN8nlohmann16json_abi_v3_12_010basic_jsonINS_3mapES1_NS_12basic_stringIcNS_11char_traitsIcEENS_9allocatorIcEEEEbxydS9_NS3_14adl_serializerENS1_IhNS9_IhEEEEvEENS9_ISF_EEEEZNSF_6createISH_JRKSH_EEEPT_DpOT0_EUlSI_E_E5firstB7v160006Ev, symObjAddr: 0xF3EC, symBinAddr: 0x10000FF60, symSize: 0x24 }
  - { offsetInCU: 0x4303B, offset: 0x4303B, size: 0x8, addend: 0x0, symName: __ZNSt3__110unique_ptrINS_6vectorIN8nlohmann16json_abi_v3_12_010basic_jsonINS_3mapES1_NS_12basic_stringIcNS_11char_traitsIcEENS_9allocatorIcEEEEbxydS9_NS3_14adl_serializerENS1_IhNS9_IhEEEEvEENS9_ISF_EEEEZNSF_6createISH_JRKSH_EEEPT_DpOT0_EUlPSH_E_ED2B7v160006Ev, symObjAddr: 0xF410, symBinAddr: 0x10000FF84, symSize: 0x30 }
  - { offsetInCU: 0x43065, offset: 0x43065, size: 0x8, addend: 0x0, symName: __ZNSt3__110unique_ptrINS_6vectorIN8nlohmann16json_abi_v3_12_010basic_jsonINS_3mapES1_NS_12basic_stringIcNS_11char_traitsIcEENS_9allocatorIcEEEEbxydS9_NS3_14adl_serializerENS1_IhNS9_IhEEEEvEENS9_ISF_EEEEZNSF_6createISH_JRKSH_EEEPT_DpOT0_EUlPSH_E_E5resetB7v160006ESQ_, symObjAddr: 0xF440, symBinAddr: 0x10000FFB4, symSize: 0x80 }
  - { offsetInCU: 0x430A9, offset: 0x430A9, size: 0x8, addend: 0x0, symName: __ZNSt3__117__compressed_pairIPNS_6vectorIN8nlohmann16json_abi_v3_12_010basic_jsonINS_3mapES1_NS_12basic_stringIcNS_11char_traitsIcEENS_9allocatorIcEEEEbxydS9_NS3_14adl_serializerENS1_IhNS9_IhEEEEvEENS9_ISF_EEEEZNSF_6createISH_JRKSH_EEEPT_DpOT0_EUlSI_E_E6secondB7v160006Ev, symObjAddr: 0xF4C0, symBinAddr: 0x100010034, symSize: 0x28 }
  - { offsetInCU: 0x430D5, offset: 0x430D5, size: 0x8, addend: 0x0, symName: __ZZN8nlohmann16json_abi_v3_12_010basic_jsonINSt3__13mapENS2_6vectorENS2_12basic_stringIcNS2_11char_traitsIcEENS2_9allocatorIcEEEEbxydS8_NS0_14adl_serializerENS4_IhNS8_IhEEEEvE6createINS4_ISE_NS8_ISE_EEEEJRKSH_EEEPT_DpOT0_ENKUlPSH_E_clESP_, symObjAddr: 0xF4E8, symBinAddr: 0x10001005C, symSize: 0x34 }
  - { offsetInCU: 0x4310E, offset: 0x4310E, size: 0x8, addend: 0x0, symName: __ZNSt3__122__compressed_pair_elemIZN8nlohmann16json_abi_v3_12_010basic_jsonINS_3mapENS_6vectorENS_12basic_stringIcNS_11char_traitsIcEENS_9allocatorIcEEEEbxydS9_NS2_14adl_serializerENS5_IhNS9_IhEEEEvE6createINS5_ISF_NS9_ISF_EEEEJRKSI_EEEPT_DpOT0_EUlPSI_E_Li1ELb0EE5__getB7v160006Ev, symObjAddr: 0xF51C, symBinAddr: 0x100010090, symSize: 0x14 }
  - { offsetInCU: 0x43134, offset: 0x43134, size: 0x8, addend: 0x0, symName: __ZN8nlohmann16json_abi_v3_12_010basic_jsonINSt3__13mapENS2_6vectorENS2_12basic_stringIcNS2_11char_traitsIcEENS2_9allocatorIcEEEEbxydS8_NS0_14adl_serializerENS4_IhNS8_IhEEEEvE10json_valueC2ERKSA_, symObjAddr: 0xF530, symBinAddr: 0x1000100A4, symSize: 0x3C }
  - { offsetInCU: 0x4316D, offset: 0x4316D, size: 0x8, addend: 0x0, symName: __ZN8nlohmann16json_abi_v3_12_010basic_jsonINSt3__13mapENS2_6vectorENS2_12basic_stringIcNS2_11char_traitsIcEENS2_9allocatorIcEEEEbxydS8_NS0_14adl_serializerENS4_IhNS8_IhEEEEvE6createISA_JRKSA_EEEPT_DpOT0_, symObjAddr: 0xF56C, symBinAddr: 0x1000100E0, symSize: 0xF4 }
  - { offsetInCU: 0x4326E, offset: 0x4326E, size: 0x8, addend: 0x0, symName: __ZNSt3__110unique_ptrINS_12basic_stringIcNS_11char_traitsIcEENS_9allocatorIcEEEEZN8nlohmann16json_abi_v3_12_010basic_jsonINS_3mapENS_6vectorES6_bxydS4_NS8_14adl_serializerENSB_IhNS4_IhEEEEvE6createIS6_JRKS6_EEEPT_DpOT0_EUlPS6_E_EC1B7v160006ILb1EvEESO_NS_16__dependent_typeINS_27__unique_ptr_deleter_sfinaeISP_EEXT_EE15__lval_ref_typeE, symObjAddr: 0xF660, symBinAddr: 0x1000101D4, symSize: 0x3C }
  - { offsetInCU: 0x432C1, offset: 0x432C1, size: 0x8, addend: 0x0, symName: __ZNSt3__116allocator_traitsINS_9allocatorINS_12basic_stringIcNS_11char_traitsIcEENS1_IcEEEEEEE9constructB7v160006IS6_JRKS6_EvvEEvRS7_PT_DpOT0_, symObjAddr: 0xF69C, symBinAddr: 0x100010210, symSize: 0x30 }
  - { offsetInCU: 0x43315, offset: 0x43315, size: 0x8, addend: 0x0, symName: __ZNKSt3__110unique_ptrINS_12basic_stringIcNS_11char_traitsIcEENS_9allocatorIcEEEEZN8nlohmann16json_abi_v3_12_010basic_jsonINS_3mapENS_6vectorES6_bxydS4_NS8_14adl_serializerENSB_IhNS4_IhEEEEvE6createIS6_JRKS6_EEEPT_DpOT0_EUlPS6_E_E3getB7v160006Ev, symObjAddr: 0xF6CC, symBinAddr: 0x100010240, symSize: 0x28 }
  - { offsetInCU: 0x4333B, offset: 0x4333B, size: 0x8, addend: 0x0, symName: __ZNSt3__110unique_ptrINS_12basic_stringIcNS_11char_traitsIcEENS_9allocatorIcEEEEZN8nlohmann16json_abi_v3_12_010basic_jsonINS_3mapENS_6vectorES6_bxydS4_NS8_14adl_serializerENSB_IhNS4_IhEEEEvE6createIS6_JRKS6_EEEPT_DpOT0_EUlPS6_E_E7releaseB7v160006Ev, symObjAddr: 0xF724, symBinAddr: 0x100010298, symSize: 0x44 }
  - { offsetInCU: 0x43370, offset: 0x43370, size: 0x8, addend: 0x0, symName: __ZNSt3__110unique_ptrINS_12basic_stringIcNS_11char_traitsIcEENS_9allocatorIcEEEEZN8nlohmann16json_abi_v3_12_010basic_jsonINS_3mapENS_6vectorES6_bxydS4_NS8_14adl_serializerENSB_IhNS4_IhEEEEvE6createIS6_JRKS6_EEEPT_DpOT0_EUlPS6_E_ED1B7v160006Ev, symObjAddr: 0xF768, symBinAddr: 0x1000102DC, symSize: 0x2C }
  - { offsetInCU: 0x4339A, offset: 0x4339A, size: 0x8, addend: 0x0, symName: __ZNSt3__110unique_ptrINS_12basic_stringIcNS_11char_traitsIcEENS_9allocatorIcEEEEZN8nlohmann16json_abi_v3_12_010basic_jsonINS_3mapENS_6vectorES6_bxydS4_NS8_14adl_serializerENSB_IhNS4_IhEEEEvE6createIS6_JRKS6_EEEPT_DpOT0_EUlPS6_E_EC2B7v160006ILb1EvEESO_NS_16__dependent_typeINS_27__unique_ptr_deleter_sfinaeISP_EEXT_EE15__lval_ref_typeE, symObjAddr: 0xF794, symBinAddr: 0x100010308, symSize: 0x48 }
  - { offsetInCU: 0x433ED, offset: 0x433ED, size: 0x8, addend: 0x0, symName: __ZNSt3__117__compressed_pairIPNS_12basic_stringIcNS_11char_traitsIcEENS_9allocatorIcEEEEZN8nlohmann16json_abi_v3_12_010basic_jsonINS_3mapENS_6vectorES6_bxydS4_NS9_14adl_serializerENSC_IhNS4_IhEEEEvE6createIS6_JRKS6_EEEPT_DpOT0_EUlS7_E_EC1B7v160006IRS7_RKSP_EEOSK_OT0_, symObjAddr: 0xF7DC, symBinAddr: 0x100010350, symSize: 0x3C }
  - { offsetInCU: 0x43447, offset: 0x43447, size: 0x8, addend: 0x0, symName: __ZNSt3__117__compressed_pairIPNS_12basic_stringIcNS_11char_traitsIcEENS_9allocatorIcEEEEZN8nlohmann16json_abi_v3_12_010basic_jsonINS_3mapENS_6vectorES6_bxydS4_NS9_14adl_serializerENSC_IhNS4_IhEEEEvE6createIS6_JRKS6_EEEPT_DpOT0_EUlS7_E_EC2B7v160006IRS7_RKSP_EEOSK_OT0_, symObjAddr: 0xF818, symBinAddr: 0x10001038C, symSize: 0x48 }
  - { offsetInCU: 0x434A1, offset: 0x434A1, size: 0x8, addend: 0x0, symName: __ZNSt3__122__compressed_pair_elemIZN8nlohmann16json_abi_v3_12_010basic_jsonINS_3mapENS_6vectorENS_12basic_stringIcNS_11char_traitsIcEENS_9allocatorIcEEEEbxydS9_NS2_14adl_serializerENS5_IhNS9_IhEEEEvE6createISB_JRKSB_EEEPT_DpOT0_EUlPSB_E_Li1ELb0EEC2B7v160006IRKSP_vEEOSJ_, symObjAddr: 0xF860, symBinAddr: 0x1000103D4, symSize: 0x24 }
  - { offsetInCU: 0x434E4, offset: 0x434E4, size: 0x8, addend: 0x0, symName: __ZNKSt3__117__compressed_pairIPNS_12basic_stringIcNS_11char_traitsIcEENS_9allocatorIcEEEEZN8nlohmann16json_abi_v3_12_010basic_jsonINS_3mapENS_6vectorES6_bxydS4_NS9_14adl_serializerENSC_IhNS4_IhEEEEvE6createIS6_JRKS6_EEEPT_DpOT0_EUlS7_E_E5firstB7v160006Ev, symObjAddr: 0xF8C0, symBinAddr: 0x100010434, symSize: 0x24 }
  - { offsetInCU: 0x4350A, offset: 0x4350A, size: 0x8, addend: 0x0, symName: __ZNKSt3__110unique_ptrINS_12basic_stringIcNS_11char_traitsIcEENS_9allocatorIcEEEEZN8nlohmann16json_abi_v3_12_010basic_jsonINS_3mapENS_6vectorES6_bxydS4_NS8_14adl_serializerENSB_IhNS4_IhEEEEvE6createIS6_JRKS6_EEEPT_DpOT0_EUlPS6_E_EcvbB7v160006Ev, symObjAddr: 0xF8E4, symBinAddr: 0x100010458, symSize: 0x34 }
  - { offsetInCU: 0x43530, offset: 0x43530, size: 0x8, addend: 0x0, symName: __ZNSt3__117__compressed_pairIPNS_12basic_stringIcNS_11char_traitsIcEENS_9allocatorIcEEEEZN8nlohmann16json_abi_v3_12_010basic_jsonINS_3mapENS_6vectorES6_bxydS4_NS9_14adl_serializerENSC_IhNS4_IhEEEEvE6createIS6_JRKS6_EEEPT_DpOT0_EUlS7_E_E5firstB7v160006Ev, symObjAddr: 0xF918, symBinAddr: 0x10001048C, symSize: 0x24 }
  - { offsetInCU: 0x43556, offset: 0x43556, size: 0x8, addend: 0x0, symName: __ZNSt3__110unique_ptrINS_12basic_stringIcNS_11char_traitsIcEENS_9allocatorIcEEEEZN8nlohmann16json_abi_v3_12_010basic_jsonINS_3mapENS_6vectorES6_bxydS4_NS8_14adl_serializerENSB_IhNS4_IhEEEEvE6createIS6_JRKS6_EEEPT_DpOT0_EUlPS6_E_ED2B7v160006Ev, symObjAddr: 0xF93C, symBinAddr: 0x1000104B0, symSize: 0x30 }
  - { offsetInCU: 0x43580, offset: 0x43580, size: 0x8, addend: 0x0, symName: __ZNSt3__110unique_ptrINS_12basic_stringIcNS_11char_traitsIcEENS_9allocatorIcEEEEZN8nlohmann16json_abi_v3_12_010basic_jsonINS_3mapENS_6vectorES6_bxydS4_NS8_14adl_serializerENSB_IhNS4_IhEEEEvE6createIS6_JRKS6_EEEPT_DpOT0_EUlPS6_E_E5resetB7v160006ESO_, symObjAddr: 0xF96C, symBinAddr: 0x1000104E0, symSize: 0x80 }
  - { offsetInCU: 0x435C4, offset: 0x435C4, size: 0x8, addend: 0x0, symName: __ZNSt3__117__compressed_pairIPNS_12basic_stringIcNS_11char_traitsIcEENS_9allocatorIcEEEEZN8nlohmann16json_abi_v3_12_010basic_jsonINS_3mapENS_6vectorES6_bxydS4_NS9_14adl_serializerENSC_IhNS4_IhEEEEvE6createIS6_JRKS6_EEEPT_DpOT0_EUlS7_E_E6secondB7v160006Ev, symObjAddr: 0xF9EC, symBinAddr: 0x100010560, symSize: 0x28 }
  - { offsetInCU: 0x435F0, offset: 0x435F0, size: 0x8, addend: 0x0, symName: __ZZN8nlohmann16json_abi_v3_12_010basic_jsonINSt3__13mapENS2_6vectorENS2_12basic_stringIcNS2_11char_traitsIcEENS2_9allocatorIcEEEEbxydS8_NS0_14adl_serializerENS4_IhNS8_IhEEEEvE6createISA_JRKSA_EEEPT_DpOT0_ENKUlPSA_E_clESN_, symObjAddr: 0xFA14, symBinAddr: 0x100010588, symSize: 0x34 }
  - { offsetInCU: 0x43629, offset: 0x43629, size: 0x8, addend: 0x0, symName: __ZNSt3__122__compressed_pair_elemIZN8nlohmann16json_abi_v3_12_010basic_jsonINS_3mapENS_6vectorENS_12basic_stringIcNS_11char_traitsIcEENS_9allocatorIcEEEEbxydS9_NS2_14adl_serializerENS5_IhNS9_IhEEEEvE6createISB_JRKSB_EEEPT_DpOT0_EUlPSB_E_Li1ELb0EE5__getB7v160006Ev, symObjAddr: 0xFA48, symBinAddr: 0x1000105BC, symSize: 0x14 }
  - { offsetInCU: 0x4364F, offset: 0x4364F, size: 0x8, addend: 0x0, symName: __ZN8nlohmann16json_abi_v3_12_010basic_jsonINSt3__13mapENS2_6vectorENS2_12basic_stringIcNS2_11char_traitsIcEENS2_9allocatorIcEEEEbxydS8_NS0_14adl_serializerENS4_IhNS8_IhEEEEvE10json_valueC2Eb, symObjAddr: 0xFA5C, symBinAddr: 0x1000105D0, symSize: 0x2C }
  - { offsetInCU: 0x43688, offset: 0x43688, size: 0x8, addend: 0x0, symName: __ZN8nlohmann16json_abi_v3_12_010basic_jsonINSt3__13mapENS2_6vectorENS2_12basic_stringIcNS2_11char_traitsIcEENS2_9allocatorIcEEEEbxydS8_NS0_14adl_serializerENS4_IhNS8_IhEEEEvE10json_valueC2Ey, symObjAddr: 0xFA88, symBinAddr: 0x1000105FC, symSize: 0x20 }
  - { offsetInCU: 0x436C1, offset: 0x436C1, size: 0x8, addend: 0x0, symName: __ZN8nlohmann16json_abi_v3_12_010basic_jsonINSt3__13mapENS2_6vectorENS2_12basic_stringIcNS2_11char_traitsIcEENS2_9allocatorIcEEEEbxydS8_NS0_14adl_serializerENS4_IhNS8_IhEEEEvE10json_valueC2Ed, symObjAddr: 0xFAA8, symBinAddr: 0x10001061C, symSize: 0x20 }
  - { offsetInCU: 0x436FA, offset: 0x436FA, size: 0x8, addend: 0x0, symName: __ZN8nlohmann16json_abi_v3_12_010basic_jsonINSt3__13mapENS2_6vectorENS2_12basic_stringIcNS2_11char_traitsIcEENS2_9allocatorIcEEEEbxydS8_NS0_14adl_serializerENS4_IhNS8_IhEEEEvE10json_valueC2ERKNS0_27byte_container_with_subtypeISD_EE, symObjAddr: 0xFAC8, symBinAddr: 0x10001063C, symSize: 0x3C }
  - { offsetInCU: 0x43733, offset: 0x43733, size: 0x8, addend: 0x0, symName: __ZN8nlohmann16json_abi_v3_12_010basic_jsonINSt3__13mapENS2_6vectorENS2_12basic_stringIcNS2_11char_traitsIcEENS2_9allocatorIcEEEEbxydS8_NS0_14adl_serializerENS4_IhNS8_IhEEEEvE6createINS0_27byte_container_with_subtypeISD_EEJRKSH_EEEPT_DpOT0_, symObjAddr: 0xFB04, symBinAddr: 0x100010678, symSize: 0xF4 }
  - { offsetInCU: 0x43834, offset: 0x43834, size: 0x8, addend: 0x0, symName: __ZNSt3__110unique_ptrIN8nlohmann16json_abi_v3_12_027byte_container_with_subtypeINS_6vectorIhNS_9allocatorIhEEEEEEZNS2_10basic_jsonINS_3mapES4_NS_12basic_stringIcNS_11char_traitsIcEENS5_IcEEEEbxydS5_NS2_14adl_serializerES7_vE6createIS8_JRKS8_EEEPT_DpOT0_EUlPS8_E_EC1B7v160006ILb1EvEESQ_NS_16__dependent_typeINS_27__unique_ptr_deleter_sfinaeISR_EEXT_EE15__lval_ref_typeE, symObjAddr: 0xFBF8, symBinAddr: 0x10001076C, symSize: 0x3C }
  - { offsetInCU: 0x43887, offset: 0x43887, size: 0x8, addend: 0x0, symName: __ZNSt3__116allocator_traitsINS_9allocatorIN8nlohmann16json_abi_v3_12_027byte_container_with_subtypeINS_6vectorIhNS1_IhEEEEEEEEE9constructB7v160006IS8_JRKS8_EvvEEvRS9_PT_DpOT0_, symObjAddr: 0xFC34, symBinAddr: 0x1000107A8, symSize: 0x30 }
  - { offsetInCU: 0x438DB, offset: 0x438DB, size: 0x8, addend: 0x0, symName: __ZNKSt3__110unique_ptrIN8nlohmann16json_abi_v3_12_027byte_container_with_subtypeINS_6vectorIhNS_9allocatorIhEEEEEEZNS2_10basic_jsonINS_3mapES4_NS_12basic_stringIcNS_11char_traitsIcEENS5_IcEEEEbxydS5_NS2_14adl_serializerES7_vE6createIS8_JRKS8_EEEPT_DpOT0_EUlPS8_E_E3getB7v160006Ev, symObjAddr: 0xFC64, symBinAddr: 0x1000107D8, symSize: 0x28 }
  - { offsetInCU: 0x43901, offset: 0x43901, size: 0x8, addend: 0x0, symName: __ZNSt3__110unique_ptrIN8nlohmann16json_abi_v3_12_027byte_container_with_subtypeINS_6vectorIhNS_9allocatorIhEEEEEEZNS2_10basic_jsonINS_3mapES4_NS_12basic_stringIcNS_11char_traitsIcEENS5_IcEEEEbxydS5_NS2_14adl_serializerES7_vE6createIS8_JRKS8_EEEPT_DpOT0_EUlPS8_E_E7releaseB7v160006Ev, symObjAddr: 0xFCBC, symBinAddr: 0x100010830, symSize: 0x44 }
  - { offsetInCU: 0x43936, offset: 0x43936, size: 0x8, addend: 0x0, symName: __ZNSt3__110unique_ptrIN8nlohmann16json_abi_v3_12_027byte_container_with_subtypeINS_6vectorIhNS_9allocatorIhEEEEEEZNS2_10basic_jsonINS_3mapES4_NS_12basic_stringIcNS_11char_traitsIcEENS5_IcEEEEbxydS5_NS2_14adl_serializerES7_vE6createIS8_JRKS8_EEEPT_DpOT0_EUlPS8_E_ED1B7v160006Ev, symObjAddr: 0xFD00, symBinAddr: 0x100010874, symSize: 0x2C }
  - { offsetInCU: 0x43960, offset: 0x43960, size: 0x8, addend: 0x0, symName: __ZNSt3__110unique_ptrIN8nlohmann16json_abi_v3_12_027byte_container_with_subtypeINS_6vectorIhNS_9allocatorIhEEEEEEZNS2_10basic_jsonINS_3mapES4_NS_12basic_stringIcNS_11char_traitsIcEENS5_IcEEEEbxydS5_NS2_14adl_serializerES7_vE6createIS8_JRKS8_EEEPT_DpOT0_EUlPS8_E_EC2B7v160006ILb1EvEESQ_NS_16__dependent_typeINS_27__unique_ptr_deleter_sfinaeISR_EEXT_EE15__lval_ref_typeE, symObjAddr: 0xFD2C, symBinAddr: 0x1000108A0, symSize: 0x48 }
  - { offsetInCU: 0x439B3, offset: 0x439B3, size: 0x8, addend: 0x0, symName: __ZNSt3__117__compressed_pairIPN8nlohmann16json_abi_v3_12_027byte_container_with_subtypeINS_6vectorIhNS_9allocatorIhEEEEEEZNS2_10basic_jsonINS_3mapES4_NS_12basic_stringIcNS_11char_traitsIcEENS5_IcEEEEbxydS5_NS2_14adl_serializerES7_vE6createIS8_JRKS8_EEEPT_DpOT0_EUlS9_E_EC1B7v160006IRS9_RKSR_EEOSM_OT0_, symObjAddr: 0xFD74, symBinAddr: 0x1000108E8, symSize: 0x3C }
  - { offsetInCU: 0x43A0D, offset: 0x43A0D, size: 0x8, addend: 0x0, symName: __ZNSt3__117__compressed_pairIPN8nlohmann16json_abi_v3_12_027byte_container_with_subtypeINS_6vectorIhNS_9allocatorIhEEEEEEZNS2_10basic_jsonINS_3mapES4_NS_12basic_stringIcNS_11char_traitsIcEENS5_IcEEEEbxydS5_NS2_14adl_serializerES7_vE6createIS8_JRKS8_EEEPT_DpOT0_EUlS9_E_EC2B7v160006IRS9_RKSR_EEOSM_OT0_, symObjAddr: 0xFDB0, symBinAddr: 0x100010924, symSize: 0x48 }
  - { offsetInCU: 0x43A67, offset: 0x43A67, size: 0x8, addend: 0x0, symName: __ZNSt3__122__compressed_pair_elemIZN8nlohmann16json_abi_v3_12_010basic_jsonINS_3mapENS_6vectorENS_12basic_stringIcNS_11char_traitsIcEENS_9allocatorIcEEEEbxydS9_NS2_14adl_serializerENS5_IhNS9_IhEEEEvE6createINS2_27byte_container_with_subtypeISE_EEJRKSI_EEEPT_DpOT0_EUlPSI_E_Li1ELb0EEC2B7v160006IRKSR_vEEOSL_, symObjAddr: 0xFDF8, symBinAddr: 0x10001096C, symSize: 0x24 }
  - { offsetInCU: 0x43AAA, offset: 0x43AAA, size: 0x8, addend: 0x0, symName: __ZN8nlohmann16json_abi_v3_12_027byte_container_with_subtypeINSt3__16vectorIhNS2_9allocatorIhEEEEEC1ERKS7_, symObjAddr: 0xFE58, symBinAddr: 0x1000109CC, symSize: 0x34 }
  - { offsetInCU: 0x43AE0, offset: 0x43AE0, size: 0x8, addend: 0x0, symName: __ZN8nlohmann16json_abi_v3_12_027byte_container_with_subtypeINSt3__16vectorIhNS2_9allocatorIhEEEEEC2ERKS7_, symObjAddr: 0xFE8C, symBinAddr: 0x100010A00, symSize: 0x48 }
  - { offsetInCU: 0x43B16, offset: 0x43B16, size: 0x8, addend: 0x0, symName: __ZNSt3__16vectorIhNS_9allocatorIhEEEC2ERKS3_, symObjAddr: 0xFED4, symBinAddr: 0x100010A48, symSize: 0x110 }
  - { offsetInCU: 0x43B81, offset: 0x43B81, size: 0x8, addend: 0x0, symName: __ZNSt3__116allocator_traitsINS_9allocatorIhEEE37select_on_container_copy_constructionB7v160006IS2_vvEES2_RKS2_, symObjAddr: 0xFFE4, symBinAddr: 0x100010B58, symSize: 0x10 }
  - { offsetInCU: 0x43BB0, offset: 0x43BB0, size: 0x8, addend: 0x0, symName: __ZNKSt3__16vectorIhNS_9allocatorIhEEE7__allocB7v160006Ev, symObjAddr: 0xFFF4, symBinAddr: 0x100010B68, symSize: 0x28 }
  - { offsetInCU: 0x43BDC, offset: 0x43BDC, size: 0x8, addend: 0x0, symName: __ZNSt3__117__compressed_pairIPhNS_9allocatorIhEEEC1B7v160006IDnS3_EEOT_OT0_, symObjAddr: 0x1001C, symBinAddr: 0x100010B90, symSize: 0x3C }
  - { offsetInCU: 0x43C36, offset: 0x43C36, size: 0x8, addend: 0x0, symName: __ZNSt3__16vectorIhNS_9allocatorIhEEE11__vallocateB7v160006Em, symObjAddr: 0x10098, symBinAddr: 0x100010C0C, symSize: 0xAC }
  - { offsetInCU: 0x43C7A, offset: 0x43C7A, size: 0x8, addend: 0x0, symName: __ZNSt3__16vectorIhNS_9allocatorIhEEE18__construct_at_endIPhLi0EEEvT_S6_m, symObjAddr: 0x10144, symBinAddr: 0x100010CB8, symSize: 0x8C }
  - { offsetInCU: 0x43CED, offset: 0x43CED, size: 0x8, addend: 0x0, symName: __ZNSt3__128__exception_guard_exceptionsINS_6vectorIhNS_9allocatorIhEEE16__destroy_vectorEE10__completeB7v160006Ev, symObjAddr: 0x101D0, symBinAddr: 0x100010D44, symSize: 0x1C }
  - { offsetInCU: 0x43D13, offset: 0x43D13, size: 0x8, addend: 0x0, symName: __ZNSt3__128__exception_guard_exceptionsINS_6vectorIhNS_9allocatorIhEEE16__destroy_vectorEED1B7v160006Ev, symObjAddr: 0x101EC, symBinAddr: 0x100010D60, symSize: 0x2C }
  - { offsetInCU: 0x43D3D, offset: 0x43D3D, size: 0x8, addend: 0x0, symName: __ZNKSt3__117__compressed_pairIPhNS_9allocatorIhEEE6secondB7v160006Ev, symObjAddr: 0x10218, symBinAddr: 0x100010D8C, symSize: 0x24 }
  - { offsetInCU: 0x43D63, offset: 0x43D63, size: 0x8, addend: 0x0, symName: __ZNKSt3__122__compressed_pair_elemINS_9allocatorIhEELi1ELb1EE5__getB7v160006Ev, symObjAddr: 0x1023C, symBinAddr: 0x100010DB0, symSize: 0x14 }
  - { offsetInCU: 0x43D89, offset: 0x43D89, size: 0x8, addend: 0x0, symName: __ZNSt3__117__compressed_pairIPhNS_9allocatorIhEEEC2B7v160006IDnS3_EEOT_OT0_, symObjAddr: 0x10250, symBinAddr: 0x100010DC4, symSize: 0x44 }
  - { offsetInCU: 0x43DE3, offset: 0x43DE3, size: 0x8, addend: 0x0, symName: __ZNSt3__122__compressed_pair_elemINS_9allocatorIhEELi1ELb1EEC2B7v160006IS2_vEEOT_, symObjAddr: 0x10294, symBinAddr: 0x100010E08, symSize: 0x18 }
  - { offsetInCU: 0x43E26, offset: 0x43E26, size: 0x8, addend: 0x0, symName: __ZNSt3__128__exception_guard_exceptionsINS_6vectorIhNS_9allocatorIhEEE16__destroy_vectorEEC1B7v160006ES5_, symObjAddr: 0x102AC, symBinAddr: 0x100010E20, symSize: 0x34 }
  - { offsetInCU: 0x43E5F, offset: 0x43E5F, size: 0x8, addend: 0x0, symName: __ZNSt3__128__exception_guard_exceptionsINS_6vectorIhNS_9allocatorIhEEE16__destroy_vectorEEC2B7v160006ES5_, symObjAddr: 0x102E0, symBinAddr: 0x100010E54, symSize: 0x24 }
  - { offsetInCU: 0x43E98, offset: 0x43E98, size: 0x8, addend: 0x0, symName: __ZNKSt3__16vectorIhNS_9allocatorIhEEE8max_sizeEv, symObjAddr: 0x10304, symBinAddr: 0x100010E78, symSize: 0x60 }
  - { offsetInCU: 0x43EC0, offset: 0x43EC0, size: 0x8, addend: 0x0, symName: __ZNKSt3__16vectorIhNS_9allocatorIhEEE20__throw_length_errorB7v160006Ev, symObjAddr: 0x10364, symBinAddr: 0x100010ED8, symSize: 0x1C }
  - { offsetInCU: 0x43EE6, offset: 0x43EE6, size: 0x8, addend: 0x0, symName: __ZNSt3__16vectorIhNS_9allocatorIhEEE9__end_capB7v160006Ev, symObjAddr: 0x103C0, symBinAddr: 0x100010F34, symSize: 0x28 }
  - { offsetInCU: 0x43F0C, offset: 0x43F0C, size: 0x8, addend: 0x0, symName: __ZNKSt3__16vectorIhNS_9allocatorIhEEE14__annotate_newB7v160006Em, symObjAddr: 0x103E8, symBinAddr: 0x100010F5C, symSize: 0xAC }
  - { offsetInCU: 0x43F41, offset: 0x43F41, size: 0x8, addend: 0x0, symName: __ZNSt3__116allocator_traitsINS_9allocatorIhEEE8max_sizeB7v160006IS2_vvEEmRKS2_, symObjAddr: 0x10494, symBinAddr: 0x100011008, symSize: 0x28 }
  - { offsetInCU: 0x43F6C, offset: 0x43F6C, size: 0x8, addend: 0x0, symName: __ZNSt3__19allocatorIhE8allocateB7v160006Em, symObjAddr: 0x104BC, symBinAddr: 0x100011030, symSize: 0x58 }
  - { offsetInCU: 0x43FA1, offset: 0x43FA1, size: 0x8, addend: 0x0, symName: __ZNSt3__117__compressed_pairIPhNS_9allocatorIhEEE5firstB7v160006Ev, symObjAddr: 0x10514, symBinAddr: 0x100011088, symSize: 0x24 }
  - { offsetInCU: 0x43FC7, offset: 0x43FC7, size: 0x8, addend: 0x0, symName: __ZNSt3__122__compressed_pair_elemIPhLi0ELb0EE5__getB7v160006Ev, symObjAddr: 0x10538, symBinAddr: 0x1000110AC, symSize: 0x14 }
  - { offsetInCU: 0x44009, offset: 0x44009, size: 0x8, addend: 0x0, symName: __ZNSt3__16vectorIhNS_9allocatorIhEEE21_ConstructTransactionC1B7v160006ERS3_m, symObjAddr: 0x1054C, symBinAddr: 0x1000110C0, symSize: 0x3C }
  - { offsetInCU: 0x44051, offset: 0x44051, size: 0x8, addend: 0x0, symName: __ZNSt3__16vectorIhNS_9allocatorIhEEE21_ConstructTransactionD1B7v160006Ev, symObjAddr: 0x1067C, symBinAddr: 0x1000111F0, symSize: 0x2C }
  - { offsetInCU: 0x4407B, offset: 0x4407B, size: 0x8, addend: 0x0, symName: __ZNSt3__16vectorIhNS_9allocatorIhEEE21_ConstructTransactionC2B7v160006ERS3_m, symObjAddr: 0x106A8, symBinAddr: 0x10001121C, symSize: 0x44 }
  - { offsetInCU: 0x440C3, offset: 0x440C3, size: 0x8, addend: 0x0, symName: __ZNSt3__129_AllocatorDestroyRangeReverseINS_9allocatorIhEEPhEC1B7v160006ERS2_RS3_S6_, symObjAddr: 0x10738, symBinAddr: 0x1000112AC, symSize: 0x44 }
  - { offsetInCU: 0x4411A, offset: 0x4411A, size: 0x8, addend: 0x0, symName: __ZNSt3__116allocator_traitsINS_9allocatorIhEEE9constructB7v160006IhJRhEvvEEvRS2_PT_DpOT0_, symObjAddr: 0x1077C, symBinAddr: 0x1000112F0, symSize: 0x30 }
  - { offsetInCU: 0x4416E, offset: 0x4416E, size: 0x8, addend: 0x0, symName: __ZNSt3__128__exception_guard_exceptionsINS_29_AllocatorDestroyRangeReverseINS_9allocatorIhEEPhEEE10__completeB7v160006Ev, symObjAddr: 0x107AC, symBinAddr: 0x100011320, symSize: 0x1C }
  - { offsetInCU: 0x44194, offset: 0x44194, size: 0x8, addend: 0x0, symName: __ZNSt3__128__exception_guard_exceptionsINS_29_AllocatorDestroyRangeReverseINS_9allocatorIhEEPhEEED1B7v160006Ev, symObjAddr: 0x107C8, symBinAddr: 0x10001133C, symSize: 0x2C }
  - { offsetInCU: 0x441BE, offset: 0x441BE, size: 0x8, addend: 0x0, symName: __ZNSt3__128__exception_guard_exceptionsINS_29_AllocatorDestroyRangeReverseINS_9allocatorIhEEPhEEEC1B7v160006ES5_, symObjAddr: 0x107F4, symBinAddr: 0x100011368, symSize: 0x34 }
  - { offsetInCU: 0x441F8, offset: 0x441F8, size: 0x8, addend: 0x0, symName: __ZNSt3__128__exception_guard_exceptionsINS_29_AllocatorDestroyRangeReverseINS_9allocatorIhEEPhEEEC2B7v160006ES5_, symObjAddr: 0x10828, symBinAddr: 0x10001139C, symSize: 0x30 }
  - { offsetInCU: 0x44232, offset: 0x44232, size: 0x8, addend: 0x0, symName: __ZNSt3__129_AllocatorDestroyRangeReverseINS_9allocatorIhEEPhEC2B7v160006ERS2_RS3_S6_, symObjAddr: 0x10858, symBinAddr: 0x1000113CC, symSize: 0x38 }
  - { offsetInCU: 0x44289, offset: 0x44289, size: 0x8, addend: 0x0, symName: __ZNSt3__128__exception_guard_exceptionsINS_29_AllocatorDestroyRangeReverseINS_9allocatorIhEEPhEEED2B7v160006Ev, symObjAddr: 0x108BC, symBinAddr: 0x100011430, symSize: 0x50 }
  - { offsetInCU: 0x442B3, offset: 0x442B3, size: 0x8, addend: 0x0, symName: __ZNKSt3__129_AllocatorDestroyRangeReverseINS_9allocatorIhEEPhEclB7v160006Ev, symObjAddr: 0x1090C, symBinAddr: 0x100011480, symSize: 0x68 }
  - { offsetInCU: 0x442D9, offset: 0x442D9, size: 0x8, addend: 0x0, symName: __ZNSt3__116reverse_iteratorIPhEC1B7v160006ES1_, symObjAddr: 0x109E4, symBinAddr: 0x100011558, symSize: 0x34 }
  - { offsetInCU: 0x44312, offset: 0x44312, size: 0x8, addend: 0x0, symName: __ZNSt3__116reverse_iteratorIPhEppB7v160006Ev, symObjAddr: 0x10A84, symBinAddr: 0x1000115F8, symSize: 0x20 }
  - { offsetInCU: 0x44338, offset: 0x44338, size: 0x8, addend: 0x0, symName: __ZNKSt3__116reverse_iteratorIPhE4baseB7v160006Ev, symObjAddr: 0x10AA4, symBinAddr: 0x100011618, symSize: 0x18 }
  - { offsetInCU: 0x44364, offset: 0x44364, size: 0x8, addend: 0x0, symName: __ZNSt3__119__to_address_helperINS_16reverse_iteratorIPhEEvE6__callB7v160006ERKS3_, symObjAddr: 0x10ABC, symBinAddr: 0x100011630, symSize: 0x38 }
  - { offsetInCU: 0x44388, offset: 0x44388, size: 0x8, addend: 0x0, symName: __ZNKSt3__116reverse_iteratorIPhEptB7v160006Ev, symObjAddr: 0x10AF4, symBinAddr: 0x100011668, symSize: 0x2C }
  - { offsetInCU: 0x443AE, offset: 0x443AE, size: 0x8, addend: 0x0, symName: __ZNSt3__116reverse_iteratorIPhEC2B7v160006ES1_, symObjAddr: 0x10BE8, symBinAddr: 0x10001175C, symSize: 0x28 }
  - { offsetInCU: 0x443E7, offset: 0x443E7, size: 0x8, addend: 0x0, symName: __ZNSt3__16vectorIhNS_9allocatorIhEEE21_ConstructTransactionD2B7v160006Ev, symObjAddr: 0x10C10, symBinAddr: 0x100011784, symSize: 0x20 }
  - { offsetInCU: 0x44411, offset: 0x44411, size: 0x8, addend: 0x0, symName: __ZNSt3__128__exception_guard_exceptionsINS_6vectorIhNS_9allocatorIhEEE16__destroy_vectorEED2B7v160006Ev, symObjAddr: 0x10C30, symBinAddr: 0x1000117A4, symSize: 0x50 }
  - { offsetInCU: 0x4443B, offset: 0x4443B, size: 0x8, addend: 0x0, symName: __ZNKSt3__117__compressed_pairIPN8nlohmann16json_abi_v3_12_027byte_container_with_subtypeINS_6vectorIhNS_9allocatorIhEEEEEEZNS2_10basic_jsonINS_3mapES4_NS_12basic_stringIcNS_11char_traitsIcEENS5_IcEEEEbxydS5_NS2_14adl_serializerES7_vE6createIS8_JRKS8_EEEPT_DpOT0_EUlS9_E_E5firstB7v160006Ev, symObjAddr: 0x10C80, symBinAddr: 0x1000117F4, symSize: 0x24 }
  - { offsetInCU: 0x44461, offset: 0x44461, size: 0x8, addend: 0x0, symName: __ZNKSt3__110unique_ptrIN8nlohmann16json_abi_v3_12_027byte_container_with_subtypeINS_6vectorIhNS_9allocatorIhEEEEEEZNS2_10basic_jsonINS_3mapES4_NS_12basic_stringIcNS_11char_traitsIcEENS5_IcEEEEbxydS5_NS2_14adl_serializerES7_vE6createIS8_JRKS8_EEEPT_DpOT0_EUlPS8_E_EcvbB7v160006Ev, symObjAddr: 0x10CA4, symBinAddr: 0x100011818, symSize: 0x34 }
  - { offsetInCU: 0x44487, offset: 0x44487, size: 0x8, addend: 0x0, symName: __ZNSt3__117__compressed_pairIPN8nlohmann16json_abi_v3_12_027byte_container_with_subtypeINS_6vectorIhNS_9allocatorIhEEEEEEZNS2_10basic_jsonINS_3mapES4_NS_12basic_stringIcNS_11char_traitsIcEENS5_IcEEEEbxydS5_NS2_14adl_serializerES7_vE6createIS8_JRKS8_EEEPT_DpOT0_EUlS9_E_E5firstB7v160006Ev, symObjAddr: 0x10CD8, symBinAddr: 0x10001184C, symSize: 0x24 }
  - { offsetInCU: 0x444AD, offset: 0x444AD, size: 0x8, addend: 0x0, symName: __ZNSt3__110unique_ptrIN8nlohmann16json_abi_v3_12_027byte_container_with_subtypeINS_6vectorIhNS_9allocatorIhEEEEEEZNS2_10basic_jsonINS_3mapES4_NS_12basic_stringIcNS_11char_traitsIcEENS5_IcEEEEbxydS5_NS2_14adl_serializerES7_vE6createIS8_JRKS8_EEEPT_DpOT0_EUlPS8_E_ED2B7v160006Ev, symObjAddr: 0x10CFC, symBinAddr: 0x100011870, symSize: 0x30 }
  - { offsetInCU: 0x444D7, offset: 0x444D7, size: 0x8, addend: 0x0, symName: __ZNSt3__110unique_ptrIN8nlohmann16json_abi_v3_12_027byte_container_with_subtypeINS_6vectorIhNS_9allocatorIhEEEEEEZNS2_10basic_jsonINS_3mapES4_NS_12basic_stringIcNS_11char_traitsIcEENS5_IcEEEEbxydS5_NS2_14adl_serializerES7_vE6createIS8_JRKS8_EEEPT_DpOT0_EUlPS8_E_E5resetB7v160006ESQ_, symObjAddr: 0x10D2C, symBinAddr: 0x1000118A0, symSize: 0x80 }
  - { offsetInCU: 0x4451B, offset: 0x4451B, size: 0x8, addend: 0x0, symName: __ZNSt3__117__compressed_pairIPN8nlohmann16json_abi_v3_12_027byte_container_with_subtypeINS_6vectorIhNS_9allocatorIhEEEEEEZNS2_10basic_jsonINS_3mapES4_NS_12basic_stringIcNS_11char_traitsIcEENS5_IcEEEEbxydS5_NS2_14adl_serializerES7_vE6createIS8_JRKS8_EEEPT_DpOT0_EUlS9_E_E6secondB7v160006Ev, symObjAddr: 0x10DAC, symBinAddr: 0x100011920, symSize: 0x28 }
  - { offsetInCU: 0x44547, offset: 0x44547, size: 0x8, addend: 0x0, symName: __ZZN8nlohmann16json_abi_v3_12_010basic_jsonINSt3__13mapENS2_6vectorENS2_12basic_stringIcNS2_11char_traitsIcEENS2_9allocatorIcEEEEbxydS8_NS0_14adl_serializerENS4_IhNS8_IhEEEEvE6createINS0_27byte_container_with_subtypeISD_EEJRKSH_EEEPT_DpOT0_ENKUlPSH_E_clESP_, symObjAddr: 0x10DD4, symBinAddr: 0x100011948, symSize: 0x34 }
  - { offsetInCU: 0x44580, offset: 0x44580, size: 0x8, addend: 0x0, symName: __ZNSt3__122__compressed_pair_elemIZN8nlohmann16json_abi_v3_12_010basic_jsonINS_3mapENS_6vectorENS_12basic_stringIcNS_11char_traitsIcEENS_9allocatorIcEEEEbxydS9_NS2_14adl_serializerENS5_IhNS9_IhEEEEvE6createINS2_27byte_container_with_subtypeISE_EEJRKSI_EEEPT_DpOT0_EUlPSI_E_Li1ELb0EE5__getB7v160006Ev, symObjAddr: 0x10E08, symBinAddr: 0x10001197C, symSize: 0x14 }
  - { offsetInCU: 0x445A6, offset: 0x445A6, size: 0x8, addend: 0x0, symName: __ZNSt3__16__treeINS_12__value_typeINS_12basic_stringIcNS_11char_traitsIcEENS_9allocatorIcEEEEN8nlohmann16json_abi_v3_12_010basic_jsonINS_3mapENS_6vectorES7_bxydS5_NS9_14adl_serializerENSC_IhNS5_IhEEEEvEEEENS_19__map_value_compareIS7_SH_NS_4lessIvEELb1EEENS5_ISH_EEE16__emplace_uniqueB7v160006IS7_SG_EENS_9enable_ifIXsr21__can_extract_map_keyIT_S7_NS_4pairIKS7_SG_EEEE5valueENSR_INS_15__tree_iteratorISH_PNS_11__tree_nodeISH_PvEElEEbEEE4typeEOSQ_OT0_, symObjAddr: 0x10E1C, symBinAddr: 0x100011990, symSize: 0x48 }
  - { offsetInCU: 0x445FC, offset: 0x445FC, size: 0x8, addend: 0x0, symName: __ZNSt3__16__treeINS_12__value_typeINS_12basic_stringIcNS_11char_traitsIcEENS_9allocatorIcEEEEN8nlohmann16json_abi_v3_12_010basic_jsonINS_3mapENS_6vectorES7_bxydS5_NS9_14adl_serializerENSC_IhNS5_IhEEEEvEEEENS_19__map_value_compareIS7_SH_NS_4lessIvEELb1EEENS5_ISH_EEE25__emplace_unique_key_argsIS7_JS7_SG_EEENS_4pairINS_15__tree_iteratorISH_PNS_11__tree_nodeISH_PvEElEEbEERKT_DpOT0_, symObjAddr: 0x10E64, symBinAddr: 0x1000119D8, symSize: 0xF8 }
  - { offsetInCU: 0x446BE, offset: 0x446BE, size: 0x8, addend: 0x0, symName: __ZNSt3__16__treeINS_12__value_typeINS_12basic_stringIcNS_11char_traitsIcEENS_9allocatorIcEEEEN8nlohmann16json_abi_v3_12_010basic_jsonINS_3mapENS_6vectorES7_bxydS5_NS9_14adl_serializerENSC_IhNS5_IhEEEEvEEEENS_19__map_value_compareIS7_SH_NS_4lessIvEELb1EEENS5_ISH_EEE16__construct_nodeIJS7_SG_EEENS_10unique_ptrINS_11__tree_nodeISH_PvEENS_22__tree_node_destructorINS5_ISS_EEEEEEDpOT_, symObjAddr: 0x10F5C, symBinAddr: 0x100011AD0, symSize: 0x110 }
  - { offsetInCU: 0x44733, offset: 0x44733, size: 0x8, addend: 0x0, symName: __ZNSt3__116allocator_traitsINS_9allocatorINS_11__tree_nodeINS_12__value_typeINS_12basic_stringIcNS_11char_traitsIcEENS1_IcEEEEN8nlohmann16json_abi_v3_12_010basic_jsonINS_3mapENS_6vectorES8_bxydS1_NSA_14adl_serializerENSD_IhNS1_IhEEEEvEEEEPvEEEEE9constructB7v160006INS_4pairIKS8_SH_EEJS8_SH_EvvEEvRSL_PT_DpOT0_, symObjAddr: 0x1106C, symBinAddr: 0x100011BE0, symSize: 0x38 }
  - { offsetInCU: 0x4479B, offset: 0x4479B, size: 0x8, addend: 0x0, symName: __ZNSt3__14pairIKNS_12basic_stringIcNS_11char_traitsIcEENS_9allocatorIcEEEEN8nlohmann16json_abi_v3_12_010basic_jsonINS_3mapENS_6vectorES6_bxydS4_NS9_14adl_serializerENSC_IhNS4_IhEEEEvEEEC1B7v160006IS6_SG_LPv0EEEOT_OT0_, symObjAddr: 0x110E8, symBinAddr: 0x100011C5C, symSize: 0x3C }
  - { offsetInCU: 0x447FB, offset: 0x447FB, size: 0x8, addend: 0x0, symName: __ZNSt3__14pairIKNS_12basic_stringIcNS_11char_traitsIcEENS_9allocatorIcEEEEN8nlohmann16json_abi_v3_12_010basic_jsonINS_3mapENS_6vectorES6_bxydS4_NS9_14adl_serializerENSC_IhNS4_IhEEEEvEEEC2B7v160006IS6_SG_LPv0EEEOT_OT0_, symObjAddr: 0x11124, symBinAddr: 0x100011C98, symSize: 0x48 }
  - { offsetInCU: 0x448CE, offset: 0x448CE, size: 0x8, addend: 0x0, symName: __ZNSt3__110unique_ptrINS_6vectorIN8nlohmann16json_abi_v3_12_010basic_jsonINS_3mapES1_NS_12basic_stringIcNS_11char_traitsIcEENS_9allocatorIcEEEEbxydS9_NS3_14adl_serializerENS1_IhNS9_IhEEEEvEENS9_ISF_EEEEZNSF_6createISH_JPKNS3_6detail8json_refISF_EESN_EEEPT_DpOT0_EUlPSH_E_EC1B7v160006ILb1EvEEST_NS_16__dependent_typeINS_27__unique_ptr_deleter_sfinaeISU_EEXT_EE15__lval_ref_typeE, symObjAddr: 0x1116C, symBinAddr: 0x100011CE0, symSize: 0x3C }
  - { offsetInCU: 0x44921, offset: 0x44921, size: 0x8, addend: 0x0, symName: __ZNSt3__116allocator_traitsINS_9allocatorINS_6vectorIN8nlohmann16json_abi_v3_12_010basic_jsonINS_3mapES2_NS_12basic_stringIcNS_11char_traitsIcEENS1_IcEEEEbxydS1_NS4_14adl_serializerENS2_IhNS1_IhEEEEvEENS1_ISF_EEEEEEE9constructB7v160006ISH_JPKNS4_6detail8json_refISF_EESP_EvvEEvRSI_PT_DpOT0_, symObjAddr: 0x111A8, symBinAddr: 0x100011D1C, symSize: 0x38 }
  - { offsetInCU: 0x44989, offset: 0x44989, size: 0x8, addend: 0x0, symName: __ZNKSt3__110unique_ptrINS_6vectorIN8nlohmann16json_abi_v3_12_010basic_jsonINS_3mapES1_NS_12basic_stringIcNS_11char_traitsIcEENS_9allocatorIcEEEEbxydS9_NS3_14adl_serializerENS1_IhNS9_IhEEEEvEENS9_ISF_EEEEZNSF_6createISH_JPKNS3_6detail8json_refISF_EESN_EEEPT_DpOT0_EUlPSH_E_E3getB7v160006Ev, symObjAddr: 0x111E0, symBinAddr: 0x100011D54, symSize: 0x28 }
  - { offsetInCU: 0x449AF, offset: 0x449AF, size: 0x8, addend: 0x0, symName: __ZNSt3__110unique_ptrINS_6vectorIN8nlohmann16json_abi_v3_12_010basic_jsonINS_3mapES1_NS_12basic_stringIcNS_11char_traitsIcEENS_9allocatorIcEEEEbxydS9_NS3_14adl_serializerENS1_IhNS9_IhEEEEvEENS9_ISF_EEEEZNSF_6createISH_JPKNS3_6detail8json_refISF_EESN_EEEPT_DpOT0_EUlPSH_E_E7releaseB7v160006Ev, symObjAddr: 0x11238, symBinAddr: 0x100011DAC, symSize: 0x44 }
  - { offsetInCU: 0x449E4, offset: 0x449E4, size: 0x8, addend: 0x0, symName: __ZNSt3__110unique_ptrINS_6vectorIN8nlohmann16json_abi_v3_12_010basic_jsonINS_3mapES1_NS_12basic_stringIcNS_11char_traitsIcEENS_9allocatorIcEEEEbxydS9_NS3_14adl_serializerENS1_IhNS9_IhEEEEvEENS9_ISF_EEEEZNSF_6createISH_JPKNS3_6detail8json_refISF_EESN_EEEPT_DpOT0_EUlPSH_E_ED1B7v160006Ev, symObjAddr: 0x1127C, symBinAddr: 0x100011DF0, symSize: 0x2C }
  - { offsetInCU: 0x44A0E, offset: 0x44A0E, size: 0x8, addend: 0x0, symName: __ZNSt3__110unique_ptrINS_6vectorIN8nlohmann16json_abi_v3_12_010basic_jsonINS_3mapES1_NS_12basic_stringIcNS_11char_traitsIcEENS_9allocatorIcEEEEbxydS9_NS3_14adl_serializerENS1_IhNS9_IhEEEEvEENS9_ISF_EEEEZNSF_6createISH_JPKNS3_6detail8json_refISF_EESN_EEEPT_DpOT0_EUlPSH_E_EC2B7v160006ILb1EvEEST_NS_16__dependent_typeINS_27__unique_ptr_deleter_sfinaeISU_EEXT_EE15__lval_ref_typeE, symObjAddr: 0x112A8, symBinAddr: 0x100011E1C, symSize: 0x48 }
  - { offsetInCU: 0x44A61, offset: 0x44A61, size: 0x8, addend: 0x0, symName: __ZNSt3__117__compressed_pairIPNS_6vectorIN8nlohmann16json_abi_v3_12_010basic_jsonINS_3mapES1_NS_12basic_stringIcNS_11char_traitsIcEENS_9allocatorIcEEEEbxydS9_NS3_14adl_serializerENS1_IhNS9_IhEEEEvEENS9_ISF_EEEEZNSF_6createISH_JPKNS3_6detail8json_refISF_EESO_EEEPT_DpOT0_EUlSI_E_EC1B7v160006IRSI_RKSU_EEOSP_OT0_, symObjAddr: 0x112F0, symBinAddr: 0x100011E64, symSize: 0x3C }
  - { offsetInCU: 0x44ABB, offset: 0x44ABB, size: 0x8, addend: 0x0, symName: __ZNSt3__117__compressed_pairIPNS_6vectorIN8nlohmann16json_abi_v3_12_010basic_jsonINS_3mapES1_NS_12basic_stringIcNS_11char_traitsIcEENS_9allocatorIcEEEEbxydS9_NS3_14adl_serializerENS1_IhNS9_IhEEEEvEENS9_ISF_EEEEZNSF_6createISH_JPKNS3_6detail8json_refISF_EESO_EEEPT_DpOT0_EUlSI_E_EC2B7v160006IRSI_RKSU_EEOSP_OT0_, symObjAddr: 0x1132C, symBinAddr: 0x100011EA0, symSize: 0x48 }
  - { offsetInCU: 0x44B15, offset: 0x44B15, size: 0x8, addend: 0x0, symName: __ZNSt3__122__compressed_pair_elemIZN8nlohmann16json_abi_v3_12_010basic_jsonINS_3mapENS_6vectorENS_12basic_stringIcNS_11char_traitsIcEENS_9allocatorIcEEEEbxydS9_NS2_14adl_serializerENS5_IhNS9_IhEEEEvE6createINS5_ISF_NS9_ISF_EEEEJPKNS2_6detail8json_refISF_EESN_EEEPT_DpOT0_EUlPSI_E_Li1ELb0EEC2B7v160006IRKSU_vEEOSO_, symObjAddr: 0x11374, symBinAddr: 0x100011EE8, symSize: 0x24 }
  - { offsetInCU: 0x44B58, offset: 0x44B58, size: 0x8, addend: 0x0, symName: __ZNSt3__16vectorIN8nlohmann16json_abi_v3_12_010basic_jsonINS_3mapES0_NS_12basic_stringIcNS_11char_traitsIcEENS_9allocatorIcEEEEbxydS8_NS2_14adl_serializerENS0_IhNS8_IhEEEEvEENS8_ISE_EEEC1IPKNS2_6detail8json_refISE_EELi0EEET_SN_, symObjAddr: 0x113E4, symBinAddr: 0x100011F58, symSize: 0x3C }
  - { offsetInCU: 0x44BB1, offset: 0x44BB1, size: 0x8, addend: 0x0, symName: __ZNSt3__16vectorIN8nlohmann16json_abi_v3_12_010basic_jsonINS_3mapES0_NS_12basic_stringIcNS_11char_traitsIcEENS_9allocatorIcEEEEbxydS8_NS2_14adl_serializerENS0_IhNS8_IhEEEEvEENS8_ISE_EEEC2IPKNS2_6detail8json_refISE_EELi0EEET_SN_, symObjAddr: 0x11420, symBinAddr: 0x100011F94, symSize: 0x104 }
  - { offsetInCU: 0x44C30, offset: 0x44C30, size: 0x8, addend: 0x0, symName: __ZNSt3__16vectorIN8nlohmann16json_abi_v3_12_010basic_jsonINS_3mapES0_NS_12basic_stringIcNS_11char_traitsIcEENS_9allocatorIcEEEEbxydS8_NS2_14adl_serializerENS0_IhNS8_IhEEEEvEENS8_ISE_EEE18__construct_at_endIPKNS2_6detail8json_refISE_EELi0EEEvT_SN_m, symObjAddr: 0x11550, symBinAddr: 0x1000120C4, symSize: 0x8C }
  - { offsetInCU: 0x44CA3, offset: 0x44CA3, size: 0x8, addend: 0x0, symName: __ZNSt3__116allocator_traitsINS_9allocatorIN8nlohmann16json_abi_v3_12_010basic_jsonINS_3mapENS_6vectorENS_12basic_stringIcNS_11char_traitsIcEENS1_IcEEEEbxydS1_NS3_14adl_serializerENS6_IhNS1_IhEEEEvEEEEE9constructB7v160006ISF_JRKNS3_6detail8json_refISF_EEEvvEEvRSG_PT_DpOT0_, symObjAddr: 0x116F8, symBinAddr: 0x10001226C, symSize: 0x30 }
  - { offsetInCU: 0x44CF7, offset: 0x44CF7, size: 0x8, addend: 0x0, symName: __ZN8nlohmann16json_abi_v3_12_010basic_jsonINSt3__13mapENS2_6vectorENS2_12basic_stringIcNS2_11char_traitsIcEENS2_9allocatorIcEEEEbxydS8_NS0_14adl_serializerENS4_IhNS8_IhEEEEvEC1INS0_6detail8json_refISE_EELi0EEERKT_, symObjAddr: 0x11764, symBinAddr: 0x1000122D8, symSize: 0x50 }
  - { offsetInCU: 0x44D3F, offset: 0x44D3F, size: 0x8, addend: 0x0, symName: __ZNKSt3__117__compressed_pairIPNS_6vectorIN8nlohmann16json_abi_v3_12_010basic_jsonINS_3mapES1_NS_12basic_stringIcNS_11char_traitsIcEENS_9allocatorIcEEEEbxydS9_NS3_14adl_serializerENS1_IhNS9_IhEEEEvEENS9_ISF_EEEEZNSF_6createISH_JPKNS3_6detail8json_refISF_EESO_EEEPT_DpOT0_EUlSI_E_E5firstB7v160006Ev, symObjAddr: 0x117B4, symBinAddr: 0x100012328, symSize: 0x24 }
  - { offsetInCU: 0x44D65, offset: 0x44D65, size: 0x8, addend: 0x0, symName: __ZNKSt3__110unique_ptrINS_6vectorIN8nlohmann16json_abi_v3_12_010basic_jsonINS_3mapES1_NS_12basic_stringIcNS_11char_traitsIcEENS_9allocatorIcEEEEbxydS9_NS3_14adl_serializerENS1_IhNS9_IhEEEEvEENS9_ISF_EEEEZNSF_6createISH_JPKNS3_6detail8json_refISF_EESN_EEEPT_DpOT0_EUlPSH_E_EcvbB7v160006Ev, symObjAddr: 0x117D8, symBinAddr: 0x10001234C, symSize: 0x34 }
  - { offsetInCU: 0x44D8B, offset: 0x44D8B, size: 0x8, addend: 0x0, symName: __ZNSt3__117__compressed_pairIPNS_6vectorIN8nlohmann16json_abi_v3_12_010basic_jsonINS_3mapES1_NS_12basic_stringIcNS_11char_traitsIcEENS_9allocatorIcEEEEbxydS9_NS3_14adl_serializerENS1_IhNS9_IhEEEEvEENS9_ISF_EEEEZNSF_6createISH_JPKNS3_6detail8json_refISF_EESO_EEEPT_DpOT0_EUlSI_E_E5firstB7v160006Ev, symObjAddr: 0x1180C, symBinAddr: 0x100012380, symSize: 0x24 }
  - { offsetInCU: 0x44DB1, offset: 0x44DB1, size: 0x8, addend: 0x0, symName: __ZNSt3__110unique_ptrINS_6vectorIN8nlohmann16json_abi_v3_12_010basic_jsonINS_3mapES1_NS_12basic_stringIcNS_11char_traitsIcEENS_9allocatorIcEEEEbxydS9_NS3_14adl_serializerENS1_IhNS9_IhEEEEvEENS9_ISF_EEEEZNSF_6createISH_JPKNS3_6detail8json_refISF_EESN_EEEPT_DpOT0_EUlPSH_E_ED2B7v160006Ev, symObjAddr: 0x11830, symBinAddr: 0x1000123A4, symSize: 0x30 }
  - { offsetInCU: 0x44DDB, offset: 0x44DDB, size: 0x8, addend: 0x0, symName: __ZNSt3__110unique_ptrINS_6vectorIN8nlohmann16json_abi_v3_12_010basic_jsonINS_3mapES1_NS_12basic_stringIcNS_11char_traitsIcEENS_9allocatorIcEEEEbxydS9_NS3_14adl_serializerENS1_IhNS9_IhEEEEvEENS9_ISF_EEEEZNSF_6createISH_JPKNS3_6detail8json_refISF_EESN_EEEPT_DpOT0_EUlPSH_E_E5resetB7v160006EST_, symObjAddr: 0x11860, symBinAddr: 0x1000123D4, symSize: 0x80 }
  - { offsetInCU: 0x44E1F, offset: 0x44E1F, size: 0x8, addend: 0x0, symName: __ZNSt3__117__compressed_pairIPNS_6vectorIN8nlohmann16json_abi_v3_12_010basic_jsonINS_3mapES1_NS_12basic_stringIcNS_11char_traitsIcEENS_9allocatorIcEEEEbxydS9_NS3_14adl_serializerENS1_IhNS9_IhEEEEvEENS9_ISF_EEEEZNSF_6createISH_JPKNS3_6detail8json_refISF_EESO_EEEPT_DpOT0_EUlSI_E_E6secondB7v160006Ev, symObjAddr: 0x118E0, symBinAddr: 0x100012454, symSize: 0x28 }
  - { offsetInCU: 0x44E4B, offset: 0x44E4B, size: 0x8, addend: 0x0, symName: __ZZN8nlohmann16json_abi_v3_12_010basic_jsonINSt3__13mapENS2_6vectorENS2_12basic_stringIcNS2_11char_traitsIcEENS2_9allocatorIcEEEEbxydS8_NS0_14adl_serializerENS4_IhNS8_IhEEEEvE6createINS4_ISE_NS8_ISE_EEEEJPKNS0_6detail8json_refISE_EESM_EEEPT_DpOT0_ENKUlPSH_E_clESS_, symObjAddr: 0x11908, symBinAddr: 0x10001247C, symSize: 0x34 }
  - { offsetInCU: 0x44E84, offset: 0x44E84, size: 0x8, addend: 0x0, symName: __ZNSt3__122__compressed_pair_elemIZN8nlohmann16json_abi_v3_12_010basic_jsonINS_3mapENS_6vectorENS_12basic_stringIcNS_11char_traitsIcEENS_9allocatorIcEEEEbxydS9_NS2_14adl_serializerENS5_IhNS9_IhEEEEvE6createINS5_ISF_NS9_ISF_EEEEJPKNS2_6detail8json_refISF_EESN_EEEPT_DpOT0_EUlPSI_E_Li1ELb0EE5__getB7v160006Ev, symObjAddr: 0x1193C, symBinAddr: 0x1000124B0, symSize: 0x14 }
  - { offsetInCU: 0x44EAA, offset: 0x44EAA, size: 0x8, addend: 0x0, symName: __ZN8nlohmann16json_abi_v3_12_010basic_jsonINSt3__13mapENS2_6vectorENS2_12basic_stringIcNS2_11char_traitsIcEENS2_9allocatorIcEEEEbxydS8_NS0_14adl_serializerENS4_IhNS8_IhEEEEvE4dataD2Ev, symObjAddr: 0x11950, symBinAddr: 0x1000124C4, symSize: 0x3C }
  - { offsetInCU: 0x44ED4, offset: 0x44ED4, size: 0x8, addend: 0x0, symName: __ZNSt16initializer_listIN8nlohmann16json_abi_v3_12_06detail8json_refINS1_10basic_jsonINSt3__13mapENS5_6vectorENS5_12basic_stringIcNS5_11char_traitsIcEENS5_9allocatorIcEEEEbxydSB_NS1_14adl_serializerENS7_IhNSB_IhEEEEvEEEEEC2B7v160006Ev, symObjAddr: 0x1198C, symBinAddr: 0x100012500, symSize: 0x1C }
  - { offsetInCU: 0x44EFE, offset: 0x44EFE, size: 0x8, addend: 0x0, symName: __ZNKSt3__16vectorIP7AstNodeNS_9allocatorIS2_EEE11__make_iterB7v160006EPKS2_, symObjAddr: 0x119A8, symBinAddr: 0x10001251C, symSize: 0x34 }
  - { offsetInCU: 0x44F33, offset: 0x44F33, size: 0x8, addend: 0x0, symName: __ZNSt3__111__wrap_iterIPKP7AstNodeEC1B7v160006EPKvS4_, symObjAddr: 0x119DC, symBinAddr: 0x100012550, symSize: 0x3C }
  - { offsetInCU: 0x44F7B, offset: 0x44F7B, size: 0x8, addend: 0x0, symName: __ZNSt3__111__wrap_iterIPKP7AstNodeEC2B7v160006EPKvS4_, symObjAddr: 0x11A18, symBinAddr: 0x10001258C, symSize: 0x24 }
  - { offsetInCU: 0x44FC3, offset: 0x44FC3, size: 0x8, addend: 0x0, symName: __ZNKSt3__111__wrap_iterIPKP7AstNodeE4baseB7v160006Ev, symObjAddr: 0x11A84, symBinAddr: 0x1000125F8, symSize: 0x18 }
  - { offsetInCU: 0x44FE9, offset: 0x44FE9, size: 0x8, addend: 0x0, symName: __ZN11InterpreterD2Ev, symObjAddr: 0x11B9C, symBinAddr: 0x100012710, symSize: 0x4C }
  - { offsetInCU: 0x45015, offset: 0x45015, size: 0x8, addend: 0x0, symName: __ZNSt3__16vectorIP5ScopeNS_9allocatorIS2_EEED1B7v160006Ev, symObjAddr: 0x11BE8, symBinAddr: 0x10001275C, symSize: 0x2C }
  - { offsetInCU: 0x4503F, offset: 0x4503F, size: 0x8, addend: 0x0, symName: __ZN16GarbageCollectorD1Ev, symObjAddr: 0x11C14, symBinAddr: 0x100012788, symSize: 0x2C }
  - { offsetInCU: 0x4506B, offset: 0x4506B, size: 0x8, addend: 0x0, symName: __ZNSt3__16vectorIP5ScopeNS_9allocatorIS2_EEED2B7v160006Ev, symObjAddr: 0x11C40, symBinAddr: 0x1000127B4, symSize: 0x44 }
  - { offsetInCU: 0x45095, offset: 0x45095, size: 0x8, addend: 0x0, symName: __ZNSt3__16vectorIP5ScopeNS_9allocatorIS2_EEE16__destroy_vectorC1ERS5_, symObjAddr: 0x11C84, symBinAddr: 0x1000127F8, symSize: 0x34 }
  - { offsetInCU: 0x450CE, offset: 0x450CE, size: 0x8, addend: 0x0, symName: __ZNSt3__16vectorIP5ScopeNS_9allocatorIS2_EEE16__destroy_vectorclB7v160006Ev, symObjAddr: 0x11CB8, symBinAddr: 0x10001282C, symSize: 0x9C }
  - { offsetInCU: 0x450F4, offset: 0x450F4, size: 0x8, addend: 0x0, symName: __ZNSt3__16vectorIP5ScopeNS_9allocatorIS2_EEE16__destroy_vectorC2ERS5_, symObjAddr: 0x11D54, symBinAddr: 0x1000128C8, symSize: 0x20 }
  - { offsetInCU: 0x4512D, offset: 0x4512D, size: 0x8, addend: 0x0, symName: __ZNKSt3__16vectorIP5ScopeNS_9allocatorIS2_EEE17__annotate_deleteB7v160006Ev, symObjAddr: 0x11D74, symBinAddr: 0x1000128E8, symSize: 0xB8 }
  - { offsetInCU: 0x45153, offset: 0x45153, size: 0x8, addend: 0x0, symName: __ZNSt3__16vectorIP5ScopeNS_9allocatorIS2_EEE7__clearB7v160006Ev, symObjAddr: 0x11E3C, symBinAddr: 0x1000129B0, symSize: 0x28 }
  - { offsetInCU: 0x45179, offset: 0x45179, size: 0x8, addend: 0x0, symName: __ZNSt3__116allocator_traitsINS_9allocatorIP5ScopeEEE10deallocateB7v160006ERS4_PS3_m, symObjAddr: 0x11E64, symBinAddr: 0x1000129D8, symSize: 0x34 }
  - { offsetInCU: 0x451BB, offset: 0x451BB, size: 0x8, addend: 0x0, symName: __ZNSt3__16vectorIP5ScopeNS_9allocatorIS2_EEE7__allocB7v160006Ev, symObjAddr: 0x11E98, symBinAddr: 0x100012A0C, symSize: 0x28 }
  - { offsetInCU: 0x451E1, offset: 0x451E1, size: 0x8, addend: 0x0, symName: __ZNKSt3__16vectorIP5ScopeNS_9allocatorIS2_EEE8capacityB7v160006Ev, symObjAddr: 0x11EC0, symBinAddr: 0x100012A34, symSize: 0x40 }
  - { offsetInCU: 0x45207, offset: 0x45207, size: 0x8, addend: 0x0, symName: __ZNKSt3__16vectorIP5ScopeNS_9allocatorIS2_EEE31__annotate_contiguous_containerB7v160006EPKvS7_S7_S7_, symObjAddr: 0x11F00, symBinAddr: 0x100012A74, symSize: 0x20 }
  - { offsetInCU: 0x45259, offset: 0x45259, size: 0x8, addend: 0x0, symName: __ZNKSt3__16vectorIP5ScopeNS_9allocatorIS2_EEE4dataB7v160006Ev, symObjAddr: 0x11F20, symBinAddr: 0x100012A94, symSize: 0x28 }
  - { offsetInCU: 0x4527F, offset: 0x4527F, size: 0x8, addend: 0x0, symName: __ZNKSt3__16vectorIP5ScopeNS_9allocatorIS2_EEE4sizeB7v160006Ev, symObjAddr: 0x11F48, symBinAddr: 0x100012ABC, symSize: 0x28 }
  - { offsetInCU: 0x452A5, offset: 0x452A5, size: 0x8, addend: 0x0, symName: __ZNSt3__16vectorIP5ScopeNS_9allocatorIS2_EEE22__base_destruct_at_endB7v160006EPS2_, symObjAddr: 0x11F84, symBinAddr: 0x100012AF8, symSize: 0x8C }
  - { offsetInCU: 0x452E9, offset: 0x452E9, size: 0x8, addend: 0x0, symName: __ZNSt3__116allocator_traitsINS_9allocatorIP5ScopeEEE7destroyB7v160006IS3_vvEEvRS4_PT_, symObjAddr: 0x12010, symBinAddr: 0x100012B84, symSize: 0x28 }
  - { offsetInCU: 0x45323, offset: 0x45323, size: 0x8, addend: 0x0, symName: __ZNSt3__19allocatorIP5ScopeE10deallocateB7v160006EPS2_m, symObjAddr: 0x1206C, symBinAddr: 0x100012BE0, symSize: 0x40 }
  - { offsetInCU: 0x45367, offset: 0x45367, size: 0x8, addend: 0x0, symName: __ZNSt3__117__compressed_pairIPP5ScopeNS_9allocatorIS2_EEE6secondB7v160006Ev, symObjAddr: 0x120AC, symBinAddr: 0x100012C20, symSize: 0x24 }
  - { offsetInCU: 0x4538D, offset: 0x4538D, size: 0x8, addend: 0x0, symName: __ZNSt3__122__compressed_pair_elemINS_9allocatorIP5ScopeEELi1ELb1EE5__getB7v160006Ev, symObjAddr: 0x120D0, symBinAddr: 0x100012C44, symSize: 0x14 }
  - { offsetInCU: 0x453B3, offset: 0x453B3, size: 0x8, addend: 0x0, symName: __ZNKSt3__16vectorIP5ScopeNS_9allocatorIS2_EEE9__end_capB7v160006Ev, symObjAddr: 0x120E4, symBinAddr: 0x100012C58, symSize: 0x28 }
  - { offsetInCU: 0x453D9, offset: 0x453D9, size: 0x8, addend: 0x0, symName: __ZNKSt3__117__compressed_pairIPP5ScopeNS_9allocatorIS2_EEE5firstB7v160006Ev, symObjAddr: 0x1210C, symBinAddr: 0x100012C80, symSize: 0x24 }
  - { offsetInCU: 0x453FF, offset: 0x453FF, size: 0x8, addend: 0x0, symName: __ZNKSt3__122__compressed_pair_elemIPP5ScopeLi0ELb0EE5__getB7v160006Ev, symObjAddr: 0x12130, symBinAddr: 0x100012CA4, symSize: 0x14 }
  - { offsetInCU: 0x45425, offset: 0x45425, size: 0x8, addend: 0x0, symName: __ZN16GarbageCollectorD2Ev, symObjAddr: 0x12144, symBinAddr: 0x100012CB8, symSize: 0x2C }
  - { offsetInCU: 0x45451, offset: 0x45451, size: 0x8, addend: 0x0, symName: __ZNSt3__16vectorIP8PyObjectNS_9allocatorIS2_EEED1B7v160006Ev, symObjAddr: 0x12170, symBinAddr: 0x100012CE4, symSize: 0x2C }
  - { offsetInCU: 0x4547B, offset: 0x4547B, size: 0x8, addend: 0x0, symName: __ZNSt3__16vectorIP8PyObjectNS_9allocatorIS2_EEED2B7v160006Ev, symObjAddr: 0x1219C, symBinAddr: 0x100012D10, symSize: 0x44 }
  - { offsetInCU: 0x454A5, offset: 0x454A5, size: 0x8, addend: 0x0, symName: __ZNSt3__16vectorIP8PyObjectNS_9allocatorIS2_EEE16__destroy_vectorC1ERS5_, symObjAddr: 0x121E0, symBinAddr: 0x100012D54, symSize: 0x34 }
  - { offsetInCU: 0x454DE, offset: 0x454DE, size: 0x8, addend: 0x0, symName: __ZNSt3__16vectorIP8PyObjectNS_9allocatorIS2_EEE16__destroy_vectorclB7v160006Ev, symObjAddr: 0x12214, symBinAddr: 0x100012D88, symSize: 0x9C }
  - { offsetInCU: 0x45504, offset: 0x45504, size: 0x8, addend: 0x0, symName: __ZNSt3__16vectorIP8PyObjectNS_9allocatorIS2_EEE16__destroy_vectorC2ERS5_, symObjAddr: 0x122B0, symBinAddr: 0x100012E24, symSize: 0x20 }
  - { offsetInCU: 0x4553D, offset: 0x4553D, size: 0x8, addend: 0x0, symName: __ZNKSt3__16vectorIP8PyObjectNS_9allocatorIS2_EEE17__annotate_deleteB7v160006Ev, symObjAddr: 0x122D0, symBinAddr: 0x100012E44, symSize: 0xB8 }
  - { offsetInCU: 0x45563, offset: 0x45563, size: 0x8, addend: 0x0, symName: __ZNSt3__16vectorIP8PyObjectNS_9allocatorIS2_EEE7__clearB7v160006Ev, symObjAddr: 0x12398, symBinAddr: 0x100012F0C, symSize: 0x28 }
  - { offsetInCU: 0x45589, offset: 0x45589, size: 0x8, addend: 0x0, symName: __ZNSt3__116allocator_traitsINS_9allocatorIP8PyObjectEEE10deallocateB7v160006ERS4_PS3_m, symObjAddr: 0x123C0, symBinAddr: 0x100012F34, symSize: 0x34 }
  - { offsetInCU: 0x455CB, offset: 0x455CB, size: 0x8, addend: 0x0, symName: __ZNSt3__16vectorIP8PyObjectNS_9allocatorIS2_EEE7__allocB7v160006Ev, symObjAddr: 0x123F4, symBinAddr: 0x100012F68, symSize: 0x28 }
  - { offsetInCU: 0x455F1, offset: 0x455F1, size: 0x8, addend: 0x0, symName: __ZNKSt3__16vectorIP8PyObjectNS_9allocatorIS2_EEE8capacityB7v160006Ev, symObjAddr: 0x1241C, symBinAddr: 0x100012F90, symSize: 0x40 }
  - { offsetInCU: 0x45617, offset: 0x45617, size: 0x8, addend: 0x0, symName: __ZNKSt3__16vectorIP8PyObjectNS_9allocatorIS2_EEE31__annotate_contiguous_containerB7v160006EPKvS7_S7_S7_, symObjAddr: 0x1245C, symBinAddr: 0x100012FD0, symSize: 0x20 }
  - { offsetInCU: 0x45669, offset: 0x45669, size: 0x8, addend: 0x0, symName: __ZNKSt3__16vectorIP8PyObjectNS_9allocatorIS2_EEE4dataB7v160006Ev, symObjAddr: 0x1247C, symBinAddr: 0x100012FF0, symSize: 0x28 }
  - { offsetInCU: 0x4568F, offset: 0x4568F, size: 0x8, addend: 0x0, symName: __ZNKSt3__16vectorIP8PyObjectNS_9allocatorIS2_EEE4sizeB7v160006Ev, symObjAddr: 0x124A4, symBinAddr: 0x100013018, symSize: 0x28 }
  - { offsetInCU: 0x456B5, offset: 0x456B5, size: 0x8, addend: 0x0, symName: __ZNSt3__16vectorIP8PyObjectNS_9allocatorIS2_EEE22__base_destruct_at_endB7v160006EPS2_, symObjAddr: 0x124E0, symBinAddr: 0x100013054, symSize: 0x8C }
  - { offsetInCU: 0x456F9, offset: 0x456F9, size: 0x8, addend: 0x0, symName: __ZNSt3__116allocator_traitsINS_9allocatorIP8PyObjectEEE7destroyB7v160006IS3_vvEEvRS4_PT_, symObjAddr: 0x1256C, symBinAddr: 0x1000130E0, symSize: 0x28 }
  - { offsetInCU: 0x45733, offset: 0x45733, size: 0x8, addend: 0x0, symName: __ZNSt3__19allocatorIP8PyObjectE10deallocateB7v160006EPS2_m, symObjAddr: 0x125C8, symBinAddr: 0x10001313C, symSize: 0x40 }
  - { offsetInCU: 0x45777, offset: 0x45777, size: 0x8, addend: 0x0, symName: __ZNSt3__117__compressed_pairIPP8PyObjectNS_9allocatorIS2_EEE6secondB7v160006Ev, symObjAddr: 0x12608, symBinAddr: 0x10001317C, symSize: 0x24 }
  - { offsetInCU: 0x4579D, offset: 0x4579D, size: 0x8, addend: 0x0, symName: __ZNSt3__122__compressed_pair_elemINS_9allocatorIP8PyObjectEELi1ELb1EE5__getB7v160006Ev, symObjAddr: 0x1262C, symBinAddr: 0x1000131A0, symSize: 0x14 }
  - { offsetInCU: 0x457C3, offset: 0x457C3, size: 0x8, addend: 0x0, symName: __ZNKSt3__16vectorIP8PyObjectNS_9allocatorIS2_EEE9__end_capB7v160006Ev, symObjAddr: 0x12640, symBinAddr: 0x1000131B4, symSize: 0x28 }
  - { offsetInCU: 0x457E9, offset: 0x457E9, size: 0x8, addend: 0x0, symName: __ZNKSt3__117__compressed_pairIPP8PyObjectNS_9allocatorIS2_EEE5firstB7v160006Ev, symObjAddr: 0x12668, symBinAddr: 0x1000131DC, symSize: 0x24 }
  - { offsetInCU: 0x4580F, offset: 0x4580F, size: 0x8, addend: 0x0, symName: __ZNKSt3__122__compressed_pair_elemIPP8PyObjectLi0ELb0EE5__getB7v160006Ev, symObjAddr: 0x1268C, symBinAddr: 0x100013200, symSize: 0x14 }
  - { offsetInCU: 0x45835, offset: 0x45835, size: 0x8, addend: 0x0, symName: __ZNSt3__16vectorI5TokenNS_9allocatorIS1_EEED2B7v160006Ev, symObjAddr: 0x126A0, symBinAddr: 0x100013214, symSize: 0x44 }
  - { offsetInCU: 0x4585F, offset: 0x4585F, size: 0x8, addend: 0x0, symName: __ZNSt3__16vectorI5TokenNS_9allocatorIS1_EEE16__destroy_vectorC1ERS4_, symObjAddr: 0x126E4, symBinAddr: 0x100013258, symSize: 0x34 }
  - { offsetInCU: 0x45898, offset: 0x45898, size: 0x8, addend: 0x0, symName: __ZNSt3__16vectorI5TokenNS_9allocatorIS1_EEE16__destroy_vectorclB7v160006Ev, symObjAddr: 0x12718, symBinAddr: 0x10001328C, symSize: 0x9C }
  - { offsetInCU: 0x458BE, offset: 0x458BE, size: 0x8, addend: 0x0, symName: __ZNSt3__16vectorI5TokenNS_9allocatorIS1_EEE16__destroy_vectorC2ERS4_, symObjAddr: 0x127B4, symBinAddr: 0x100013328, symSize: 0x20 }
  - { offsetInCU: 0x458F7, offset: 0x458F7, size: 0x8, addend: 0x0, symName: __ZNKSt3__16vectorI5TokenNS_9allocatorIS1_EEE17__annotate_deleteB7v160006Ev, symObjAddr: 0x127D4, symBinAddr: 0x100013348, symSize: 0xD4 }
  - { offsetInCU: 0x4591D, offset: 0x4591D, size: 0x8, addend: 0x0, symName: __ZNSt3__16vectorI5TokenNS_9allocatorIS1_EEE7__clearB7v160006Ev, symObjAddr: 0x128B8, symBinAddr: 0x10001342C, symSize: 0x28 }
  - { offsetInCU: 0x45943, offset: 0x45943, size: 0x8, addend: 0x0, symName: __ZNSt3__116allocator_traitsINS_9allocatorI5TokenEEE10deallocateB7v160006ERS3_PS2_m, symObjAddr: 0x128E0, symBinAddr: 0x100013454, symSize: 0x34 }
  - { offsetInCU: 0x45985, offset: 0x45985, size: 0x8, addend: 0x0, symName: __ZNSt3__16vectorI5TokenNS_9allocatorIS1_EEE7__allocB7v160006Ev, symObjAddr: 0x12914, symBinAddr: 0x100013488, symSize: 0x28 }
  - { offsetInCU: 0x459AB, offset: 0x459AB, size: 0x8, addend: 0x0, symName: __ZNKSt3__16vectorI5TokenNS_9allocatorIS1_EEE8capacityB7v160006Ev, symObjAddr: 0x1293C, symBinAddr: 0x1000134B0, symSize: 0x40 }
  - { offsetInCU: 0x459D1, offset: 0x459D1, size: 0x8, addend: 0x0, symName: __ZNKSt3__16vectorI5TokenNS_9allocatorIS1_EEE31__annotate_contiguous_containerB7v160006EPKvS6_S6_S6_, symObjAddr: 0x1297C, symBinAddr: 0x1000134F0, symSize: 0x20 }
  - { offsetInCU: 0x45A23, offset: 0x45A23, size: 0x8, addend: 0x0, symName: __ZNKSt3__16vectorI5TokenNS_9allocatorIS1_EEE4dataB7v160006Ev, symObjAddr: 0x1299C, symBinAddr: 0x100013510, symSize: 0x28 }
  - { offsetInCU: 0x45A49, offset: 0x45A49, size: 0x8, addend: 0x0, symName: __ZNKSt3__16vectorI5TokenNS_9allocatorIS1_EEE4sizeB7v160006Ev, symObjAddr: 0x129C4, symBinAddr: 0x100013538, symSize: 0x28 }
  - { offsetInCU: 0x45A6F, offset: 0x45A6F, size: 0x8, addend: 0x0, symName: __ZNSt3__16vectorI5TokenNS_9allocatorIS1_EEE22__base_destruct_at_endB7v160006EPS1_, symObjAddr: 0x12A00, symBinAddr: 0x100013574, symSize: 0x8C }
  - { offsetInCU: 0x45AB3, offset: 0x45AB3, size: 0x8, addend: 0x0, symName: __ZNSt3__116allocator_traitsINS_9allocatorI5TokenEEE7destroyB7v160006IS2_vvEEvRS3_PT_, symObjAddr: 0x12A8C, symBinAddr: 0x100013600, symSize: 0x28 }
  - { offsetInCU: 0x45AED, offset: 0x45AED, size: 0x8, addend: 0x0, symName: __ZN5TokenD1Ev, symObjAddr: 0x12AFC, symBinAddr: 0x100013670, symSize: 0x2C }
  - { offsetInCU: 0x45B19, offset: 0x45B19, size: 0x8, addend: 0x0, symName: __ZN5TokenD2Ev, symObjAddr: 0x12B28, symBinAddr: 0x10001369C, symSize: 0x30 }
  - { offsetInCU: 0x45B45, offset: 0x45B45, size: 0x8, addend: 0x0, symName: __ZNSt3__19allocatorI5TokenE10deallocateB7v160006EPS1_m, symObjAddr: 0x12B58, symBinAddr: 0x1000136CC, symSize: 0x44 }
  - { offsetInCU: 0x45B89, offset: 0x45B89, size: 0x8, addend: 0x0, symName: __ZNSt3__117__compressed_pairIP5TokenNS_9allocatorIS1_EEE6secondB7v160006Ev, symObjAddr: 0x12B9C, symBinAddr: 0x100013710, symSize: 0x24 }
  - { offsetInCU: 0x45BAF, offset: 0x45BAF, size: 0x8, addend: 0x0, symName: __ZNSt3__122__compressed_pair_elemINS_9allocatorI5TokenEELi1ELb1EE5__getB7v160006Ev, symObjAddr: 0x12BC0, symBinAddr: 0x100013734, symSize: 0x14 }
  - { offsetInCU: 0x45BD5, offset: 0x45BD5, size: 0x8, addend: 0x0, symName: __ZNKSt3__16vectorI5TokenNS_9allocatorIS1_EEE9__end_capB7v160006Ev, symObjAddr: 0x12BD4, symBinAddr: 0x100013748, symSize: 0x28 }
  - { offsetInCU: 0x45BFB, offset: 0x45BFB, size: 0x8, addend: 0x0, symName: __ZNKSt3__117__compressed_pairIP5TokenNS_9allocatorIS1_EEE5firstB7v160006Ev, symObjAddr: 0x12BFC, symBinAddr: 0x100013770, symSize: 0x24 }
  - { offsetInCU: 0x45C21, offset: 0x45C21, size: 0x8, addend: 0x0, symName: __ZNKSt3__122__compressed_pair_elemIP5TokenLi0ELb0EE5__getB7v160006Ev, symObjAddr: 0x12C20, symBinAddr: 0x100013794, symSize: 0x14 }
  - { offsetInCU: 0x45C47, offset: 0x45C47, size: 0x8, addend: 0x0, symName: __ZN5LexerD2Ev, symObjAddr: 0x12C34, symBinAddr: 0x1000137A8, symSize: 0x48 }
  - { offsetInCU: 0x45C73, offset: 0x45C73, size: 0x8, addend: 0x0, symName: __ZNSt3__15stackIiNS_5dequeIiNS_9allocatorIiEEEEED1Ev, symObjAddr: 0x12C7C, symBinAddr: 0x1000137F0, symSize: 0x2C }
  - { offsetInCU: 0x45C9F, offset: 0x45C9F, size: 0x8, addend: 0x0, symName: __ZNSt3__113unordered_mapINS_12basic_stringIcNS_11char_traitsIcEENS_9allocatorIcEEEE9TokenTypeNS_4hashIS6_EENS_8equal_toIS6_EENS4_INS_4pairIKS6_S7_EEEEED1B7v160006Ev, symObjAddr: 0x12CA8, symBinAddr: 0x10001381C, symSize: 0x2C }
  - { offsetInCU: 0x45CC9, offset: 0x45CC9, size: 0x8, addend: 0x0, symName: __ZNSt3__15stackIiNS_5dequeIiNS_9allocatorIiEEEEED2Ev, symObjAddr: 0x12CD4, symBinAddr: 0x100013848, symSize: 0x2C }
  - { offsetInCU: 0x45CF5, offset: 0x45CF5, size: 0x8, addend: 0x0, symName: __ZNSt3__15dequeIiNS_9allocatorIiEEED1B7v160006Ev, symObjAddr: 0x12D00, symBinAddr: 0x100013874, symSize: 0x2C }
  - { offsetInCU: 0x45D1F, offset: 0x45D1F, size: 0x8, addend: 0x0, symName: __ZNSt3__15dequeIiNS_9allocatorIiEEED2B7v160006Ev, symObjAddr: 0x12D2C, symBinAddr: 0x1000138A0, symSize: 0x9C }
  - { offsetInCU: 0x45D75, offset: 0x45D75, size: 0x8, addend: 0x0, symName: __ZNSt3__15dequeIiNS_9allocatorIiEEE5clearEv, symObjAddr: 0x12DC8, symBinAddr: 0x10001393C, symSize: 0x180 }
  - { offsetInCU: 0x45DD1, offset: 0x45DD1, size: 0x8, addend: 0x0, symName: __ZNSt3__114__split_bufferIPiNS_9allocatorIS1_EEE5beginB7v160006Ev, symObjAddr: 0x12F48, symBinAddr: 0x100013ABC, symSize: 0x18 }
  - { offsetInCU: 0x45DF7, offset: 0x45DF7, size: 0x8, addend: 0x0, symName: __ZNSt3__114__split_bufferIPiNS_9allocatorIS1_EEE3endB7v160006Ev, symObjAddr: 0x12F60, symBinAddr: 0x100013AD4, symSize: 0x18 }
  - { offsetInCU: 0x45E1D, offset: 0x45E1D, size: 0x8, addend: 0x0, symName: __ZNSt3__116allocator_traitsINS_9allocatorIiEEE10deallocateB7v160006ERS2_Pim, symObjAddr: 0x12F78, symBinAddr: 0x100013AEC, symSize: 0x34 }
  - { offsetInCU: 0x45E5F, offset: 0x45E5F, size: 0x8, addend: 0x0, symName: __ZNSt3__15dequeIiNS_9allocatorIiEEE7__allocB7v160006Ev, symObjAddr: 0x12FAC, symBinAddr: 0x100013B20, symSize: 0x28 }
  - { offsetInCU: 0x45E85, offset: 0x45E85, size: 0x8, addend: 0x0, symName: __ZNSt3__114__split_bufferIPiNS_9allocatorIS1_EEED1Ev, symObjAddr: 0x12FD4, symBinAddr: 0x100013B48, symSize: 0x2C }
  - { offsetInCU: 0x45EB1, offset: 0x45EB1, size: 0x8, addend: 0x0, symName: __ZNSt3__15dequeIiNS_9allocatorIiEEE5beginB7v160006Ev, symObjAddr: 0x13000, symBinAddr: 0x100013B74, symSize: 0xB8 }
  - { offsetInCU: 0x45EE6, offset: 0x45EE6, size: 0x8, addend: 0x0, symName: __ZNSt3__15dequeIiNS_9allocatorIiEEE3endB7v160006Ev, symObjAddr: 0x130B8, symBinAddr: 0x100013C2C, symSize: 0xBC }
  - { offsetInCU: 0x45F2A, offset: 0x45F2A, size: 0x8, addend: 0x0, symName: __ZNSt3__116allocator_traitsINS_9allocatorIiEEE7destroyB7v160006IivvEEvRS2_PT_, symObjAddr: 0x131A8, symBinAddr: 0x100013D1C, symSize: 0x28 }
  - { offsetInCU: 0x45F64, offset: 0x45F64, size: 0x8, addend: 0x0, symName: __ZNKSt3__116__deque_iteratorIiPiRiPS1_lLl1024EEdeB7v160006Ev, symObjAddr: 0x131D0, symBinAddr: 0x100013D44, symSize: 0x18 }
  - { offsetInCU: 0x45F8A, offset: 0x45F8A, size: 0x8, addend: 0x0, symName: __ZNSt3__116__deque_iteratorIiPiRiPS1_lLl1024EEppB7v160006Ev, symObjAddr: 0x131E8, symBinAddr: 0x100013D5C, symSize: 0x70 }
  - { offsetInCU: 0x45FB0, offset: 0x45FB0, size: 0x8, addend: 0x0, symName: __ZNSt3__15dequeIiNS_9allocatorIiEEE6__sizeB7v160006Ev, symObjAddr: 0x13258, symBinAddr: 0x100013DCC, symSize: 0x28 }
  - { offsetInCU: 0x45FD6, offset: 0x45FD6, size: 0x8, addend: 0x0, symName: __ZNKSt3__114__split_bufferIPiNS_9allocatorIS1_EEE4sizeB7v160006Ev, symObjAddr: 0x13280, symBinAddr: 0x100013DF4, symSize: 0x28 }
  - { offsetInCU: 0x45FFC, offset: 0x45FFC, size: 0x8, addend: 0x0, symName: __ZNSt3__114__split_bufferIPiNS_9allocatorIS1_EEE5frontB7v160006Ev, symObjAddr: 0x132A8, symBinAddr: 0x100013E1C, symSize: 0x18 }
  - { offsetInCU: 0x46022, offset: 0x46022, size: 0x8, addend: 0x0, symName: __ZNSt3__114__split_bufferIPiNS_9allocatorIS1_EEE9pop_frontB7v160006Ev, symObjAddr: 0x132C0, symBinAddr: 0x100013E34, symSize: 0x2C }
  - { offsetInCU: 0x46048, offset: 0x46048, size: 0x8, addend: 0x0, symName: __ZNKSt3__114__split_bufferIPiNS_9allocatorIS1_EEE5emptyB7v160006Ev, symObjAddr: 0x132EC, symBinAddr: 0x100013E60, symSize: 0x28 }
  - { offsetInCU: 0x4606E, offset: 0x4606E, size: 0x8, addend: 0x0, symName: __ZNSt3__116__deque_iteratorIiPiRiPS1_lLl1024EEC1B7v160006ES3_S1_, symObjAddr: 0x13314, symBinAddr: 0x100013E88, symSize: 0x3C }
  - { offsetInCU: 0x460B6, offset: 0x460B6, size: 0x8, addend: 0x0, symName: __ZNSt3__116__deque_iteratorIiPiRiPS1_lLl1024EEC2B7v160006ES3_S1_, symObjAddr: 0x13350, symBinAddr: 0x100013EC4, symSize: 0x2C }
  - { offsetInCU: 0x460FE, offset: 0x460FE, size: 0x8, addend: 0x0, symName: __ZNKSt3__15dequeIiNS_9allocatorIiEEE4sizeB7v160006Ev, symObjAddr: 0x1337C, symBinAddr: 0x100013EF0, symSize: 0x28 }
  - { offsetInCU: 0x46124, offset: 0x46124, size: 0x8, addend: 0x0, symName: __ZNKSt3__15dequeIiNS_9allocatorIiEEE6__sizeB7v160006Ev, symObjAddr: 0x133A4, symBinAddr: 0x100013F18, symSize: 0x28 }
  - { offsetInCU: 0x4614A, offset: 0x4614A, size: 0x8, addend: 0x0, symName: __ZNKSt3__117__compressed_pairImNS_9allocatorIiEEE5firstB7v160006Ev, symObjAddr: 0x133CC, symBinAddr: 0x100013F40, symSize: 0x24 }
  - { offsetInCU: 0x46170, offset: 0x46170, size: 0x8, addend: 0x0, symName: __ZNSt3__117__compressed_pairImNS_9allocatorIiEEE5firstB7v160006Ev, symObjAddr: 0x13454, symBinAddr: 0x100013FC8, symSize: 0x24 }
  - { offsetInCU: 0x46196, offset: 0x46196, size: 0x8, addend: 0x0, symName: __ZNSt3__114__split_bufferIPiNS_9allocatorIS1_EEE19__destruct_at_beginB7v160006EPS1_, symObjAddr: 0x13478, symBinAddr: 0x100013FEC, symSize: 0x2C }
  - { offsetInCU: 0x461CB, offset: 0x461CB, size: 0x8, addend: 0x0, symName: __ZNSt3__114__split_bufferIPiNS_9allocatorIS1_EEE19__destruct_at_beginEPS1_NS_17integral_constantIbLb1EEE, symObjAddr: 0x134A4, symBinAddr: 0x100014018, symSize: 0x20 }
  - { offsetInCU: 0x4620D, offset: 0x4620D, size: 0x8, addend: 0x0, symName: __ZNSt3__19allocatorIiE10deallocateB7v160006EPim, symObjAddr: 0x134C4, symBinAddr: 0x100014038, symSize: 0x40 }
  - { offsetInCU: 0x46251, offset: 0x46251, size: 0x8, addend: 0x0, symName: __ZNSt3__117__compressed_pairImNS_9allocatorIiEEE6secondB7v160006Ev, symObjAddr: 0x13504, symBinAddr: 0x100014078, symSize: 0x24 }
  - { offsetInCU: 0x46277, offset: 0x46277, size: 0x8, addend: 0x0, symName: __ZNSt3__122__compressed_pair_elemINS_9allocatorIiEELi1ELb1EE5__getB7v160006Ev, symObjAddr: 0x13528, symBinAddr: 0x10001409C, symSize: 0x14 }
  - { offsetInCU: 0x4629D, offset: 0x4629D, size: 0x8, addend: 0x0, symName: __ZNSt3__114__split_bufferIPiNS_9allocatorIS1_EEED2Ev, symObjAddr: 0x1353C, symBinAddr: 0x1000140B0, symSize: 0x8C }
  - { offsetInCU: 0x462C9, offset: 0x462C9, size: 0x8, addend: 0x0, symName: __ZNSt3__114__split_bufferIPiNS_9allocatorIS1_EEE5clearB7v160006Ev, symObjAddr: 0x135C8, symBinAddr: 0x10001413C, symSize: 0x28 }
  - { offsetInCU: 0x462EF, offset: 0x462EF, size: 0x8, addend: 0x0, symName: __ZNSt3__116allocator_traitsINS_9allocatorIPiEEE10deallocateB7v160006ERS3_PS2_m, symObjAddr: 0x135F0, symBinAddr: 0x100014164, symSize: 0x34 }
  - { offsetInCU: 0x46331, offset: 0x46331, size: 0x8, addend: 0x0, symName: __ZNSt3__114__split_bufferIPiNS_9allocatorIS1_EEE7__allocB7v160006Ev, symObjAddr: 0x13624, symBinAddr: 0x100014198, symSize: 0x28 }
  - { offsetInCU: 0x46357, offset: 0x46357, size: 0x8, addend: 0x0, symName: __ZNKSt3__114__split_bufferIPiNS_9allocatorIS1_EEE8capacityB7v160006Ev, symObjAddr: 0x1364C, symBinAddr: 0x1000141C0, symSize: 0x40 }
  - { offsetInCU: 0x4637D, offset: 0x4637D, size: 0x8, addend: 0x0, symName: __ZNSt3__114__split_bufferIPiNS_9allocatorIS1_EEE17__destruct_at_endB7v160006EPS1_, symObjAddr: 0x1368C, symBinAddr: 0x100014200, symSize: 0x2C }
  - { offsetInCU: 0x463B2, offset: 0x463B2, size: 0x8, addend: 0x0, symName: __ZNSt3__114__split_bufferIPiNS_9allocatorIS1_EEE17__destruct_at_endB7v160006EPS1_NS_17integral_constantIbLb0EEE, symObjAddr: 0x136B8, symBinAddr: 0x10001422C, symSize: 0x80 }
  - { offsetInCU: 0x463F4, offset: 0x463F4, size: 0x8, addend: 0x0, symName: __ZNSt3__116allocator_traitsINS_9allocatorIPiEEE7destroyB7v160006IS2_vvEEvRS3_PT_, symObjAddr: 0x13738, symBinAddr: 0x1000142AC, symSize: 0x28 }
  - { offsetInCU: 0x4642E, offset: 0x4642E, size: 0x8, addend: 0x0, symName: __ZNSt3__19allocatorIPiE10deallocateB7v160006EPS1_m, symObjAddr: 0x137A8, symBinAddr: 0x10001431C, symSize: 0x40 }
  - { offsetInCU: 0x46472, offset: 0x46472, size: 0x8, addend: 0x0, symName: __ZNSt3__117__compressed_pairIPPiNS_9allocatorIS1_EEE6secondB7v160006Ev, symObjAddr: 0x137E8, symBinAddr: 0x10001435C, symSize: 0x24 }
  - { offsetInCU: 0x46498, offset: 0x46498, size: 0x8, addend: 0x0, symName: __ZNSt3__122__compressed_pair_elemINS_9allocatorIPiEELi1ELb1EE5__getB7v160006Ev, symObjAddr: 0x1380C, symBinAddr: 0x100014380, symSize: 0x14 }
  - { offsetInCU: 0x464BE, offset: 0x464BE, size: 0x8, addend: 0x0, symName: __ZNKSt3__114__split_bufferIPiNS_9allocatorIS1_EEE9__end_capB7v160006Ev, symObjAddr: 0x13820, symBinAddr: 0x100014394, symSize: 0x28 }
  - { offsetInCU: 0x464E4, offset: 0x464E4, size: 0x8, addend: 0x0, symName: __ZNKSt3__117__compressed_pairIPPiNS_9allocatorIS1_EEE5firstB7v160006Ev, symObjAddr: 0x13848, symBinAddr: 0x1000143BC, symSize: 0x24 }
  - { offsetInCU: 0x4650A, offset: 0x4650A, size: 0x8, addend: 0x0, symName: __ZNKSt3__122__compressed_pair_elemIPPiLi0ELb0EE5__getB7v160006Ev, symObjAddr: 0x1386C, symBinAddr: 0x1000143E0, symSize: 0x14 }
  - { offsetInCU: 0x46530, offset: 0x46530, size: 0x8, addend: 0x0, symName: __ZNSt3__113unordered_mapINS_12basic_stringIcNS_11char_traitsIcEENS_9allocatorIcEEEE9TokenTypeNS_4hashIS6_EENS_8equal_toIS6_EENS4_INS_4pairIKS6_S7_EEEEED2B7v160006Ev, symObjAddr: 0x13880, symBinAddr: 0x1000143F4, symSize: 0x2C }
  - { offsetInCU: 0x4655A, offset: 0x4655A, size: 0x8, addend: 0x0, symName: __ZNSt3__112__hash_tableINS_17__hash_value_typeINS_12basic_stringIcNS_11char_traitsIcEENS_9allocatorIcEEEE9TokenTypeEENS_22__unordered_map_hasherIS7_S9_NS_4hashIS7_EENS_8equal_toIS7_EELb1EEENS_21__unordered_map_equalIS7_S9_SE_SC_Lb1EEENS5_IS9_EEED1Ev, symObjAddr: 0x138AC, symBinAddr: 0x100014420, symSize: 0x2C }
  - { offsetInCU: 0x46586, offset: 0x46586, size: 0x8, addend: 0x0, symName: __ZNSt3__112__hash_tableINS_17__hash_value_typeINS_12basic_stringIcNS_11char_traitsIcEENS_9allocatorIcEEEE9TokenTypeEENS_22__unordered_map_hasherIS7_S9_NS_4hashIS7_EENS_8equal_toIS7_EELb1EEENS_21__unordered_map_equalIS7_S9_SE_SC_Lb1EEENS5_IS9_EEED2Ev, symObjAddr: 0x138D8, symBinAddr: 0x10001444C, symSize: 0x58 }
  - { offsetInCU: 0x465B2, offset: 0x465B2, size: 0x8, addend: 0x0, symName: __ZNSt3__112__hash_tableINS_17__hash_value_typeINS_12basic_stringIcNS_11char_traitsIcEENS_9allocatorIcEEEE9TokenTypeEENS_22__unordered_map_hasherIS7_S9_NS_4hashIS7_EENS_8equal_toIS7_EELb1EEENS_21__unordered_map_equalIS7_S9_SE_SC_Lb1EEENS5_IS9_EEE17__deallocate_nodeEPNS_16__hash_node_baseIPNS_11__hash_nodeIS9_PvEEEE, symObjAddr: 0x13930, symBinAddr: 0x1000144A4, symSize: 0xA8 }
  - { offsetInCU: 0x4661D, offset: 0x4661D, size: 0x8, addend: 0x0, symName: __ZNSt3__117__compressed_pairINS_16__hash_node_baseIPNS_11__hash_nodeINS_17__hash_value_typeINS_12basic_stringIcNS_11char_traitsIcEENS_9allocatorIcEEEE9TokenTypeEEPvEEEENS7_ISD_EEE5firstB7v160006Ev, symObjAddr: 0x139D8, symBinAddr: 0x10001454C, symSize: 0x24 }
  - { offsetInCU: 0x46643, offset: 0x46643, size: 0x8, addend: 0x0, symName: __ZNSt3__110unique_ptrIA_PNS_16__hash_node_baseIPNS_11__hash_nodeINS_17__hash_value_typeINS_12basic_stringIcNS_11char_traitsIcEENS_9allocatorIcEEEE9TokenTypeEEPvEEEENS_25__bucket_list_deallocatorINS7_ISG_EEEEED1B7v160006Ev, symObjAddr: 0x13A0C, symBinAddr: 0x100014580, symSize: 0x2C }
  - { offsetInCU: 0x4666D, offset: 0x4666D, size: 0x8, addend: 0x0, symName: __ZNSt3__112__hash_tableINS_17__hash_value_typeINS_12basic_stringIcNS_11char_traitsIcEENS_9allocatorIcEEEE9TokenTypeEENS_22__unordered_map_hasherIS7_S9_NS_4hashIS7_EENS_8equal_toIS7_EELb1EEENS_21__unordered_map_equalIS7_S9_SE_SC_Lb1EEENS5_IS9_EEE12__node_allocB7v160006Ev, symObjAddr: 0x13A38, symBinAddr: 0x1000145AC, symSize: 0x28 }
  - { offsetInCU: 0x46693, offset: 0x46693, size: 0x8, addend: 0x0, symName: __ZNSt3__116__hash_node_baseIPNS_11__hash_nodeINS_17__hash_value_typeINS_12basic_stringIcNS_11char_traitsIcEENS_9allocatorIcEEEE9TokenTypeEEPvEEE8__upcastB7v160006Ev, symObjAddr: 0x13A60, symBinAddr: 0x1000145D4, symSize: 0x24 }
  - { offsetInCU: 0x466BF, offset: 0x466BF, size: 0x8, addend: 0x0, symName: __ZNSt3__116allocator_traitsINS_9allocatorINS_11__hash_nodeINS_17__hash_value_typeINS_12basic_stringIcNS_11char_traitsIcEENS1_IcEEEE9TokenTypeEEPvEEEEE7destroyB7v160006INS_4pairIKS8_S9_EEvvEEvRSD_PT_, symObjAddr: 0x13A84, symBinAddr: 0x1000145F8, symSize: 0x28 }
  - { offsetInCU: 0x466F9, offset: 0x466F9, size: 0x8, addend: 0x0, symName: __ZNSt3__122__hash_key_value_typesINS_17__hash_value_typeINS_12basic_stringIcNS_11char_traitsIcEENS_9allocatorIcEEEE9TokenTypeEEE9__get_ptrB7v160006ERS9_, symObjAddr: 0x13AAC, symBinAddr: 0x100014620, symSize: 0x24 }
  - { offsetInCU: 0x4671D, offset: 0x4671D, size: 0x8, addend: 0x0, symName: __ZNSt3__116allocator_traitsINS_9allocatorINS_11__hash_nodeINS_17__hash_value_typeINS_12basic_stringIcNS_11char_traitsIcEENS1_IcEEEE9TokenTypeEEPvEEEEE10deallocateB7v160006ERSD_PSC_m, symObjAddr: 0x13AD0, symBinAddr: 0x100014644, symSize: 0x34 }
  - { offsetInCU: 0x4675F, offset: 0x4675F, size: 0x8, addend: 0x0, symName: __ZNSt3__117__compressed_pairINS_16__hash_node_baseIPNS_11__hash_nodeINS_17__hash_value_typeINS_12basic_stringIcNS_11char_traitsIcEENS_9allocatorIcEEEE9TokenTypeEEPvEEEENS7_ISD_EEE6secondB7v160006Ev, symObjAddr: 0x13B04, symBinAddr: 0x100014678, symSize: 0x24 }
  - { offsetInCU: 0x46785, offset: 0x46785, size: 0x8, addend: 0x0, symName: __ZNSt3__122__compressed_pair_elemINS_9allocatorINS_11__hash_nodeINS_17__hash_value_typeINS_12basic_stringIcNS_11char_traitsIcEENS1_IcEEEE9TokenTypeEEPvEEEELi1ELb1EE5__getB7v160006Ev, symObjAddr: 0x13B28, symBinAddr: 0x10001469C, symSize: 0x14 }
  - { offsetInCU: 0x467AB, offset: 0x467AB, size: 0x8, addend: 0x0, symName: __ZNSt3__114pointer_traitsIPNS_16__hash_node_baseIPNS_11__hash_nodeINS_17__hash_value_typeINS_12basic_stringIcNS_11char_traitsIcEENS_9allocatorIcEEEE9TokenTypeEEPvEEEEE10pointer_toB7v160006ERSF_, symObjAddr: 0x13B3C, symBinAddr: 0x1000146B0, symSize: 0x14 }
  - { offsetInCU: 0x467CF, offset: 0x467CF, size: 0x8, addend: 0x0, symName: __ZNSt3__14pairIKNS_12basic_stringIcNS_11char_traitsIcEENS_9allocatorIcEEEE9TokenTypeED1Ev, symObjAddr: 0x13B98, symBinAddr: 0x10001470C, symSize: 0x2C }
  - { offsetInCU: 0x467FB, offset: 0x467FB, size: 0x8, addend: 0x0, symName: __ZNSt3__14pairIKNS_12basic_stringIcNS_11char_traitsIcEENS_9allocatorIcEEEE9TokenTypeED2Ev, symObjAddr: 0x13BC4, symBinAddr: 0x100014738, symSize: 0x2C }
  - { offsetInCU: 0x46827, offset: 0x46827, size: 0x8, addend: 0x0, symName: __ZNSt3__117__hash_value_typeINS_12basic_stringIcNS_11char_traitsIcEENS_9allocatorIcEEEE9TokenTypeE11__get_valueB7v160006Ev, symObjAddr: 0x13BF0, symBinAddr: 0x100014764, symSize: 0x24 }
  - { offsetInCU: 0x4684D, offset: 0x4684D, size: 0x8, addend: 0x0, symName: __ZNSt3__19allocatorINS_11__hash_nodeINS_17__hash_value_typeINS_12basic_stringIcNS_11char_traitsIcEENS0_IcEEEE9TokenTypeEEPvEEE10deallocateB7v160006EPSB_m, symObjAddr: 0x13C4C, symBinAddr: 0x1000147C0, symSize: 0x44 }
  - { offsetInCU: 0x46891, offset: 0x46891, size: 0x8, addend: 0x0, symName: __ZNSt3__122__compressed_pair_elemINS_16__hash_node_baseIPNS_11__hash_nodeINS_17__hash_value_typeINS_12basic_stringIcNS_11char_traitsIcEENS_9allocatorIcEEEE9TokenTypeEEPvEEEELi0ELb0EE5__getB7v160006Ev, symObjAddr: 0x13C90, symBinAddr: 0x100014804, symSize: 0x14 }
  - { offsetInCU: 0x468B7, offset: 0x468B7, size: 0x8, addend: 0x0, symName: __ZNSt3__110unique_ptrIA_PNS_16__hash_node_baseIPNS_11__hash_nodeINS_17__hash_value_typeINS_12basic_stringIcNS_11char_traitsIcEENS_9allocatorIcEEEE9TokenTypeEEPvEEEENS_25__bucket_list_deallocatorINS7_ISG_EEEEED2B7v160006Ev, symObjAddr: 0x13CA4, symBinAddr: 0x100014818, symSize: 0x30 }
  - { offsetInCU: 0x468E1, offset: 0x468E1, size: 0x8, addend: 0x0, symName: __ZNSt3__110unique_ptrIA_PNS_16__hash_node_baseIPNS_11__hash_nodeINS_17__hash_value_typeINS_12basic_stringIcNS_11char_traitsIcEENS_9allocatorIcEEEE9TokenTypeEEPvEEEENS_25__bucket_list_deallocatorINS7_ISG_EEEEE5resetB7v160006EDn, symObjAddr: 0x13CD4, symBinAddr: 0x100014848, symSize: 0x6C }
  - { offsetInCU: 0x46921, offset: 0x46921, size: 0x8, addend: 0x0, symName: __ZNSt3__117__compressed_pairIPPNS_16__hash_node_baseIPNS_11__hash_nodeINS_17__hash_value_typeINS_12basic_stringIcNS_11char_traitsIcEENS_9allocatorIcEEEE9TokenTypeEEPvEEEENS_25__bucket_list_deallocatorINS7_ISG_EEEEE5firstB7v160006Ev, symObjAddr: 0x13D40, symBinAddr: 0x1000148B4, symSize: 0x24 }
  - { offsetInCU: 0x46947, offset: 0x46947, size: 0x8, addend: 0x0, symName: __ZNSt3__117__compressed_pairIPPNS_16__hash_node_baseIPNS_11__hash_nodeINS_17__hash_value_typeINS_12basic_stringIcNS_11char_traitsIcEENS_9allocatorIcEEEE9TokenTypeEEPvEEEENS_25__bucket_list_deallocatorINS7_ISG_EEEEE6secondB7v160006Ev, symObjAddr: 0x13D64, symBinAddr: 0x1000148D8, symSize: 0x28 }
  - { offsetInCU: 0x4696D, offset: 0x4696D, size: 0x8, addend: 0x0, symName: __ZNSt3__125__bucket_list_deallocatorINS_9allocatorIPNS_16__hash_node_baseIPNS_11__hash_nodeINS_17__hash_value_typeINS_12basic_stringIcNS_11char_traitsIcEENS1_IcEEEE9TokenTypeEEPvEEEEEEEclB7v160006EPSG_, symObjAddr: 0x13D8C, symBinAddr: 0x100014900, symSize: 0x58 }
  - { offsetInCU: 0x469A2, offset: 0x469A2, size: 0x8, addend: 0x0, symName: __ZNSt3__122__compressed_pair_elemIPPNS_16__hash_node_baseIPNS_11__hash_nodeINS_17__hash_value_typeINS_12basic_stringIcNS_11char_traitsIcEENS_9allocatorIcEEEE9TokenTypeEEPvEEEELi0ELb0EE5__getB7v160006Ev, symObjAddr: 0x13DE4, symBinAddr: 0x100014958, symSize: 0x14 }
  - { offsetInCU: 0x469C8, offset: 0x469C8, size: 0x8, addend: 0x0, symName: __ZNSt3__122__compressed_pair_elemINS_25__bucket_list_deallocatorINS_9allocatorIPNS_16__hash_node_baseIPNS_11__hash_nodeINS_17__hash_value_typeINS_12basic_stringIcNS_11char_traitsIcEENS2_IcEEEE9TokenTypeEEPvEEEEEEEELi1ELb0EE5__getB7v160006Ev, symObjAddr: 0x13DF8, symBinAddr: 0x10001496C, symSize: 0x14 }
  - { offsetInCU: 0x469EE, offset: 0x469EE, size: 0x8, addend: 0x0, symName: __ZNSt3__116allocator_traitsINS_9allocatorIPNS_16__hash_node_baseIPNS_11__hash_nodeINS_17__hash_value_typeINS_12basic_stringIcNS_11char_traitsIcEENS1_IcEEEE9TokenTypeEEPvEEEEEEE10deallocateB7v160006ERSH_PSG_m, symObjAddr: 0x13E0C, symBinAddr: 0x100014980, symSize: 0x34 }
  - { offsetInCU: 0x46A30, offset: 0x46A30, size: 0x8, addend: 0x0, symName: __ZNSt3__125__bucket_list_deallocatorINS_9allocatorIPNS_16__hash_node_baseIPNS_11__hash_nodeINS_17__hash_value_typeINS_12basic_stringIcNS_11char_traitsIcEENS1_IcEEEE9TokenTypeEEPvEEEEEEE7__allocB7v160006Ev, symObjAddr: 0x13E40, symBinAddr: 0x1000149B4, symSize: 0x24 }
  - { offsetInCU: 0x46A56, offset: 0x46A56, size: 0x8, addend: 0x0, symName: __ZNSt3__125__bucket_list_deallocatorINS_9allocatorIPNS_16__hash_node_baseIPNS_11__hash_nodeINS_17__hash_value_typeINS_12basic_stringIcNS_11char_traitsIcEENS1_IcEEEE9TokenTypeEEPvEEEEEEE4sizeB7v160006Ev, symObjAddr: 0x13E64, symBinAddr: 0x1000149D8, symSize: 0x24 }
  - { offsetInCU: 0x46A7C, offset: 0x46A7C, size: 0x8, addend: 0x0, symName: __ZNSt3__19allocatorIPNS_16__hash_node_baseIPNS_11__hash_nodeINS_17__hash_value_typeINS_12basic_stringIcNS_11char_traitsIcEENS0_IcEEEE9TokenTypeEEPvEEEEE10deallocateB7v160006EPSF_m, symObjAddr: 0x13E88, symBinAddr: 0x1000149FC, symSize: 0x40 }
  - { offsetInCU: 0x46AC0, offset: 0x46AC0, size: 0x8, addend: 0x0, symName: __ZNSt3__117__compressed_pairImNS_9allocatorIPNS_16__hash_node_baseIPNS_11__hash_nodeINS_17__hash_value_typeINS_12basic_stringIcNS_11char_traitsIcEENS1_IcEEEE9TokenTypeEEPvEEEEEEE6secondB7v160006Ev, symObjAddr: 0x13EC8, symBinAddr: 0x100014A3C, symSize: 0x24 }
  - { offsetInCU: 0x46AE6, offset: 0x46AE6, size: 0x8, addend: 0x0, symName: __ZNSt3__122__compressed_pair_elemINS_9allocatorIPNS_16__hash_node_baseIPNS_11__hash_nodeINS_17__hash_value_typeINS_12basic_stringIcNS_11char_traitsIcEENS1_IcEEEE9TokenTypeEEPvEEEEEELi1ELb1EE5__getB7v160006Ev, symObjAddr: 0x13EEC, symBinAddr: 0x100014A60, symSize: 0x14 }
  - { offsetInCU: 0x46B0C, offset: 0x46B0C, size: 0x8, addend: 0x0, symName: __ZNSt3__117__compressed_pairImNS_9allocatorIPNS_16__hash_node_baseIPNS_11__hash_nodeINS_17__hash_value_typeINS_12basic_stringIcNS_11char_traitsIcEENS1_IcEEEE9TokenTypeEEPvEEEEEEE5firstB7v160006Ev, symObjAddr: 0x13F00, symBinAddr: 0x100014A74, symSize: 0x24 }
  - { offsetInCU: 0x46B32, offset: 0x46B32, size: 0x8, addend: 0x0, symName: __ZNSt3__114basic_ifstreamIcNS_11char_traitsIcEEED2Ev, symObjAddr: 0x13F24, symBinAddr: 0x100014A98, symSize: 0x64 }
  - { offsetInCU: 0x46B6C, offset: 0x46B6C, size: 0x8, addend: 0x0, symName: __ZTv0_n24_NSt3__114basic_ifstreamIcNS_11char_traitsIcEEED1Ev, symObjAddr: 0x13F88, symBinAddr: 0x100014AFC, symSize: 0x28 }
  - { offsetInCU: 0x46BA0, offset: 0x46BA0, size: 0x8, addend: 0x0, symName: __ZNKSt3__113basic_ostreamIcNS_11char_traitsIcEEE6sentrycvbB7v160006Ev, symObjAddr: 0x1419C, symBinAddr: 0x100014D10, symSize: 0x1C }
  - { offsetInCU: 0x46BC6, offset: 0x46BC6, size: 0x8, addend: 0x0, symName: __ZNSt3__119ostreambuf_iteratorIcNS_11char_traitsIcEEEC1B7v160006ERNS_13basic_ostreamIcS2_EE, symObjAddr: 0x143F8, symBinAddr: 0x100014F6C, symSize: 0x34 }
  - { offsetInCU: 0x46BFF, offset: 0x46BFF, size: 0x8, addend: 0x0, symName: __ZNKSt3__18ios_base5flagsB7v160006Ev, symObjAddr: 0x1442C, symBinAddr: 0x100014FA0, symSize: 0x18 }
  - { offsetInCU: 0x46C27, offset: 0x46C27, size: 0x8, addend: 0x0, symName: __ZNKSt3__19basic_iosIcNS_11char_traitsIcEEE4fillB7v160006Ev, symObjAddr: 0x14444, symBinAddr: 0x100014FB8, symSize: 0x64 }
  - { offsetInCU: 0x46C4F, offset: 0x46C4F, size: 0x8, addend: 0x0, symName: __ZNKSt3__119ostreambuf_iteratorIcNS_11char_traitsIcEEE6failedB7v160006Ev, symObjAddr: 0x144A8, symBinAddr: 0x10001501C, symSize: 0x24 }
  - { offsetInCU: 0x46C75, offset: 0x46C75, size: 0x8, addend: 0x0, symName: __ZNSt3__19basic_iosIcNS_11char_traitsIcEEE8setstateB7v160006Ej, symObjAddr: 0x144CC, symBinAddr: 0x100015040, symSize: 0x2C }
  - { offsetInCU: 0x46CAA, offset: 0x46CAA, size: 0x8, addend: 0x0, symName: __ZNKSt3__18ios_base5widthB7v160006Ev, symObjAddr: 0x144F8, symBinAddr: 0x10001506C, symSize: 0x18 }
  - { offsetInCU: 0x46CD2, offset: 0x46CD2, size: 0x8, addend: 0x0, symName: __ZNSt3__115basic_streambufIcNS_11char_traitsIcEEE5sputnB7v160006EPKcl, symObjAddr: 0x14510, symBinAddr: 0x100015084, symSize: 0x3C }
  - { offsetInCU: 0x46D16, offset: 0x46D16, size: 0x8, addend: 0x0, symName: __ZNSt3__112basic_stringIcNS_11char_traitsIcEENS_9allocatorIcEEEC1B7v160006Emc, symObjAddr: 0x1454C, symBinAddr: 0x1000150C0, symSize: 0x3C }
  - { offsetInCU: 0x46D5E, offset: 0x46D5E, size: 0x8, addend: 0x0, symName: __ZNSt3__112basic_stringIcNS_11char_traitsIcEENS_9allocatorIcEEE4dataB7v160006Ev, symObjAddr: 0x14588, symBinAddr: 0x1000150FC, symSize: 0x28 }
  - { offsetInCU: 0x46D84, offset: 0x46D84, size: 0x8, addend: 0x0, symName: __ZNSt3__18ios_base5widthB7v160006El, symObjAddr: 0x145B0, symBinAddr: 0x100015124, symSize: 0x2C }
  - { offsetInCU: 0x46DCA, offset: 0x46DCA, size: 0x8, addend: 0x0, symName: __ZNSt3__112basic_stringIcNS_11char_traitsIcEENS_9allocatorIcEEEC2B7v160006Emc, symObjAddr: 0x145DC, symBinAddr: 0x100015150, symSize: 0x54 }
  - { offsetInCU: 0x46E12, offset: 0x46E12, size: 0x8, addend: 0x0, symName: __ZNSt3__112basic_stringIcNS_11char_traitsIcEENS_9allocatorIcEEE13__get_pointerB7v160006Ev, symObjAddr: 0x14644, symBinAddr: 0x1000151B8, symSize: 0x54 }
  - { offsetInCU: 0x46E38, offset: 0x46E38, size: 0x8, addend: 0x0, symName: __ZNSt3__112basic_stringIcNS_11char_traitsIcEENS_9allocatorIcEEE19__get_short_pointerB7v160006Ev, symObjAddr: 0x14698, symBinAddr: 0x10001520C, symSize: 0x28 }
  - { offsetInCU: 0x46E5E, offset: 0x46E5E, size: 0x8, addend: 0x0, symName: __ZNSt3__114pointer_traitsIPcE10pointer_toB7v160006ERc, symObjAddr: 0x146C0, symBinAddr: 0x100015234, symSize: 0x14 }
  - { offsetInCU: 0x46E82, offset: 0x46E82, size: 0x8, addend: 0x0, symName: __ZNSt3__119ostreambuf_iteratorIcNS_11char_traitsIcEEEC2B7v160006ERNS_13basic_ostreamIcS2_EE, symObjAddr: 0x146D4, symBinAddr: 0x100015248, symSize: 0x54 }
  - { offsetInCU: 0x46EBB, offset: 0x46EBB, size: 0x8, addend: 0x0, symName: __ZNKSt3__19basic_iosIcNS_11char_traitsIcEEE5rdbufB7v160006Ev, symObjAddr: 0x14728, symBinAddr: 0x10001529C, symSize: 0x24 }
  - { offsetInCU: 0x46EE3, offset: 0x46EE3, size: 0x8, addend: 0x0, symName: __ZNKSt3__18ios_base5rdbufB7v160006Ev, symObjAddr: 0x1474C, symBinAddr: 0x1000152C0, symSize: 0x18 }
  - { offsetInCU: 0x46F09, offset: 0x46F09, size: 0x8, addend: 0x0, symName: __ZNKSt3__19basic_iosIcNS_11char_traitsIcEEE5widenB7v160006Ec, symObjAddr: 0x14764, symBinAddr: 0x1000152D8, symSize: 0x84 }
  - { offsetInCU: 0x46F7E, offset: 0x46F7E, size: 0x8, addend: 0x0, symName: __ZNKSt3__15ctypeIcE5widenB7v160006Ec, symObjAddr: 0x14814, symBinAddr: 0x100015388, symSize: 0x38 }
  - { offsetInCU: 0x46FB3, offset: 0x46FB3, size: 0x8, addend: 0x0, symName: __ZNSt3__18ios_base8setstateB7v160006Ej, symObjAddr: 0x1484C, symBinAddr: 0x1000153C0, symSize: 0x34 }
  - { offsetInCU: 0x46FEA, offset: 0x46FEA, size: 0x8, addend: 0x0, symName: __ZN8nlohmann16json_abi_v3_12_010basic_jsonINSt3__13mapENS2_6vectorENS2_12basic_stringIcNS2_11char_traitsIcEENS2_9allocatorIcEEEEbxydS8_NS0_14adl_serializerENS4_IhNS8_IhEEEEvED2Ev, symObjAddr: 0x14880, symBinAddr: 0x1000153F4, symSize: 0x3C }
  - { offsetInCU: 0x47014, offset: 0x47014, size: 0x8, addend: 0x0, symName: __ZNSt3__19basic_iosIcNS_11char_traitsIcEEEC2B7v160006Ev, symObjAddr: 0x148BC, symBinAddr: 0x100015430, symSize: 0x44 }
  - { offsetInCU: 0x4703E, offset: 0x4703E, size: 0x8, addend: 0x0, symName: __ZNSt3__113basic_istreamIcNS_11char_traitsIcEEEC2B7v160006EPNS_15basic_streambufIcS2_EE, symObjAddr: 0x14900, symBinAddr: 0x100015474, symSize: 0x64 }
  - { offsetInCU: 0x47084, offset: 0x47084, size: 0x8, addend: 0x0, symName: __ZNSt3__113basic_filebufIcNS_11char_traitsIcEEE4openERKNS_12basic_stringIcS2_NS_9allocatorIcEEEEj, symObjAddr: 0x14964, symBinAddr: 0x1000154D8, symSize: 0x44 }
  - { offsetInCU: 0x470CA, offset: 0x470CA, size: 0x8, addend: 0x0, symName: __ZNSt3__18ios_baseC2B7v160006Ev, symObjAddr: 0x149A8, symBinAddr: 0x10001551C, symSize: 0x24 }
  - { offsetInCU: 0x470F4, offset: 0x470F4, size: 0x8, addend: 0x0, symName: __ZNSt3__19basic_iosIcNS_11char_traitsIcEEE4initB7v160006EPNS_15basic_streambufIcS2_EE, symObjAddr: 0x149CC, symBinAddr: 0x100015540, symSize: 0x44 }
  - { offsetInCU: 0x4712B, offset: 0x4712B, size: 0x8, addend: 0x0, symName: __ZNKSt3__19basic_iosIcNS_11char_traitsIcEEE4failB7v160006Ev, symObjAddr: 0x14A10, symBinAddr: 0x100015584, symSize: 0x28 }
  - { offsetInCU: 0x47151, offset: 0x47151, size: 0x8, addend: 0x0, symName: __ZNKSt3__18ios_base4failB7v160006Ev, symObjAddr: 0x14A38, symBinAddr: 0x1000155AC, symSize: 0x28 }
  - { offsetInCU: 0x47179, offset: 0x47179, size: 0x8, addend: 0x0, symName: __ZNSt3__119istreambuf_iteratorIcNS_11char_traitsIcEEEC2B7v160006ERNS_13basic_istreamIcS2_EE, symObjAddr: 0x14A60, symBinAddr: 0x1000155D4, symSize: 0x54 }
  - { offsetInCU: 0x471B2, offset: 0x471B2, size: 0x8, addend: 0x0, symName: __ZN8nlohmann16json_abi_v3_12_06detail14output_adapterIcNSt3__112basic_stringIcNS3_11char_traitsIcEENS3_9allocatorIcEEEEEC1ERS9_, symObjAddr: 0x14AB4, symBinAddr: 0x100015628, symSize: 0x34 }
  - { offsetInCU: 0x471EB, offset: 0x471EB, size: 0x8, addend: 0x0, symName: __ZN8nlohmann16json_abi_v3_12_06detail14output_adapterIcNSt3__112basic_stringIcNS3_11char_traitsIcEENS3_9allocatorIcEEEEEcvNS3_10shared_ptrINS1_23output_adapter_protocolIcEEEEEv, symObjAddr: 0x14AE8, symBinAddr: 0x10001565C, symSize: 0x38 }
  - { offsetInCU: 0x47211, offset: 0x47211, size: 0x8, addend: 0x0, symName: __ZN8nlohmann16json_abi_v3_12_06detail10serializerINS0_10basic_jsonINSt3__13mapENS4_6vectorENS4_12basic_stringIcNS4_11char_traitsIcEENS4_9allocatorIcEEEEbxydSA_NS0_14adl_serializerENS6_IhNSA_IhEEEEvEEEC1ENS4_10shared_ptrINS1_23output_adapter_protocolIcEEEEcNS1_15error_handler_tE, symObjAddr: 0x14B20, symBinAddr: 0x100015694, symSize: 0x44 }
  - { offsetInCU: 0x47269, offset: 0x47269, size: 0x8, addend: 0x0, symName: __ZNSt3__110shared_ptrIN8nlohmann16json_abi_v3_12_06detail23output_adapter_protocolIcEEED1B7v160006Ev, symObjAddr: 0x14B64, symBinAddr: 0x1000156D8, symSize: 0x2C }
  - { offsetInCU: 0x47293, offset: 0x47293, size: 0x8, addend: 0x0, symName: __ZN8nlohmann16json_abi_v3_12_06detail14output_adapterIcNSt3__112basic_stringIcNS3_11char_traitsIcEENS3_9allocatorIcEEEEED1Ev, symObjAddr: 0x14B90, symBinAddr: 0x100015704, symSize: 0x2C }
  - { offsetInCU: 0x472C0, offset: 0x472C0, size: 0x8, addend: 0x0, symName: __ZN8nlohmann16json_abi_v3_12_06detail10serializerINS0_10basic_jsonINSt3__13mapENS4_6vectorENS4_12basic_stringIcNS4_11char_traitsIcEENS4_9allocatorIcEEEEbxydSA_NS0_14adl_serializerENS6_IhNSA_IhEEEEvEEE4dumpERKSG_bbjj, symObjAddr: 0x14BBC, symBinAddr: 0x100015730, symSize: 0x1068 }
  - { offsetInCU: 0x4746A, offset: 0x4746A, size: 0x8, addend: 0x0, symName: __ZN8nlohmann16json_abi_v3_12_06detail10serializerINS0_10basic_jsonINSt3__13mapENS4_6vectorENS4_12basic_stringIcNS4_11char_traitsIcEENS4_9allocatorIcEEEEbxydSA_NS0_14adl_serializerENS6_IhNSA_IhEEEEvEEED1Ev, symObjAddr: 0x15C4C, symBinAddr: 0x1000167C0, symSize: 0x2C }
  - { offsetInCU: 0x47494, offset: 0x47494, size: 0x8, addend: 0x0, symName: __ZN8nlohmann16json_abi_v3_12_06detail14output_adapterIcNSt3__112basic_stringIcNS3_11char_traitsIcEENS3_9allocatorIcEEEEEC2ERS9_, symObjAddr: 0x15C78, symBinAddr: 0x1000167EC, symSize: 0x50 }
  - { offsetInCU: 0x474F6, offset: 0x474F6, size: 0x8, addend: 0x0, symName: __ZNSt3__110shared_ptrIN8nlohmann16json_abi_v3_12_06detail23output_adapter_protocolIcEEEC1B7v160006INS3_21output_string_adapterIcNS_12basic_stringIcNS_11char_traitsIcEENS_9allocatorIcEEEEEEvEEONS0_IT_EE, symObjAddr: 0x15D08, symBinAddr: 0x10001687C, symSize: 0x34 }
  - { offsetInCU: 0x47539, offset: 0x47539, size: 0x8, addend: 0x0, symName: __ZNSt3__110shared_ptrIN8nlohmann16json_abi_v3_12_06detail21output_string_adapterIcNS_12basic_stringIcNS_11char_traitsIcEENS_9allocatorIcEEEEEEED1B7v160006Ev, symObjAddr: 0x15D3C, symBinAddr: 0x1000168B0, symSize: 0x2C }
  - { offsetInCU: 0x47563, offset: 0x47563, size: 0x8, addend: 0x0, symName: __ZNSt3__19allocatorIN8nlohmann16json_abi_v3_12_06detail21output_string_adapterIcNS_12basic_stringIcNS_11char_traitsIcEENS0_IcEEEEEEEC1B7v160006Ev, symObjAddr: 0x15E00, symBinAddr: 0x100016974, symSize: 0x2C }
  - { offsetInCU: 0x475B0, offset: 0x475B0, size: 0x8, addend: 0x0, symName: __ZNSt3__118__allocation_guardINS_9allocatorINS_20__shared_ptr_emplaceIN8nlohmann16json_abi_v3_12_06detail21output_string_adapterIcNS_12basic_stringIcNS_11char_traitsIcEENS1_IcEEEEEENS1_ISC_EEEEEEEC1B7v160006ISD_EET_m, symObjAddr: 0x15E2C, symBinAddr: 0x1000169A0, symSize: 0x34 }
  - { offsetInCU: 0x47601, offset: 0x47601, size: 0x8, addend: 0x0, symName: __ZNKSt3__118__allocation_guardINS_9allocatorINS_20__shared_ptr_emplaceIN8nlohmann16json_abi_v3_12_06detail21output_string_adapterIcNS_12basic_stringIcNS_11char_traitsIcEENS1_IcEEEEEENS1_ISC_EEEEEEE5__getB7v160006Ev, symObjAddr: 0x15E60, symBinAddr: 0x1000169D4, symSize: 0x18 }
  - { offsetInCU: 0x47627, offset: 0x47627, size: 0x8, addend: 0x0, symName: __ZNSt3__120__shared_ptr_emplaceIN8nlohmann16json_abi_v3_12_06detail21output_string_adapterIcNS_12basic_stringIcNS_11char_traitsIcEENS_9allocatorIcEEEEEENS8_ISB_EEEC1B7v160006IJRSA_EEESC_DpOT_, symObjAddr: 0x15E78, symBinAddr: 0x1000169EC, symSize: 0x34 }
  - { offsetInCU: 0x4767A, offset: 0x4767A, size: 0x8, addend: 0x0, symName: __ZNSt3__118__allocation_guardINS_9allocatorINS_20__shared_ptr_emplaceIN8nlohmann16json_abi_v3_12_06detail21output_string_adapterIcNS_12basic_stringIcNS_11char_traitsIcEENS1_IcEEEEEENS1_ISC_EEEEEEE13__release_ptrB7v160006Ev, symObjAddr: 0x15EAC, symBinAddr: 0x100016A20, symSize: 0x24 }
  - { offsetInCU: 0x476AF, offset: 0x476AF, size: 0x8, addend: 0x0, symName: __ZNSt3__110shared_ptrIN8nlohmann16json_abi_v3_12_06detail21output_string_adapterIcNS_12basic_stringIcNS_11char_traitsIcEENS_9allocatorIcEEEEEEE27__create_with_control_blockB7v160006ISB_NS_20__shared_ptr_emplaceISB_NS8_ISB_EEEEEESC_PT_PT0_, symObjAddr: 0x15ED0, symBinAddr: 0x100016A44, symSize: 0xA4 }
  - { offsetInCU: 0x47704, offset: 0x47704, size: 0x8, addend: 0x0, symName: __ZNSt3__120__shared_ptr_emplaceIN8nlohmann16json_abi_v3_12_06detail21output_string_adapterIcNS_12basic_stringIcNS_11char_traitsIcEENS_9allocatorIcEEEEEENS8_ISB_EEE10__get_elemB7v160006Ev, symObjAddr: 0x15F74, symBinAddr: 0x100016AE8, symSize: 0x28 }
  - { offsetInCU: 0x4772A, offset: 0x4772A, size: 0x8, addend: 0x0, symName: __ZNSt3__118__allocation_guardINS_9allocatorINS_20__shared_ptr_emplaceIN8nlohmann16json_abi_v3_12_06detail21output_string_adapterIcNS_12basic_stringIcNS_11char_traitsIcEENS1_IcEEEEEENS1_ISC_EEEEEEED1B7v160006Ev, symObjAddr: 0x15F9C, symBinAddr: 0x100016B10, symSize: 0x2C }
  - { offsetInCU: 0x47754, offset: 0x47754, size: 0x8, addend: 0x0, symName: __ZNSt3__118__allocation_guardINS_9allocatorINS_20__shared_ptr_emplaceIN8nlohmann16json_abi_v3_12_06detail21output_string_adapterIcNS_12basic_stringIcNS_11char_traitsIcEENS1_IcEEEEEENS1_ISC_EEEEEEEC2B7v160006ISD_EET_m, symObjAddr: 0x15FC8, symBinAddr: 0x100016B3C, symSize: 0x50 }
  - { offsetInCU: 0x477A5, offset: 0x477A5, size: 0x8, addend: 0x0, symName: __ZNSt3__19allocatorINS_20__shared_ptr_emplaceIN8nlohmann16json_abi_v3_12_06detail21output_string_adapterIcNS_12basic_stringIcNS_11char_traitsIcEENS0_IcEEEEEENS0_ISB_EEEEEC1B7v160006ISB_EERKNS0_IT_EE, symObjAddr: 0x16018, symBinAddr: 0x100016B8C, symSize: 0x34 }
  - { offsetInCU: 0x477E3, offset: 0x477E3, size: 0x8, addend: 0x0, symName: __ZNSt3__116allocator_traitsINS_9allocatorINS_20__shared_ptr_emplaceIN8nlohmann16json_abi_v3_12_06detail21output_string_adapterIcNS_12basic_stringIcNS_11char_traitsIcEENS1_IcEEEEEENS1_ISC_EEEEEEE8allocateB7v160006ERSF_m, symObjAddr: 0x1604C, symBinAddr: 0x100016BC0, symSize: 0x2C }
  - { offsetInCU: 0x47816, offset: 0x47816, size: 0x8, addend: 0x0, symName: __ZNSt3__19allocatorINS_20__shared_ptr_emplaceIN8nlohmann16json_abi_v3_12_06detail21output_string_adapterIcNS_12basic_stringIcNS_11char_traitsIcEENS0_IcEEEEEENS0_ISB_EEEEEC2B7v160006ISB_EERKNS0_IT_EE, symObjAddr: 0x16078, symBinAddr: 0x100016BEC, symSize: 0x30 }
  - { offsetInCU: 0x47854, offset: 0x47854, size: 0x8, addend: 0x0, symName: __ZNSt3__116__non_trivial_ifILb1ENS_9allocatorINS_20__shared_ptr_emplaceIN8nlohmann16json_abi_v3_12_06detail21output_string_adapterIcNS_12basic_stringIcNS_11char_traitsIcEENS1_IcEEEEEENS1_ISC_EEEEEEEC2B7v160006Ev, symObjAddr: 0x160A8, symBinAddr: 0x100016C1C, symSize: 0x14 }
  - { offsetInCU: 0x4787E, offset: 0x4787E, size: 0x8, addend: 0x0, symName: __ZNSt3__19allocatorINS_20__shared_ptr_emplaceIN8nlohmann16json_abi_v3_12_06detail21output_string_adapterIcNS_12basic_stringIcNS_11char_traitsIcEENS0_IcEEEEEENS0_ISB_EEEEE8allocateB7v160006Em, symObjAddr: 0x160BC, symBinAddr: 0x100016C30, symSize: 0x5C }
  - { offsetInCU: 0x478BE, offset: 0x478BE, size: 0x8, addend: 0x0, symName: __ZNSt3__116allocator_traitsINS_9allocatorINS_20__shared_ptr_emplaceIN8nlohmann16json_abi_v3_12_06detail21output_string_adapterIcNS_12basic_stringIcNS_11char_traitsIcEENS1_IcEEEEEENS1_ISC_EEEEEEE8max_sizeB7v160006ISF_vvEEmRKSF_, symObjAddr: 0x16118, symBinAddr: 0x100016C8C, symSize: 0x28 }
  - { offsetInCU: 0x478E9, offset: 0x478E9, size: 0x8, addend: 0x0, symName: __ZNSt3__120__shared_ptr_emplaceIN8nlohmann16json_abi_v3_12_06detail21output_string_adapterIcNS_12basic_stringIcNS_11char_traitsIcEENS_9allocatorIcEEEEEENS8_ISB_EEEC2B7v160006IJRSA_EEESC_DpOT_, symObjAddr: 0x16140, symBinAddr: 0x100016CB4, symSize: 0xC8 }
  - { offsetInCU: 0x4795E, offset: 0x4795E, size: 0x8, addend: 0x0, symName: __ZNSt3__119__shared_weak_countC2B7v160006El, symObjAddr: 0x16208, symBinAddr: 0x100016D7C, symSize: 0x54 }
  - { offsetInCU: 0x47997, offset: 0x47997, size: 0x8, addend: 0x0, symName: __ZNSt3__120__shared_ptr_emplaceIN8nlohmann16json_abi_v3_12_06detail21output_string_adapterIcNS_12basic_stringIcNS_11char_traitsIcEENS_9allocatorIcEEEEEENS8_ISB_EEE8_StorageC1B7v160006EOSC_, symObjAddr: 0x1625C, symBinAddr: 0x100016DD0, symSize: 0x34 }
  - { offsetInCU: 0x479D0, offset: 0x479D0, size: 0x8, addend: 0x0, symName: __ZNSt3__120__shared_ptr_emplaceIN8nlohmann16json_abi_v3_12_06detail21output_string_adapterIcNS_12basic_stringIcNS_11char_traitsIcEENS_9allocatorIcEEEEEENS8_ISB_EEE11__get_allocB7v160006Ev, symObjAddr: 0x16290, symBinAddr: 0x100016E04, symSize: 0x28 }
  - { offsetInCU: 0x479FC, offset: 0x479FC, size: 0x8, addend: 0x0, symName: __ZNSt3__116allocator_traitsINS_9allocatorIN8nlohmann16json_abi_v3_12_06detail21output_string_adapterIcNS_12basic_stringIcNS_11char_traitsIcEENS1_IcEEEEEEEEE9constructB7v160006ISB_JRSA_EvvEEvRSC_PT_DpOT0_, symObjAddr: 0x162B8, symBinAddr: 0x100016E2C, symSize: 0x30 }
  - { offsetInCU: 0x47A50, offset: 0x47A50, size: 0x8, addend: 0x0, symName: __ZNSt3__120__shared_ptr_emplaceIN8nlohmann16json_abi_v3_12_06detail21output_string_adapterIcNS_12basic_stringIcNS_11char_traitsIcEENS_9allocatorIcEEEEEENS8_ISB_EEE8_StorageD1B7v160006Ev, symObjAddr: 0x162E8, symBinAddr: 0x100016E5C, symSize: 0x2C }
  - { offsetInCU: 0x47A7A, offset: 0x47A7A, size: 0x8, addend: 0x0, symName: __ZNSt3__120__shared_ptr_emplaceIN8nlohmann16json_abi_v3_12_06detail21output_string_adapterIcNS_12basic_stringIcNS_11char_traitsIcEENS_9allocatorIcEEEEEENS8_ISB_EEED1Ev, symObjAddr: 0x16314, symBinAddr: 0x100016E88, symSize: 0x2C }
  - { offsetInCU: 0x47AA7, offset: 0x47AA7, size: 0x8, addend: 0x0, symName: __ZNSt3__120__shared_ptr_emplaceIN8nlohmann16json_abi_v3_12_06detail21output_string_adapterIcNS_12basic_stringIcNS_11char_traitsIcEENS_9allocatorIcEEEEEENS8_ISB_EEED0Ev, symObjAddr: 0x16340, symBinAddr: 0x100016EB4, symSize: 0x30 }
  - { offsetInCU: 0x47AD4, offset: 0x47AD4, size: 0x8, addend: 0x0, symName: __ZNSt3__120__shared_ptr_emplaceIN8nlohmann16json_abi_v3_12_06detail21output_string_adapterIcNS_12basic_stringIcNS_11char_traitsIcEENS_9allocatorIcEEEEEENS8_ISB_EEE16__on_zero_sharedEv, symObjAddr: 0x16370, symBinAddr: 0x100016EE4, symSize: 0x44 }
  - { offsetInCU: 0x47B1C, offset: 0x47B1C, size: 0x8, addend: 0x0, symName: __ZNSt3__120__shared_ptr_emplaceIN8nlohmann16json_abi_v3_12_06detail21output_string_adapterIcNS_12basic_stringIcNS_11char_traitsIcEENS_9allocatorIcEEEEEENS8_ISB_EEE21__on_zero_shared_weakEv, symObjAddr: 0x163B4, symBinAddr: 0x100016F28, symSize: 0x5C }
  - { offsetInCU: 0x47B5D, offset: 0x47B5D, size: 0x8, addend: 0x0, symName: __ZNSt3__114__shared_countC2B7v160006El, symObjAddr: 0x16410, symBinAddr: 0x100016F84, symSize: 0x30 }
  - { offsetInCU: 0x47B96, offset: 0x47B96, size: 0x8, addend: 0x0, symName: __ZNSt3__120__shared_ptr_emplaceIN8nlohmann16json_abi_v3_12_06detail21output_string_adapterIcNS_12basic_stringIcNS_11char_traitsIcEENS_9allocatorIcEEEEEENS8_ISB_EEE8_StorageC2B7v160006EOSC_, symObjAddr: 0x16440, symBinAddr: 0x100016FB4, symSize: 0x30 }
  - { offsetInCU: 0x47BCF, offset: 0x47BCF, size: 0x8, addend: 0x0, symName: __ZNSt3__120__shared_ptr_emplaceIN8nlohmann16json_abi_v3_12_06detail21output_string_adapterIcNS_12basic_stringIcNS_11char_traitsIcEENS_9allocatorIcEEEEEENS8_ISB_EEE8_Storage11__get_allocEv, symObjAddr: 0x16470, symBinAddr: 0x100016FE4, symSize: 0x3C }
  - { offsetInCU: 0x47C22, offset: 0x47C22, size: 0x8, addend: 0x0, symName: __ZNSt3__117__compressed_pairINS_9allocatorIN8nlohmann16json_abi_v3_12_06detail21output_string_adapterIcNS_12basic_stringIcNS_11char_traitsIcEENS1_IcEEEEEEEESB_E16__get_first_baseB7v160006EPSD_, symObjAddr: 0x164AC, symBinAddr: 0x100017020, symSize: 0x14 }
  - { offsetInCU: 0x47C46, offset: 0x47C46, size: 0x8, addend: 0x0, symName: __ZN8nlohmann16json_abi_v3_12_06detail21output_string_adapterIcNSt3__112basic_stringIcNS3_11char_traitsIcEENS3_9allocatorIcEEEEEC1ERS9_, symObjAddr: 0x164FC, symBinAddr: 0x100017070, symSize: 0x34 }
  - { offsetInCU: 0x47C7F, offset: 0x47C7F, size: 0x8, addend: 0x0, symName: __ZN8nlohmann16json_abi_v3_12_06detail21output_string_adapterIcNSt3__112basic_stringIcNS3_11char_traitsIcEENS3_9allocatorIcEEEEEC2ERS9_, symObjAddr: 0x16530, symBinAddr: 0x1000170A4, symSize: 0x50 }
  - { offsetInCU: 0x47CB8, offset: 0x47CB8, size: 0x8, addend: 0x0, symName: __ZN8nlohmann16json_abi_v3_12_06detail23output_adapter_protocolIcEC2Ev, symObjAddr: 0x16580, symBinAddr: 0x1000170F4, symSize: 0x24 }
  - { offsetInCU: 0x47CE2, offset: 0x47CE2, size: 0x8, addend: 0x0, symName: __ZN8nlohmann16json_abi_v3_12_06detail21output_string_adapterIcNSt3__112basic_stringIcNS3_11char_traitsIcEENS3_9allocatorIcEEEEE15write_characterEc, symObjAddr: 0x165A4, symBinAddr: 0x100017118, symSize: 0x30 }
  - { offsetInCU: 0x47D17, offset: 0x47D17, size: 0x8, addend: 0x0, symName: __ZN8nlohmann16json_abi_v3_12_06detail21output_string_adapterIcNSt3__112basic_stringIcNS3_11char_traitsIcEENS3_9allocatorIcEEEEE16write_charactersEPKcm, symObjAddr: 0x165D4, symBinAddr: 0x100017148, symSize: 0x38 }
  - { offsetInCU: 0x47D5B, offset: 0x47D5B, size: 0x8, addend: 0x0, symName: __ZN8nlohmann16json_abi_v3_12_06detail21output_string_adapterIcNSt3__112basic_stringIcNS3_11char_traitsIcEENS3_9allocatorIcEEEEED1Ev, symObjAddr: 0x1660C, symBinAddr: 0x100017180, symSize: 0x2C }
  - { offsetInCU: 0x47D88, offset: 0x47D88, size: 0x8, addend: 0x0, symName: __ZN8nlohmann16json_abi_v3_12_06detail21output_string_adapterIcNSt3__112basic_stringIcNS3_11char_traitsIcEENS3_9allocatorIcEEEEED0Ev, symObjAddr: 0x16638, symBinAddr: 0x1000171AC, symSize: 0x30 }
  - { offsetInCU: 0x47DB5, offset: 0x47DB5, size: 0x8, addend: 0x0, symName: __ZN8nlohmann16json_abi_v3_12_06detail23output_adapter_protocolIcED1Ev, symObjAddr: 0x16668, symBinAddr: 0x1000171DC, symSize: 0x14 }
  - { offsetInCU: 0x47DDF, offset: 0x47DDF, size: 0x8, addend: 0x0, symName: __ZN8nlohmann16json_abi_v3_12_06detail23output_adapter_protocolIcED0Ev, symObjAddr: 0x1667C, symBinAddr: 0x1000171F0, symSize: 0xC }
  - { offsetInCU: 0x47E09, offset: 0x47E09, size: 0x8, addend: 0x0, symName: __ZN8nlohmann16json_abi_v3_12_06detail21output_string_adapterIcNSt3__112basic_stringIcNS3_11char_traitsIcEENS3_9allocatorIcEEEEED2Ev, symObjAddr: 0x16688, symBinAddr: 0x1000171FC, symSize: 0x2C }
  - { offsetInCU: 0x47E36, offset: 0x47E36, size: 0x8, addend: 0x0, symName: __ZN8nlohmann16json_abi_v3_12_06detail23output_adapter_protocolIcED2Ev, symObjAddr: 0x166B4, symBinAddr: 0x100017228, symSize: 0x14 }
  - { offsetInCU: 0x47E60, offset: 0x47E60, size: 0x8, addend: 0x0, symName: __ZNSt3__120__shared_ptr_emplaceIN8nlohmann16json_abi_v3_12_06detail21output_string_adapterIcNS_12basic_stringIcNS_11char_traitsIcEENS_9allocatorIcEEEEEENS8_ISB_EEE8_StorageD2B7v160006Ev, symObjAddr: 0x166C8, symBinAddr: 0x10001723C, symSize: 0x2C }
  - { offsetInCU: 0x47E8A, offset: 0x47E8A, size: 0x8, addend: 0x0, symName: __ZNSt3__120__shared_ptr_emplaceIN8nlohmann16json_abi_v3_12_06detail21output_string_adapterIcNS_12basic_stringIcNS_11char_traitsIcEENS_9allocatorIcEEEEEENS8_ISB_EEED2Ev, symObjAddr: 0x166F4, symBinAddr: 0x100017268, symSize: 0x48 }
  - { offsetInCU: 0x47EB7, offset: 0x47EB7, size: 0x8, addend: 0x0, symName: __ZNSt3__116allocator_traitsINS_9allocatorIN8nlohmann16json_abi_v3_12_06detail21output_string_adapterIcNS_12basic_stringIcNS_11char_traitsIcEENS1_IcEEEEEEEEE7destroyB7v160006ISB_vvEEvRSC_PT_, symObjAddr: 0x1673C, symBinAddr: 0x1000172B0, symSize: 0x28 }
  - { offsetInCU: 0x47EF1, offset: 0x47EF1, size: 0x8, addend: 0x0, symName: __ZNSt3__116allocator_traitsINS_9allocatorINS_20__shared_ptr_emplaceIN8nlohmann16json_abi_v3_12_06detail21output_string_adapterIcNS_12basic_stringIcNS_11char_traitsIcEENS1_IcEEEEEENS1_ISC_EEEEEEE10deallocateB7v160006ERSF_PSE_m, symObjAddr: 0x167B4, symBinAddr: 0x100017328, symSize: 0x34 }
  - { offsetInCU: 0x47F39, offset: 0x47F39, size: 0x8, addend: 0x0, symName: __ZNSt3__114pointer_traitsIPNS_20__shared_ptr_emplaceIN8nlohmann16json_abi_v3_12_06detail21output_string_adapterIcNS_12basic_stringIcNS_11char_traitsIcEENS_9allocatorIcEEEEEENS9_ISC_EEEEE10pointer_toB7v160006ERSE_, symObjAddr: 0x167E8, symBinAddr: 0x10001735C, symSize: 0x14 }
  - { offsetInCU: 0x47F5D, offset: 0x47F5D, size: 0x8, addend: 0x0, symName: __ZNSt3__19allocatorINS_20__shared_ptr_emplaceIN8nlohmann16json_abi_v3_12_06detail21output_string_adapterIcNS_12basic_stringIcNS_11char_traitsIcEENS0_IcEEEEEENS0_ISB_EEEEE10deallocateB7v160006EPSD_m, symObjAddr: 0x167FC, symBinAddr: 0x100017370, symSize: 0x44 }
  - { offsetInCU: 0x47FA1, offset: 0x47FA1, size: 0x8, addend: 0x0, symName: __ZNSt3__110shared_ptrIN8nlohmann16json_abi_v3_12_06detail21output_string_adapterIcNS_12basic_stringIcNS_11char_traitsIcEENS_9allocatorIcEEEEEEEC1B7v160006Ev, symObjAddr: 0x16840, symBinAddr: 0x1000173B4, symSize: 0x2C }
  - { offsetInCU: 0x47FCB, offset: 0x47FCB, size: 0x8, addend: 0x0, symName: __ZNSt3__110shared_ptrIN8nlohmann16json_abi_v3_12_06detail21output_string_adapterIcNS_12basic_stringIcNS_11char_traitsIcEENS_9allocatorIcEEEEEEE18__enable_weak_thisB7v160006Ez, symObjAddr: 0x1686C, symBinAddr: 0x1000173E0, symSize: 0x10 }
  - { offsetInCU: 0x47FF2, offset: 0x47FF2, size: 0x8, addend: 0x0, symName: __ZNSt3__110shared_ptrIN8nlohmann16json_abi_v3_12_06detail21output_string_adapterIcNS_12basic_stringIcNS_11char_traitsIcEENS_9allocatorIcEEEEEEEC2B7v160006Ev, symObjAddr: 0x1687C, symBinAddr: 0x1000173F0, symSize: 0x1C }
  - { offsetInCU: 0x4801C, offset: 0x4801C, size: 0x8, addend: 0x0, symName: __ZNSt3__120__shared_ptr_emplaceIN8nlohmann16json_abi_v3_12_06detail21output_string_adapterIcNS_12basic_stringIcNS_11char_traitsIcEENS_9allocatorIcEEEEEENS8_ISB_EEE8_Storage10__get_elemEv, symObjAddr: 0x16898, symBinAddr: 0x10001740C, symSize: 0x3C }
  - { offsetInCU: 0x4806F, offset: 0x4806F, size: 0x8, addend: 0x0, symName: __ZNSt3__117__compressed_pairINS_9allocatorIN8nlohmann16json_abi_v3_12_06detail21output_string_adapterIcNS_12basic_stringIcNS_11char_traitsIcEENS1_IcEEEEEEEESB_E17__get_second_baseB7v160006EPSD_, symObjAddr: 0x168D4, symBinAddr: 0x100017448, symSize: 0x14 }
  - { offsetInCU: 0x48093, offset: 0x48093, size: 0x8, addend: 0x0, symName: __ZNSt3__118__allocation_guardINS_9allocatorINS_20__shared_ptr_emplaceIN8nlohmann16json_abi_v3_12_06detail21output_string_adapterIcNS_12basic_stringIcNS_11char_traitsIcEENS1_IcEEEEEENS1_ISC_EEEEEEED2B7v160006Ev, symObjAddr: 0x168E8, symBinAddr: 0x10001745C, symSize: 0x58 }
  - { offsetInCU: 0x480BD, offset: 0x480BD, size: 0x8, addend: 0x0, symName: __ZNSt3__19allocatorIN8nlohmann16json_abi_v3_12_06detail21output_string_adapterIcNS_12basic_stringIcNS_11char_traitsIcEENS0_IcEEEEEEEC2B7v160006Ev, symObjAddr: 0x16940, symBinAddr: 0x1000174B4, symSize: 0x2C }
  - { offsetInCU: 0x480E7, offset: 0x480E7, size: 0x8, addend: 0x0, symName: __ZNSt3__116__non_trivial_ifILb1ENS_9allocatorIN8nlohmann16json_abi_v3_12_06detail21output_string_adapterIcNS_12basic_stringIcNS_11char_traitsIcEENS1_IcEEEEEEEEEC2B7v160006Ev, symObjAddr: 0x1696C, symBinAddr: 0x1000174E0, symSize: 0x14 }
  - { offsetInCU: 0x48111, offset: 0x48111, size: 0x8, addend: 0x0, symName: __ZNSt3__110shared_ptrIN8nlohmann16json_abi_v3_12_06detail23output_adapter_protocolIcEEEC2B7v160006INS3_21output_string_adapterIcNS_12basic_stringIcNS_11char_traitsIcEENS_9allocatorIcEEEEEEvEEONS0_IT_EE, symObjAddr: 0x16980, symBinAddr: 0x1000174F4, symSize: 0x40 }
  - { offsetInCU: 0x48154, offset: 0x48154, size: 0x8, addend: 0x0, symName: __ZNSt3__110shared_ptrIN8nlohmann16json_abi_v3_12_06detail21output_string_adapterIcNS_12basic_stringIcNS_11char_traitsIcEENS_9allocatorIcEEEEEEED2B7v160006Ev, symObjAddr: 0x169C0, symBinAddr: 0x100017534, symSize: 0x54 }
  - { offsetInCU: 0x4817E, offset: 0x4817E, size: 0x8, addend: 0x0, symName: __ZNSt3__119__shared_weak_count16__release_sharedB7v160006Ev, symObjAddr: 0x16A14, symBinAddr: 0x100017588, symSize: 0x3C }
  - { offsetInCU: 0x481A4, offset: 0x481A4, size: 0x8, addend: 0x0, symName: __ZNSt3__114__shared_count16__release_sharedB7v160006Ev, symObjAddr: 0x16A50, symBinAddr: 0x1000175C4, symSize: 0x7C }
  - { offsetInCU: 0x481CA, offset: 0x481CA, size: 0x8, addend: 0x0, symName: __ZNSt3__110shared_ptrIN8nlohmann16json_abi_v3_12_06detail23output_adapter_protocolIcEEEC1B7v160006ERKS6_, symObjAddr: 0x16AFC, symBinAddr: 0x100017670, symSize: 0x34 }
  - { offsetInCU: 0x48203, offset: 0x48203, size: 0x8, addend: 0x0, symName: __ZNSt3__110shared_ptrIN8nlohmann16json_abi_v3_12_06detail23output_adapter_protocolIcEEEC2B7v160006ERKS6_, symObjAddr: 0x16B30, symBinAddr: 0x1000176A4, symSize: 0x70 }
  - { offsetInCU: 0x4823C, offset: 0x4823C, size: 0x8, addend: 0x0, symName: __ZNSt3__119__shared_weak_count12__add_sharedB7v160006Ev, symObjAddr: 0x16BA0, symBinAddr: 0x100017714, symSize: 0x24 }
  - { offsetInCU: 0x48262, offset: 0x48262, size: 0x8, addend: 0x0, symName: __ZNSt3__114__shared_count12__add_sharedB7v160006Ev, symObjAddr: 0x16BC4, symBinAddr: 0x100017738, symSize: 0x28 }
  - { offsetInCU: 0x48288, offset: 0x48288, size: 0x8, addend: 0x0, symName: __ZN8nlohmann16json_abi_v3_12_06detail10serializerINS0_10basic_jsonINSt3__13mapENS4_6vectorENS4_12basic_stringIcNS4_11char_traitsIcEENS4_9allocatorIcEEEEbxydSA_NS0_14adl_serializerENS6_IhNSA_IhEEEEvEEEC2ENS4_10shared_ptrINS1_23output_adapter_protocolIcEEEEcNS1_15error_handler_tE, symObjAddr: 0x16C1C, symBinAddr: 0x100017790, symSize: 0x168 }
  - { offsetInCU: 0x482E0, offset: 0x482E0, size: 0x8, addend: 0x0, symName: __ZNSt3__110shared_ptrIN8nlohmann16json_abi_v3_12_06detail23output_adapter_protocolIcEEEC1B7v160006EOS6_, symObjAddr: 0x16D84, symBinAddr: 0x1000178F8, symSize: 0x34 }
  - { offsetInCU: 0x48319, offset: 0x48319, size: 0x8, addend: 0x0, symName: __ZNSt3__111char_traitsIcE12to_char_typeEi, symObjAddr: 0x16DB8, symBinAddr: 0x10001792C, symSize: 0x18 }
  - { offsetInCU: 0x4833D, offset: 0x4833D, size: 0x8, addend: 0x0, symName: __ZNSt3__110shared_ptrIN8nlohmann16json_abi_v3_12_06detail23output_adapter_protocolIcEEEC2B7v160006EOS6_, symObjAddr: 0x16DD0, symBinAddr: 0x100017944, symSize: 0x40 }
  - { offsetInCU: 0x48376, offset: 0x48376, size: 0x8, addend: 0x0, symName: __ZNSt3__110shared_ptrIN8nlohmann16json_abi_v3_12_06detail23output_adapter_protocolIcEEED2B7v160006Ev, symObjAddr: 0x16E10, symBinAddr: 0x100017984, symSize: 0x54 }
  - { offsetInCU: 0x483A0, offset: 0x483A0, size: 0x8, addend: 0x0, symName: __ZN8nlohmann16json_abi_v3_12_06detail14output_adapterIcNSt3__112basic_stringIcNS3_11char_traitsIcEENS3_9allocatorIcEEEEED2Ev, symObjAddr: 0x16E64, symBinAddr: 0x1000179D8, symSize: 0x2C }
  - { offsetInCU: 0x483CD, offset: 0x483CD, size: 0x8, addend: 0x0, symName: __ZNKSt3__13mapINS_12basic_stringIcNS_11char_traitsIcEENS_9allocatorIcEEEEN8nlohmann16json_abi_v3_12_010basic_jsonIS0_NS_6vectorES6_bxydS4_NS8_14adl_serializerENSA_IhNS4_IhEEEEvEENS_4lessIvEENS4_INS_4pairIKS6_SE_EEEEE5emptyB7v160006Ev, symObjAddr: 0x16E90, symBinAddr: 0x100017A04, symSize: 0x34 }
  - { offsetInCU: 0x483F3, offset: 0x483F3, size: 0x8, addend: 0x0, symName: __ZNKSt3__110shared_ptrIN8nlohmann16json_abi_v3_12_06detail23output_adapter_protocolIcEEEptB7v160006Ev, symObjAddr: 0x16EC4, symBinAddr: 0x100017A38, symSize: 0x18 }
  - { offsetInCU: 0x48419, offset: 0x48419, size: 0x8, addend: 0x0, symName: __ZNKSt3__13mapINS_12basic_stringIcNS_11char_traitsIcEENS_9allocatorIcEEEEN8nlohmann16json_abi_v3_12_010basic_jsonIS0_NS_6vectorES6_bxydS4_NS8_14adl_serializerENSA_IhNS4_IhEEEEvEENS_4lessIvEENS4_INS_4pairIKS6_SE_EEEEE6cbeginB7v160006Ev, symObjAddr: 0x16EDC, symBinAddr: 0x100017A50, symSize: 0x2C }
  - { offsetInCU: 0x4843F, offset: 0x4843F, size: 0x8, addend: 0x0, symName: __ZN8nlohmann16json_abi_v3_12_06detail10serializerINS0_10basic_jsonINSt3__13mapENS4_6vectorENS4_12basic_stringIcNS4_11char_traitsIcEENS4_9allocatorIcEEEEbxydSA_NS0_14adl_serializerENS6_IhNSA_IhEEEEvEEE12dump_escapedERKSC_b, symObjAddr: 0x16F08, symBinAddr: 0x100017A7C, symSize: 0xC68 }
  - { offsetInCU: 0x484FD, offset: 0x484FD, size: 0x8, addend: 0x0, symName: __ZNKSt3__120__map_const_iteratorINS_21__tree_const_iteratorINS_12__value_typeINS_12basic_stringIcNS_11char_traitsIcEENS_9allocatorIcEEEEN8nlohmann16json_abi_v3_12_010basic_jsonINS_3mapENS_6vectorES8_bxydS6_NSA_14adl_serializerENSD_IhNS6_IhEEEEvEEEEPNS_11__tree_nodeISI_PvEElEEEptB7v160006Ev, symObjAddr: 0x17B70, symBinAddr: 0x1000186E4, symSize: 0x2C }
  - { offsetInCU: 0x48523, offset: 0x48523, size: 0x8, addend: 0x0, symName: __ZNKSt3__16vectorIN8nlohmann16json_abi_v3_12_010basic_jsonINS_3mapES0_NS_12basic_stringIcNS_11char_traitsIcEENS_9allocatorIcEEEEbxydS8_NS2_14adl_serializerENS0_IhNS8_IhEEEEvEENS8_ISE_EEE6cbeginB7v160006Ev, symObjAddr: 0x17C1C, symBinAddr: 0x100018790, symSize: 0x2C }
  - { offsetInCU: 0x48549, offset: 0x48549, size: 0x8, addend: 0x0, symName: __ZNKSt3__16vectorIN8nlohmann16json_abi_v3_12_010basic_jsonINS_3mapES0_NS_12basic_stringIcNS_11char_traitsIcEENS_9allocatorIcEEEEbxydS8_NS2_14adl_serializerENS0_IhNS8_IhEEEEvEENS8_ISE_EEE4cendB7v160006Ev, symObjAddr: 0x17C7C, symBinAddr: 0x1000187F0, symSize: 0x2C }
  - { offsetInCU: 0x4856F, offset: 0x4856F, size: 0x8, addend: 0x0, symName: __ZNKSt3__111__wrap_iterIPKN8nlohmann16json_abi_v3_12_010basic_jsonINS_3mapENS_6vectorENS_12basic_stringIcNS_11char_traitsIcEENS_9allocatorIcEEEEbxydS9_NS2_14adl_serializerENS5_IhNS9_IhEEEEvEEEmiB7v160006El, symObjAddr: 0x17CA8, symBinAddr: 0x10001881C, symSize: 0x3C }
  - { offsetInCU: 0x485A4, offset: 0x485A4, size: 0x8, addend: 0x0, symName: __ZNKSt3__111__wrap_iterIPKN8nlohmann16json_abi_v3_12_010basic_jsonINS_3mapENS_6vectorENS_12basic_stringIcNS_11char_traitsIcEENS_9allocatorIcEEEEbxydS9_NS2_14adl_serializerENS5_IhNS9_IhEEEEvEEEdeB7v160006Ev, symObjAddr: 0x17CE4, symBinAddr: 0x100018858, symSize: 0x18 }
  - { offsetInCU: 0x485CA, offset: 0x485CA, size: 0x8, addend: 0x0, symName: __ZNSt3__111__wrap_iterIPKN8nlohmann16json_abi_v3_12_010basic_jsonINS_3mapENS_6vectorENS_12basic_stringIcNS_11char_traitsIcEENS_9allocatorIcEEEEbxydS9_NS2_14adl_serializerENS5_IhNS9_IhEEEEvEEEppB7v160006Ev, symObjAddr: 0x17CFC, symBinAddr: 0x100018870, symSize: 0x20 }
  - { offsetInCU: 0x485F0, offset: 0x485F0, size: 0x8, addend: 0x0, symName: __ZNKSt3__16vectorIhNS_9allocatorIhEEE5emptyB7v160006Ev, symObjAddr: 0x17D1C, symBinAddr: 0x100018890, symSize: 0x28 }
  - { offsetInCU: 0x48616, offset: 0x48616, size: 0x8, addend: 0x0, symName: __ZNKSt3__16vectorIhNS_9allocatorIhEEE6cbeginB7v160006Ev, symObjAddr: 0x17D44, symBinAddr: 0x1000188B8, symSize: 0x2C }
  - { offsetInCU: 0x4863C, offset: 0x4863C, size: 0x8, addend: 0x0, symName: __ZNKSt3__16vectorIhNS_9allocatorIhEEE4cendB7v160006Ev, symObjAddr: 0x17DA4, symBinAddr: 0x100018918, symSize: 0x2C }
  - { offsetInCU: 0x48662, offset: 0x48662, size: 0x8, addend: 0x0, symName: __ZNKSt3__111__wrap_iterIPKhEmiB7v160006El, symObjAddr: 0x17DD0, symBinAddr: 0x100018944, symSize: 0x3C }
  - { offsetInCU: 0x48697, offset: 0x48697, size: 0x8, addend: 0x0, symName: __ZNKSt3__111__wrap_iterIPKhEdeB7v160006Ev, symObjAddr: 0x180D4, symBinAddr: 0x100018C48, symSize: 0x18 }
  - { offsetInCU: 0x486BD, offset: 0x486BD, size: 0x8, addend: 0x0, symName: __ZNSt3__111__wrap_iterIPKhEppB7v160006Ev, symObjAddr: 0x180EC, symBinAddr: 0x100018C60, symSize: 0x20 }
  - { offsetInCU: 0x486E3, offset: 0x486E3, size: 0x8, addend: 0x0, symName: __ZNSt3__16vectorIhNS_9allocatorIhEEE4backB7v160006Ev, symObjAddr: 0x1810C, symBinAddr: 0x100018C80, symSize: 0x1C }
  - { offsetInCU: 0x48709, offset: 0x48709, size: 0x8, addend: 0x0, symName: __ZNK8nlohmann16json_abi_v3_12_027byte_container_with_subtypeINSt3__16vectorIhNS2_9allocatorIhEEEEE11has_subtypeEv, symObjAddr: 0x18128, symBinAddr: 0x100018C9C, symSize: 0x1C }
  - { offsetInCU: 0x4872F, offset: 0x4872F, size: 0x8, addend: 0x0, symName: __ZNK8nlohmann16json_abi_v3_12_027byte_container_with_subtypeINSt3__16vectorIhNS2_9allocatorIhEEEEE7subtypeEv, symObjAddr: 0x18408, symBinAddr: 0x100018F7C, symSize: 0x44 }
  - { offsetInCU: 0x48755, offset: 0x48755, size: 0x8, addend: 0x0, symName: __ZNKSt3__112basic_stringIcNS_11char_traitsIcEENS_9allocatorIcEEEixB7v160006Em, symObjAddr: 0x1877C, symBinAddr: 0x1000192F0, symSize: 0x30 }
  - { offsetInCU: 0x4878A, offset: 0x4878A, size: 0x8, addend: 0x0, symName: __ZNSt3__15arrayIcLm512EEixB7v160006Em, symObjAddr: 0x1892C, symBinAddr: 0x1000194A0, symSize: 0x20 }
  - { offsetInCU: 0x487BF, offset: 0x487BF, size: 0x8, addend: 0x0, symName: __ZNSt3__15arrayIcLm512EE4dataB7v160006Ev, symObjAddr: 0x1894C, symBinAddr: 0x1000194C0, symSize: 0x14 }
  - { offsetInCU: 0x487E5, offset: 0x487E5, size: 0x8, addend: 0x0, symName: __ZNKSt3__15arrayIcLm512EE4sizeB7v160006Ev, symObjAddr: 0x18960, symBinAddr: 0x1000194D4, symSize: 0x14 }
  - { offsetInCU: 0x4880B, offset: 0x4880B, size: 0x8, addend: 0x0, symName: __ZN8nlohmann16json_abi_v3_12_06detail10serializerINS0_10basic_jsonINSt3__13mapENS4_6vectorENS4_12basic_stringIcNS4_11char_traitsIcEENS4_9allocatorIcEEEEbxydSA_NS0_14adl_serializerENS6_IhNSA_IhEEEEvEEE9hex_bytesEh, symObjAddr: 0x18A58, symBinAddr: 0x1000195CC, symSize: 0xFC }
  - { offsetInCU: 0x4888E, offset: 0x4888E, size: 0x8, addend: 0x0, symName: __ZN8nlohmann16json_abi_v3_12_06detail13binary_writerINS0_10basic_jsonINSt3__13mapENS4_6vectorENS4_12basic_stringIcNS4_11char_traitsIcEENS4_9allocatorIcEEEEbxydSA_NS0_14adl_serializerENS6_IhNSA_IhEEEEvEEcE12to_char_typeIccLPv0EEEcT_, symObjAddr: 0x18B54, symBinAddr: 0x1000196C8, symSize: 0x14 }
  - { offsetInCU: 0x488CA, offset: 0x488CA, size: 0x8, addend: 0x0, symName: __ZNKSt3__112basic_stringIcNS_11char_traitsIcEENS_9allocatorIcEEE4backB7v160006Ev, symObjAddr: 0x18C34, symBinAddr: 0x1000197A8, symSize: 0x48 }
  - { offsetInCU: 0x488F0, offset: 0x488F0, size: 0x8, addend: 0x0, symName: __ZNKSt3__15arrayIhLm400EE4sizeB7v160006Ev, symObjAddr: 0x18C7C, symBinAddr: 0x1000197F0, symSize: 0x14 }
  - { offsetInCU: 0x48916, offset: 0x48916, size: 0x8, addend: 0x0, symName: __ZNKSt3__15arrayIhLm400EEixB7v160006Em, symObjAddr: 0x18C90, symBinAddr: 0x100019804, symSize: 0x20 }
  - { offsetInCU: 0x4894B, offset: 0x4894B, size: 0x8, addend: 0x0, symName: __ZNSt3__112basic_stringIcNS_11char_traitsIcEENS_9allocatorIcEEEixB7v160006Em, symObjAddr: 0x18E88, symBinAddr: 0x1000199FC, symSize: 0x30 }
  - { offsetInCU: 0x48980, offset: 0x48980, size: 0x8, addend: 0x0, symName: __ZNSt3__114pointer_traitsIPKNS_4pairIKNS_12basic_stringIcNS_11char_traitsIcEENS_9allocatorIcEEEEN8nlohmann16json_abi_v3_12_010basic_jsonINS_3mapENS_6vectorES7_bxydS5_NSA_14adl_serializerENSD_IhNS5_IhEEEEvEEEEE10pointer_toB7v160006ERSJ_, symObjAddr: 0x18EF4, symBinAddr: 0x100019A68, symSize: 0x14 }
  - { offsetInCU: 0x489A4, offset: 0x489A4, size: 0x8, addend: 0x0, symName: __ZNSt3__120__map_const_iteratorINS_21__tree_const_iteratorINS_12__value_typeINS_12basic_stringIcNS_11char_traitsIcEENS_9allocatorIcEEEEN8nlohmann16json_abi_v3_12_010basic_jsonINS_3mapENS_6vectorES8_bxydS6_NSA_14adl_serializerENSD_IhNS6_IhEEEEvEEEEPNS_11__tree_nodeISI_PvEElEEEmmB7v160006Ev, symObjAddr: 0x18FFC, symBinAddr: 0x100019B70, symSize: 0x2C }
  - { offsetInCU: 0x489CA, offset: 0x489CA, size: 0x8, addend: 0x0, symName: __ZNKSt3__16vectorIN8nlohmann16json_abi_v3_12_010basic_jsonINS_3mapES0_NS_12basic_stringIcNS_11char_traitsIcEENS_9allocatorIcEEEEbxydS8_NS2_14adl_serializerENS0_IhNS8_IhEEEEvEENS8_ISE_EEE5beginB7v160006Ev, symObjAddr: 0x19028, symBinAddr: 0x100019B9C, symSize: 0x30 }
  - { offsetInCU: 0x489F2, offset: 0x489F2, size: 0x8, addend: 0x0, symName: __ZNKSt3__16vectorIN8nlohmann16json_abi_v3_12_010basic_jsonINS_3mapES0_NS_12basic_stringIcNS_11char_traitsIcEENS_9allocatorIcEEEEbxydS8_NS2_14adl_serializerENS0_IhNS8_IhEEEEvEENS8_ISE_EEE11__make_iterB7v160006EPKSE_, symObjAddr: 0x19058, symBinAddr: 0x100019BCC, symSize: 0x34 }
  - { offsetInCU: 0x48A27, offset: 0x48A27, size: 0x8, addend: 0x0, symName: __ZNSt3__111__wrap_iterIPKN8nlohmann16json_abi_v3_12_010basic_jsonINS_3mapENS_6vectorENS_12basic_stringIcNS_11char_traitsIcEENS_9allocatorIcEEEEbxydS9_NS2_14adl_serializerENS5_IhNS9_IhEEEEvEEEC1B7v160006EPKvSH_, symObjAddr: 0x1908C, symBinAddr: 0x100019C00, symSize: 0x3C }
  - { offsetInCU: 0x48A6F, offset: 0x48A6F, size: 0x8, addend: 0x0, symName: __ZNSt3__111__wrap_iterIPKN8nlohmann16json_abi_v3_12_010basic_jsonINS_3mapENS_6vectorENS_12basic_stringIcNS_11char_traitsIcEENS_9allocatorIcEEEEbxydS9_NS2_14adl_serializerENS5_IhNS9_IhEEEEvEEEC2B7v160006EPKvSH_, symObjAddr: 0x190C8, symBinAddr: 0x100019C3C, symSize: 0x24 }
  - { offsetInCU: 0x48AB7, offset: 0x48AB7, size: 0x8, addend: 0x0, symName: __ZNKSt3__111__wrap_iterIPKN8nlohmann16json_abi_v3_12_010basic_jsonINS_3mapENS_6vectorENS_12basic_stringIcNS_11char_traitsIcEENS_9allocatorIcEEEEbxydS9_NS2_14adl_serializerENS5_IhNS9_IhEEEEvEEE4baseB7v160006Ev, symObjAddr: 0x19134, symBinAddr: 0x100019CA8, symSize: 0x18 }
  - { offsetInCU: 0x48ADD, offset: 0x48ADD, size: 0x8, addend: 0x0, symName: __ZNKSt3__16vectorIN8nlohmann16json_abi_v3_12_010basic_jsonINS_3mapES0_NS_12basic_stringIcNS_11char_traitsIcEENS_9allocatorIcEEEEbxydS8_NS2_14adl_serializerENS0_IhNS8_IhEEEEvEENS8_ISE_EEE3endB7v160006Ev, symObjAddr: 0x1914C, symBinAddr: 0x100019CC0, symSize: 0x30 }
  - { offsetInCU: 0x48B05, offset: 0x48B05, size: 0x8, addend: 0x0, symName: __ZNKSt3__111__wrap_iterIPKN8nlohmann16json_abi_v3_12_010basic_jsonINS_3mapENS_6vectorENS_12basic_stringIcNS_11char_traitsIcEENS_9allocatorIcEEEEbxydS9_NS2_14adl_serializerENS5_IhNS9_IhEEEEvEEEplB7v160006El, symObjAddr: 0x1917C, symBinAddr: 0x100019CF0, symSize: 0x3C }
  - { offsetInCU: 0x48B49, offset: 0x48B49, size: 0x8, addend: 0x0, symName: __ZNSt3__111__wrap_iterIPKN8nlohmann16json_abi_v3_12_010basic_jsonINS_3mapENS_6vectorENS_12basic_stringIcNS_11char_traitsIcEENS_9allocatorIcEEEEbxydS9_NS2_14adl_serializerENS5_IhNS9_IhEEEEvEEEpLB7v160006El, symObjAddr: 0x191B8, symBinAddr: 0x100019D2C, symSize: 0x28 }
  - { offsetInCU: 0x48B7E, offset: 0x48B7E, size: 0x8, addend: 0x0, symName: __ZNKSt3__16vectorIhNS_9allocatorIhEEE5beginB7v160006Ev, symObjAddr: 0x191E0, symBinAddr: 0x100019D54, symSize: 0x30 }
  - { offsetInCU: 0x48BA6, offset: 0x48BA6, size: 0x8, addend: 0x0, symName: __ZNKSt3__16vectorIhNS_9allocatorIhEEE11__make_iterB7v160006EPKh, symObjAddr: 0x19210, symBinAddr: 0x100019D84, symSize: 0x34 }
  - { offsetInCU: 0x48BDB, offset: 0x48BDB, size: 0x8, addend: 0x0, symName: __ZNSt3__111__wrap_iterIPKhEC1B7v160006EPKvS2_, symObjAddr: 0x19244, symBinAddr: 0x100019DB8, symSize: 0x3C }
  - { offsetInCU: 0x48C23, offset: 0x48C23, size: 0x8, addend: 0x0, symName: __ZNSt3__111__wrap_iterIPKhEC2B7v160006EPKvS2_, symObjAddr: 0x19280, symBinAddr: 0x100019DF4, symSize: 0x24 }
  - { offsetInCU: 0x48C6B, offset: 0x48C6B, size: 0x8, addend: 0x0, symName: __ZNKSt3__111__wrap_iterIPKhE4baseB7v160006Ev, symObjAddr: 0x192EC, symBinAddr: 0x100019E60, symSize: 0x18 }
  - { offsetInCU: 0x48C91, offset: 0x48C91, size: 0x8, addend: 0x0, symName: __ZNKSt3__16vectorIhNS_9allocatorIhEEE3endB7v160006Ev, symObjAddr: 0x19304, symBinAddr: 0x100019E78, symSize: 0x30 }
  - { offsetInCU: 0x48CB9, offset: 0x48CB9, size: 0x8, addend: 0x0, symName: __ZNKSt3__111__wrap_iterIPKhEplB7v160006El, symObjAddr: 0x19334, symBinAddr: 0x100019EA8, symSize: 0x3C }
  - { offsetInCU: 0x48CFD, offset: 0x48CFD, size: 0x8, addend: 0x0, symName: __ZNSt3__111__wrap_iterIPKhEpLB7v160006El, symObjAddr: 0x19370, symBinAddr: 0x100019EE4, symSize: 0x28 }
  - { offsetInCU: 0x48D32, offset: 0x48D32, size: 0x8, addend: 0x0, symName: __ZNSt3__15arrayIcLm64EE5beginB7v160006Ev, symObjAddr: 0x19398, symBinAddr: 0x100019F0C, symSize: 0x24 }
  - { offsetInCU: 0x48D58, offset: 0x48D58, size: 0x8, addend: 0x0, symName: __ZN8nlohmann16json_abi_v3_12_06detail10serializerINS0_10basic_jsonINSt3__13mapENS4_6vectorENS4_12basic_stringIcNS4_11char_traitsIcEENS4_9allocatorIcEEEEbxydSA_NS0_14adl_serializerENS6_IhNSA_IhEEEEvEEE18is_negative_numberIhLi0EEEbT_, symObjAddr: 0x193BC, symBinAddr: 0x100019F30, symSize: 0x1C }
  - { offsetInCU: 0x48D98, offset: 0x48D98, size: 0x8, addend: 0x0, symName: __ZN8nlohmann16json_abi_v3_12_06detail10serializerINS0_10basic_jsonINSt3__13mapENS4_6vectorENS4_12basic_stringIcNS4_11char_traitsIcEENS4_9allocatorIcEEEEbxydSA_NS0_14adl_serializerENS6_IhNSA_IhEEEEvEEE11remove_signEx, symObjAddr: 0x193D8, symBinAddr: 0x100019F4C, symSize: 0xAC }
  - { offsetInCU: 0x48DCD, offset: 0x48DCD, size: 0x8, addend: 0x0, symName: __ZN8nlohmann16json_abi_v3_12_06detail10serializerINS0_10basic_jsonINSt3__13mapENS4_6vectorENS4_12basic_stringIcNS4_11char_traitsIcEENS4_9allocatorIcEEEEbxydSA_NS0_14adl_serializerENS6_IhNSA_IhEEEEvEEE12count_digitsEy, symObjAddr: 0x19484, symBinAddr: 0x100019FF8, symSize: 0xD4 }
  - { offsetInCU: 0x48E11, offset: 0x48E11, size: 0x8, addend: 0x0, symName: __ZNKSt3__15arrayIcLm64EE4sizeB7v160006Ev, symObjAddr: 0x19558, symBinAddr: 0x10001A0CC, symSize: 0x14 }
  - { offsetInCU: 0x48E37, offset: 0x48E37, size: 0x8, addend: 0x0, symName: __ZNKSt3__15arrayINS0_IcLm2EEELm100EEixB7v160006Em, symObjAddr: 0x1956C, symBinAddr: 0x10001A0E0, symSize: 0x20 }
  - { offsetInCU: 0x48E6C, offset: 0x48E6C, size: 0x8, addend: 0x0, symName: __ZNKSt3__15arrayIcLm2EEixB7v160006Em, symObjAddr: 0x1958C, symBinAddr: 0x10001A100, symSize: 0x20 }
  - { offsetInCU: 0x48EA1, offset: 0x48EA1, size: 0x8, addend: 0x0, symName: __ZNSt3__15arrayIcLm64EE4dataB7v160006Ev, symObjAddr: 0x195AC, symBinAddr: 0x10001A120, symSize: 0x14 }
  - { offsetInCU: 0x48EC7, offset: 0x48EC7, size: 0x8, addend: 0x0, symName: __ZNSt3__114numeric_limitsIxE3maxB7v160006Ev, symObjAddr: 0x195C0, symBinAddr: 0x10001A134, symSize: 0x14 }
  - { offsetInCU: 0x48EDB, offset: 0x48EDB, size: 0x8, addend: 0x0, symName: __ZNSt3__123__libcpp_numeric_limitsIxLb1EE3maxB7v160006Ev, symObjAddr: 0x195D4, symBinAddr: 0x10001A148, symSize: 0x8 }
  - { offsetInCU: 0x48EEF, offset: 0x48EEF, size: 0x8, addend: 0x0, symName: __ZN8nlohmann16json_abi_v3_12_06detail10serializerINS0_10basic_jsonINSt3__13mapENS4_6vectorENS4_12basic_stringIcNS4_11char_traitsIcEENS4_9allocatorIcEEEEbxydSA_NS0_14adl_serializerENS6_IhNSA_IhEEEEvEEE18is_negative_numberIyLi0EEEbT_, symObjAddr: 0x195DC, symBinAddr: 0x10001A150, symSize: 0x1C }
  - { offsetInCU: 0x48F2F, offset: 0x48F2F, size: 0x8, addend: 0x0, symName: __ZN8nlohmann16json_abi_v3_12_06detail10serializerINS0_10basic_jsonINSt3__13mapENS4_6vectorENS4_12basic_stringIcNS4_11char_traitsIcEENS4_9allocatorIcEEEEbxydSA_NS0_14adl_serializerENS6_IhNSA_IhEEEEvEEE18is_negative_numberIxLi0EEEbT_, symObjAddr: 0x195F8, symBinAddr: 0x10001A16C, symSize: 0x24 }
  - { offsetInCU: 0x48F72, offset: 0x48F72, size: 0x8, addend: 0x0, symName: __Z8isfiniteB7v160006IdLi0EEbT_, symObjAddr: 0x1961C, symBinAddr: 0x10001A190, symSize: 0x34 }
  - { offsetInCU: 0x48FB0, offset: 0x48FB0, size: 0x8, addend: 0x0, symName: __ZN8nlohmann16json_abi_v3_12_06detail10serializerINS0_10basic_jsonINSt3__13mapENS4_6vectorENS4_12basic_stringIcNS4_11char_traitsIcEENS4_9allocatorIcEEEEbxydSA_NS0_14adl_serializerENS6_IhNSA_IhEEEEvEEE10dump_floatEdNS4_17integral_constantIbLb1EEE, symObjAddr: 0x19650, symBinAddr: 0x10001A1C4, symSize: 0x94 }
  - { offsetInCU: 0x4900D, offset: 0x4900D, size: 0x8, addend: 0x0, symName: __Z7signbitB7v160006IdLi0EEbT_, symObjAddr: 0x19950, symBinAddr: 0x10001A4C4, symSize: 0x24 }
  - { offsetInCU: 0x4905C, offset: 0x4905C, size: 0x8, addend: 0x0, symName: __ZN8nlohmann16json_abi_v3_12_06detail9dtoa_impl5diyfpC1Eyi, symObjAddr: 0x1A1F4, symBinAddr: 0x10001AD68, symSize: 0x3C }
  - { offsetInCU: 0x490A4, offset: 0x490A4, size: 0x8, addend: 0x0, symName: __ZN8nlohmann16json_abi_v3_12_06detail9dtoa_impl5diyfp9normalizeES3_, symObjAddr: 0x1A230, symBinAddr: 0x10001ADA4, symSize: 0xAC }
  - { offsetInCU: 0x490C8, offset: 0x490C8, size: 0x8, addend: 0x0, symName: __ZN8nlohmann16json_abi_v3_12_06detail9dtoa_impl5diyfp12normalize_toERKS3_i, symObjAddr: 0x1A2DC, symBinAddr: 0x10001AE50, symSize: 0xF8 }
  - { offsetInCU: 0x4910A, offset: 0x4910A, size: 0x8, addend: 0x0, symName: __ZN8nlohmann16json_abi_v3_12_06detail9dtoa_impl5diyfpC2Eyi, symObjAddr: 0x1A3D4, symBinAddr: 0x10001AF48, symSize: 0x2C }
  - { offsetInCU: 0x49152, offset: 0x49152, size: 0x8, addend: 0x0, symName: __ZN8nlohmann16json_abi_v3_12_06detail9dtoa_impl5diyfp3mulERKS3_S5_, symObjAddr: 0x1A62C, symBinAddr: 0x10001B1A0, symSize: 0x140 }
  - { offsetInCU: 0x4926A, offset: 0x4926A, size: 0x8, addend: 0x0, symName: __ZNKSt3__15arrayIN8nlohmann16json_abi_v3_12_06detail9dtoa_impl12cached_powerELm79EE4sizeB7v160006Ev, symObjAddr: 0x1AC10, symBinAddr: 0x10001B784, symSize: 0x14 }
  - { offsetInCU: 0x49290, offset: 0x49290, size: 0x8, addend: 0x0, symName: __ZNKSt3__15arrayIN8nlohmann16json_abi_v3_12_06detail9dtoa_impl12cached_powerELm79EEixB7v160006Em, symObjAddr: 0x1AC24, symBinAddr: 0x10001B798, symSize: 0x20 }
  - { offsetInCU: 0x492C5, offset: 0x492C5, size: 0x8, addend: 0x0, symName: __ZN8nlohmann16json_abi_v3_12_06detail9dtoa_impl5diyfp3subERKS3_S5_, symObjAddr: 0x1AC44, symBinAddr: 0x10001B7B8, symSize: 0xE8 }
  - { offsetInCU: 0x492F8, offset: 0x492F8, size: 0x8, addend: 0x0, symName: __ZNSt3__114numeric_limitsIyE3maxB7v160006Ev, symObjAddr: 0x1B170, symBinAddr: 0x10001BCE4, symSize: 0x14 }
  - { offsetInCU: 0x4930C, offset: 0x4930C, size: 0x8, addend: 0x0, symName: __ZNSt3__123__libcpp_numeric_limitsIyLb1EE3maxB7v160006Ev, symObjAddr: 0x1B184, symBinAddr: 0x10001BCF8, symSize: 0x8 }
  - { offsetInCU: 0x49320, offset: 0x49320, size: 0x8, addend: 0x0, symName: __ZN8nlohmann16json_abi_v3_12_06detail10serializerINS0_10basic_jsonINSt3__13mapENS4_6vectorENS4_12basic_stringIcNS4_11char_traitsIcEENS4_9allocatorIcEEEEbxydSA_NS0_14adl_serializerENS6_IhNSA_IhEEEEvEEED2Ev, symObjAddr: 0x1B3AC, symBinAddr: 0x10001BF20, symSize: 0x38 }
  - { offsetInCU: 0x66, offset: 0x49E71, size: 0x8, addend: 0x0, symName: __ZNSt3__16ranges5__cpo9iter_moveE, symObjAddr: 0xFC9A, symBinAddr: 0x1000AA4F3, symSize: 0x0 }
  - { offsetInCU: 0xBB, offset: 0x49EC6, size: 0x8, addend: 0x0, symName: __ZNSt3__1L19piecewise_constructE, symObjAddr: 0xFD6B, symBinAddr: 0x1000AA5C4, symSize: 0x0 }
  - { offsetInCU: 0xBEA3, offset: 0x55CAE, size: 0x8, addend: 0x0, symName: '__ZNSt3__110__function10__not_nullB7v160006IZN11InterpreterC1EvE3$_0EEbRKT_', symObjAddr: 0xC4FC, symBinAddr: 0x100026784, symSize: 0x18 }
  - { offsetInCU: 0xE9CA, offset: 0x587D5, size: 0x8, addend: 0x0, symName: __ZNSt3__17advanceB7v160006IPP8PyObjectllvEEvRT_T0_, symObjAddr: 0xB3A8, symBinAddr: 0x1000260E8, symSize: 0x50 }
  - { offsetInCU: 0x10630, offset: 0x5A43B, size: 0x8, addend: 0x0, symName: __ZNSt3__1neB7v160006IPP7AstNodeEEbRKNS_11__wrap_iterIT_EES8_, symObjAddr: 0xFDC, symBinAddr: 0x10001CDD4, symSize: 0x34 }
  - { offsetInCU: 0x10676, offset: 0x5A481, size: 0x8, addend: 0x0, symName: __ZNSt3__1neB7v160006IPNS_4pairIP7AstNodeS3_EEEEbRKNS_11__wrap_iterIT_EESA_, symObjAddr: 0x17E4, symBinAddr: 0x10001D5DC, symSize: 0x34 }
  - { offsetInCU: 0x106BC, offset: 0x5A4C7, size: 0x8, addend: 0x0, symName: __ZNSt3__119__debug_db_insert_cB7v160006INS_6vectorIP5ScopeNS_9allocatorIS3_EEEEEEvPT_, symObjAddr: 0x49A0, symBinAddr: 0x100020734, symSize: 0x10 }
  - { offsetInCU: 0x106EF, offset: 0x5A4FA, size: 0x8, addend: 0x0, symName: __ZNSt3__119__debug_db_insert_cB7v160006INS_13unordered_mapINS_12basic_stringIcNS_11char_traitsIcEENS_9allocatorIcEEEEP8PyObjectNS_4hashIS7_EENS_8equal_toIS7_EENS5_INS_4pairIKS7_S9_EEEEEEEEvPT_, symObjAddr: 0x4B44, symBinAddr: 0x1000208D8, symSize: 0x10 }
  - { offsetInCU: 0x10749, offset: 0x5A554, size: 0x8, addend: 0x0, symName: __ZNSt3__112construct_atB7v160006IP5ScopeJRKS2_EPS2_EEPT_S7_DpOT0_, symObjAddr: 0x5494, symBinAddr: 0x1000211C8, symSize: 0x2C }
  - { offsetInCU: 0x107BE, offset: 0x5A5C9, size: 0x8, addend: 0x0, symName: __ZNSt3__119__allocate_at_leastB7v160006INS_9allocatorIP5ScopeEEEENS_19__allocation_resultINS_16allocator_traitsIT_E7pointerEEERS7_m, symObjAddr: 0x5C80, symBinAddr: 0x100021664, symSize: 0x40 }
  - { offsetInCU: 0x10803, offset: 0x5A60E, size: 0x8, addend: 0x0, symName: __ZNSt3__142__uninitialized_allocator_move_if_noexceptB7v160006INS_9allocatorIP5ScopeEENS_16reverse_iteratorIPS3_EES7_S3_vEET1_RT_T0_SB_S8_, symObjAddr: 0x5FF0, symBinAddr: 0x100021818, symSize: 0x78 }
  - { offsetInCU: 0x10881, offset: 0x5A68C, size: 0x8, addend: 0x0, symName: __ZNSt3__14swapB7v160006IPP5ScopeEENS_9enable_ifIXaasr21is_move_constructibleIT_EE5valuesr18is_move_assignableIS5_EE5valueEvE4typeERS5_S8_, symObjAddr: 0x60B4, symBinAddr: 0x1000218DC, symSize: 0x3C }
  - { offsetInCU: 0x108D6, offset: 0x5A6E1, size: 0x8, addend: 0x0, symName: __ZNSt3__125__debug_db_invalidate_allB7v160006INS_6vectorIP5ScopeNS_9allocatorIS3_EEEEEEvPT_, symObjAddr: 0x619C, symBinAddr: 0x1000219C4, symSize: 0x10 }
  - { offsetInCU: 0x10909, offset: 0x5A714, size: 0x8, addend: 0x0, symName: __ZNSt3__14moveB7v160006INS_16reverse_iteratorIPP5ScopeEES5_EET0_T_S7_S6_, symObjAddr: 0x61F4, symBinAddr: 0x1000219D4, symSize: 0x78 }
  - { offsetInCU: 0x10967, offset: 0x5A772, size: 0x8, addend: 0x0, symName: __ZNSt3__16__moveB7v160006INS_17_ClassicAlgPolicyENS_16reverse_iteratorIPP5ScopeEES6_S6_EENS_4pairIT0_T2_EES8_T1_S9_, symObjAddr: 0x626C, symBinAddr: 0x100021A4C, symSize: 0x64 }
  - { offsetInCU: 0x109D7, offset: 0x5A7E2, size: 0x8, addend: 0x0, symName: __ZNSt3__123__dispatch_copy_or_moveB7v160006INS_17_ClassicAlgPolicyENS_11__move_loopIS1_EENS_14__move_trivialENS_16reverse_iteratorIPP5ScopeEES9_S9_EENS_4pairIT2_T4_EESB_T3_SC_, symObjAddr: 0x62D0, symBinAddr: 0x100021AB0, symSize: 0x64 }
  - { offsetInCU: 0x10A59, offset: 0x5A864, size: 0x8, addend: 0x0, symName: __ZNSt3__121__unwrap_and_dispatchB7v160006INS_10__overloadINS_11__move_loopINS_17_ClassicAlgPolicyEEENS_14__move_trivialEEENS_16reverse_iteratorIPP5ScopeEESB_SB_Li0EEENS_4pairIT0_T2_EESD_T1_SE_, symObjAddr: 0x6334, symBinAddr: 0x100021B14, symSize: 0x12C }
  - { offsetInCU: 0x10AEF, offset: 0x5A8FA, size: 0x8, addend: 0x0, symName: __ZNSt3__114__unwrap_rangeB7v160006INS_16reverse_iteratorIPP5ScopeEES5_EEDaT_T0_, symObjAddr: 0x6460, symBinAddr: 0x100021C40, symSize: 0x4C }
  - { offsetInCU: 0x10CA3, offset: 0x5AAAE, size: 0x8, addend: 0x0, symName: __ZNSt3__113__unwrap_iterB7v160006INS_16reverse_iteratorIPP5ScopeEENS_18__unwrap_iter_implIS5_Lb0EEELi0EEEDTclsrT0_8__unwrapclsr3stdE7declvalIT_EEEES9_, symObjAddr: 0x654C, symBinAddr: 0x100021D2C, symSize: 0x44 }
  - { offsetInCU: 0x10CE8, offset: 0x5AAF3, size: 0x8, addend: 0x0, symName: __ZNSt3__19make_pairB7v160006INS_16reverse_iteratorIPP5ScopeEES5_EENS_4pairINS_18__unwrap_ref_decayIT_E4typeENS7_IT0_E4typeEEEOS8_OSB_, symObjAddr: 0x6590, symBinAddr: 0x100021D70, symSize: 0x38 }
  - { offsetInCU: 0x10D38, offset: 0x5AB43, size: 0x8, addend: 0x0, symName: __ZNSt3__114__rewrap_rangeB7v160006INS_16reverse_iteratorIPP5ScopeEES5_S5_EET0_S6_T1_, symObjAddr: 0x65C8, symBinAddr: 0x100021DA8, symSize: 0x5C }
  - { offsetInCU: 0x10D90, offset: 0x5AB9B, size: 0x8, addend: 0x0, symName: __ZNSt3__113__rewrap_iterB7v160006INS_16reverse_iteratorIPP5ScopeEES5_NS_18__unwrap_iter_implIS5_Lb0EEEEET_S8_T0_, symObjAddr: 0x6624, symBinAddr: 0x100021E04, symSize: 0x74 }
  - { offsetInCU: 0x10E38, offset: 0x5AC43, size: 0x8, addend: 0x0, symName: __ZNSt3__1neB7v160006IPP5ScopeS3_EEbRKNS_16reverse_iteratorIT_EERKNS4_IT0_EE, symObjAddr: 0x678C, symBinAddr: 0x100021F6C, symSize: 0x48 }
  - { offsetInCU: 0x10F6C, offset: 0x5AD77, size: 0x8, addend: 0x0, symName: __ZNSt3__1miB7v160006IPKP8PyObjectPS2_EEDTmicldtfp_4baseEcldtfp0_4baseEERKNS_11__wrap_iterIT_EERKNS7_IT0_EE, symObjAddr: 0x732C, symBinAddr: 0x100022550, symSize: 0x48 }
  - { offsetInCU: 0x11015, offset: 0x5AE20, size: 0x8, addend: 0x0, symName: __ZNSt3__112construct_atB7v160006IP8PyObjectJRKS2_EPS2_EEPT_S7_DpOT0_, symObjAddr: 0x7C20, symBinAddr: 0x100022DE0, symSize: 0x2C }
  - { offsetInCU: 0x1108A, offset: 0x5AE95, size: 0x8, addend: 0x0, symName: __ZNSt3__113move_backwardB7v160006IPP8PyObjectS3_EET0_T_S5_S4_, symObjAddr: 0x7C9C, symBinAddr: 0x100022E5C, symSize: 0x40 }
  - { offsetInCU: 0x110E8, offset: 0x5AEF3, size: 0x8, addend: 0x0, symName: __ZNSt3__112construct_atB7v160006IP8PyObjectJS2_EPS2_EEPT_S5_DpOT0_, symObjAddr: 0x7CDC, symBinAddr: 0x100022E9C, symSize: 0x2C }
  - { offsetInCU: 0x1115D, offset: 0x5AF68, size: 0x8, addend: 0x0, symName: __ZNSt3__115__move_backwardB7v160006INS_17_ClassicAlgPolicyEPP8PyObjectS4_S4_EENS_4pairIT0_T2_EES6_T1_S7_, symObjAddr: 0x7D08, symBinAddr: 0x100022EC8, symSize: 0x44 }
  - { offsetInCU: 0x111CD, offset: 0x5AFD8, size: 0x8, addend: 0x0, symName: __ZNSt3__123__dispatch_copy_or_moveB7v160006INS_17_ClassicAlgPolicyENS_20__move_backward_loopIS1_EENS_23__move_backward_trivialEPP8PyObjectS7_S7_EENS_4pairIT2_T4_EES9_T3_SA_, symObjAddr: 0x7D4C, symBinAddr: 0x100022F0C, symSize: 0x44 }
  - { offsetInCU: 0x1124F, offset: 0x5B05A, size: 0x8, addend: 0x0, symName: __ZNSt3__121__unwrap_and_dispatchB7v160006INS_10__overloadINS_20__move_backward_loopINS_17_ClassicAlgPolicyEEENS_23__move_backward_trivialEEEPP8PyObjectS9_S9_Li0EEENS_4pairIT0_T2_EESB_T1_SC_, symObjAddr: 0x7D90, symBinAddr: 0x100022F50, symSize: 0xB4 }
  - { offsetInCU: 0x112E3, offset: 0x5B0EE, size: 0x8, addend: 0x0, symName: __ZNSt3__114__unwrap_rangeB7v160006IPP8PyObjectS3_EEDaT_T0_, symObjAddr: 0x7E44, symBinAddr: 0x100023004, symSize: 0x3C }
  - { offsetInCU: 0x114AA, offset: 0x5B2B5, size: 0x8, addend: 0x0, symName: __ZNSt3__113__unwrap_iterB7v160006IPP8PyObjectNS_18__unwrap_iter_implIS3_Lb1EEELi0EEEDTclsrT0_8__unwrapclsr3stdE7declvalIT_EEEES7_, symObjAddr: 0x7EC8, symBinAddr: 0x100023088, symSize: 0x24 }
  - { offsetInCU: 0x114EF, offset: 0x5B2FA, size: 0x8, addend: 0x0, symName: __ZNSt3__19make_pairB7v160006IPP8PyObjectS3_EENS_4pairINS_18__unwrap_ref_decayIT_E4typeENS5_IT0_E4typeEEEOS6_OS9_, symObjAddr: 0x7EEC, symBinAddr: 0x1000230AC, symSize: 0x38 }
  - { offsetInCU: 0x1153F, offset: 0x5B34A, size: 0x8, addend: 0x0, symName: __ZNSt3__114__rewrap_rangeB7v160006IPP8PyObjectS3_S3_EET0_S4_T1_, symObjAddr: 0x7F24, symBinAddr: 0x1000230E4, symSize: 0x2C }
  - { offsetInCU: 0x11597, offset: 0x5B3A2, size: 0x8, addend: 0x0, symName: __ZNSt3__113__rewrap_iterB7v160006IPP8PyObjectS3_NS_18__unwrap_iter_implIS3_Lb1EEEEET_S6_T0_, symObjAddr: 0x7F50, symBinAddr: 0x100023110, symSize: 0x3C }
  - { offsetInCU: 0x1163F, offset: 0x5B44A, size: 0x8, addend: 0x0, symName: __ZNSt3__128__copy_backward_trivial_implB7v160006IP8PyObjectS2_EENS_4pairIPT_PT0_EES5_S5_S7_, symObjAddr: 0x8054, symBinAddr: 0x100023214, symSize: 0x94 }
  - { offsetInCU: 0x116AB, offset: 0x5B4B6, size: 0x8, addend: 0x0, symName: __ZNSt3__19make_pairB7v160006IRPP8PyObjectS4_EENS_4pairINS_18__unwrap_ref_decayIT_E4typeENS6_IT0_E4typeEEEOS7_OSA_, symObjAddr: 0x80E8, symBinAddr: 0x1000232A8, symSize: 0x38 }
  - { offsetInCU: 0x1174E, offset: 0x5B559, size: 0x8, addend: 0x0, symName: __ZNSt3__119__allocate_at_leastB7v160006INS_9allocatorIP8PyObjectEEEENS_19__allocation_resultINS_16allocator_traitsIT_E7pointerEEERS7_m, symObjAddr: 0x851C, symBinAddr: 0x100023604, symSize: 0x40 }
  - { offsetInCU: 0x11794, offset: 0x5B59F, size: 0x8, addend: 0x0, symName: __ZNSt3__14moveB7v160006IPP8PyObjectS3_EET0_T_S5_S4_, symObjAddr: 0x86EC, symBinAddr: 0x1000237D4, symSize: 0x40 }
  - { offsetInCU: 0x117F2, offset: 0x5B5FD, size: 0x8, addend: 0x0, symName: __ZNSt3__14swapB7v160006IPP8PyObjectEENS_9enable_ifIXaasr21is_move_constructibleIT_EE5valuesr18is_move_assignableIS5_EE5valueEvE4typeERS5_S8_, symObjAddr: 0x885C, symBinAddr: 0x100023944, symSize: 0x3C }
  - { offsetInCU: 0x11847, offset: 0x5B652, size: 0x8, addend: 0x0, symName: __ZNSt3__16__moveB7v160006INS_17_ClassicAlgPolicyEPP8PyObjectS4_S4_EENS_4pairIT0_T2_EES6_T1_S7_, symObjAddr: 0x8898, symBinAddr: 0x100023980, symSize: 0x44 }
  - { offsetInCU: 0x118B7, offset: 0x5B6C2, size: 0x8, addend: 0x0, symName: __ZNSt3__123__dispatch_copy_or_moveB7v160006INS_17_ClassicAlgPolicyENS_11__move_loopIS1_EENS_14__move_trivialEPP8PyObjectS7_S7_EENS_4pairIT2_T4_EES9_T3_SA_, symObjAddr: 0x88DC, symBinAddr: 0x1000239C4, symSize: 0x44 }
  - { offsetInCU: 0x11939, offset: 0x5B744, size: 0x8, addend: 0x0, symName: __ZNSt3__121__unwrap_and_dispatchB7v160006INS_10__overloadINS_11__move_loopINS_17_ClassicAlgPolicyEEENS_14__move_trivialEEEPP8PyObjectS9_S9_Li0EEENS_4pairIT0_T2_EESB_T1_SC_, symObjAddr: 0x8920, symBinAddr: 0x100023A08, symSize: 0xB4 }
  - { offsetInCU: 0x11A13, offset: 0x5B81E, size: 0x8, addend: 0x0, symName: __ZNSt3__119__copy_trivial_implB7v160006IP8PyObjectS2_EENS_4pairIPT_PT0_EES5_S5_S7_, symObjAddr: 0x8A1C, symBinAddr: 0x100023B04, symSize: 0x84 }
  - { offsetInCU: 0x11A7F, offset: 0x5B88A, size: 0x8, addend: 0x0, symName: __ZNSt3__19make_pairB7v160006IRPP8PyObjectS3_EENS_4pairINS_18__unwrap_ref_decayIT_E4typeENS6_IT0_E4typeEEEOS7_OSA_, symObjAddr: 0x8AA0, symBinAddr: 0x100023B88, symSize: 0x38 }
  - { offsetInCU: 0x11ACF, offset: 0x5B8DA, size: 0x8, addend: 0x0, symName: __ZNSt3__18distanceB7v160006INS_13move_iteratorIPP8PyObjectEEEENS_15iterator_traitsIT_E15difference_typeES7_S7_, symObjAddr: 0x8B48, symBinAddr: 0x100023C30, symSize: 0x3C }
  - { offsetInCU: 0x11B15, offset: 0x5B920, size: 0x8, addend: 0x0, symName: __ZNSt3__110__distanceB7v160006INS_13move_iteratorIPP8PyObjectEEEENS_15iterator_traitsIT_E15difference_typeES7_S7_NS_26random_access_iterator_tagE, symObjAddr: 0x8C38, symBinAddr: 0x100023D20, symSize: 0x30 }
  - { offsetInCU: 0x11B65, offset: 0x5B970, size: 0x8, addend: 0x0, symName: __ZNSt3__1miB7v160006IPP8PyObjectS3_EEDTmicldtfp_4baseEcldtfp0_4baseEERKNS_13move_iteratorIT_EERKNS5_IT0_EE, symObjAddr: 0x8C68, symBinAddr: 0x100023D50, symSize: 0x4C }
  - { offsetInCU: 0x11BB4, offset: 0x5B9BF, size: 0x8, addend: 0x0, symName: __ZNSt3__142__uninitialized_allocator_move_if_noexceptB7v160006INS_9allocatorIP8PyObjectEENS_16reverse_iteratorIPS3_EES7_S3_vEET1_RT_T0_SB_S8_, symObjAddr: 0x8E20, symBinAddr: 0x100023E50, symSize: 0x78 }
  - { offsetInCU: 0x11C31, offset: 0x5BA3C, size: 0x8, addend: 0x0, symName: __ZNSt3__142__uninitialized_allocator_move_if_noexceptB7v160006INS_9allocatorIP8PyObjectEEPS3_S5_S3_vEET1_RT_T0_S9_S6_, symObjAddr: 0x8EE4, symBinAddr: 0x100023F14, symSize: 0x38 }
  - { offsetInCU: 0x11CAE, offset: 0x5BAB9, size: 0x8, addend: 0x0, symName: __ZNSt3__125__debug_db_invalidate_allB7v160006INS_6vectorIP8PyObjectNS_9allocatorIS3_EEEEEEvPT_, symObjAddr: 0x8FC8, symBinAddr: 0x100023FF8, symSize: 0x10 }
  - { offsetInCU: 0x11CE1, offset: 0x5BAEC, size: 0x8, addend: 0x0, symName: __ZNSt3__14moveB7v160006INS_16reverse_iteratorIPP8PyObjectEES5_EET0_T_S7_S6_, symObjAddr: 0x9020, symBinAddr: 0x100024008, symSize: 0x78 }
  - { offsetInCU: 0x11D3F, offset: 0x5BB4A, size: 0x8, addend: 0x0, symName: __ZNSt3__16__moveB7v160006INS_17_ClassicAlgPolicyENS_16reverse_iteratorIPP8PyObjectEES6_S6_EENS_4pairIT0_T2_EES8_T1_S9_, symObjAddr: 0x9098, symBinAddr: 0x100024080, symSize: 0x64 }
  - { offsetInCU: 0x11DAF, offset: 0x5BBBA, size: 0x8, addend: 0x0, symName: __ZNSt3__123__dispatch_copy_or_moveB7v160006INS_17_ClassicAlgPolicyENS_11__move_loopIS1_EENS_14__move_trivialENS_16reverse_iteratorIPP8PyObjectEES9_S9_EENS_4pairIT2_T4_EESB_T3_SC_, symObjAddr: 0x90FC, symBinAddr: 0x1000240E4, symSize: 0x64 }
  - { offsetInCU: 0x11E31, offset: 0x5BC3C, size: 0x8, addend: 0x0, symName: __ZNSt3__121__unwrap_and_dispatchB7v160006INS_10__overloadINS_11__move_loopINS_17_ClassicAlgPolicyEEENS_14__move_trivialEEENS_16reverse_iteratorIPP8PyObjectEESB_SB_Li0EEENS_4pairIT0_T2_EESD_T1_SE_, symObjAddr: 0x9160, symBinAddr: 0x100024148, symSize: 0x12C }
  - { offsetInCU: 0x11EC7, offset: 0x5BCD2, size: 0x8, addend: 0x0, symName: __ZNSt3__114__unwrap_rangeB7v160006INS_16reverse_iteratorIPP8PyObjectEES5_EEDaT_T0_, symObjAddr: 0x928C, symBinAddr: 0x100024274, symSize: 0x4C }
  - { offsetInCU: 0x11FEA, offset: 0x5BDF5, size: 0x8, addend: 0x0, symName: __ZNSt3__113__unwrap_iterB7v160006INS_16reverse_iteratorIPP8PyObjectEENS_18__unwrap_iter_implIS5_Lb0EEELi0EEEDTclsrT0_8__unwrapclsr3stdE7declvalIT_EEEES9_, symObjAddr: 0x9378, symBinAddr: 0x100024360, symSize: 0x44 }
  - { offsetInCU: 0x1202F, offset: 0x5BE3A, size: 0x8, addend: 0x0, symName: __ZNSt3__19make_pairB7v160006INS_16reverse_iteratorIPP8PyObjectEES5_EENS_4pairINS_18__unwrap_ref_decayIT_E4typeENS7_IT0_E4typeEEEOS8_OSB_, symObjAddr: 0x93BC, symBinAddr: 0x1000243A4, symSize: 0x38 }
  - { offsetInCU: 0x1207F, offset: 0x5BE8A, size: 0x8, addend: 0x0, symName: __ZNSt3__114__rewrap_rangeB7v160006INS_16reverse_iteratorIPP8PyObjectEES5_S5_EET0_S6_T1_, symObjAddr: 0x93F4, symBinAddr: 0x1000243DC, symSize: 0x5C }
  - { offsetInCU: 0x120D7, offset: 0x5BEE2, size: 0x8, addend: 0x0, symName: __ZNSt3__113__rewrap_iterB7v160006INS_16reverse_iteratorIPP8PyObjectEES5_NS_18__unwrap_iter_implIS5_Lb0EEEEET_S8_T0_, symObjAddr: 0x9450, symBinAddr: 0x100024438, symSize: 0x74 }
  - { offsetInCU: 0x1217F, offset: 0x5BF8A, size: 0x8, addend: 0x0, symName: __ZNSt3__1neB7v160006IPP8PyObjectS3_EEbRKNS_16reverse_iteratorIT_EERKNS4_IT0_EE, symObjAddr: 0x95B8, symBinAddr: 0x1000245A0, symSize: 0x48 }
  - { offsetInCU: 0x1223A, offset: 0x5C045, size: 0x8, addend: 0x0, symName: __ZNSt3__1eqB7v160006IPP7AstNodeEEbRKNS_11__wrap_iterIT_EES8_, symObjAddr: 0x9D0C, symBinAddr: 0x100024C24, symSize: 0x48 }
  - { offsetInCU: 0x12280, offset: 0x5C08B, size: 0x8, addend: 0x0, symName: __ZNSt3__1eqB7v160006IPNS_4pairIP7AstNodeS3_EEEEbRKNS_11__wrap_iterIT_EESA_, symObjAddr: 0x9FA4, symBinAddr: 0x100024E98, symSize: 0x48 }
  - { offsetInCU: 0x122C6, offset: 0x5C0D1, size: 0x8, addend: 0x0, symName: __ZNSt3__122__make_exception_guardB7v160006INS_6vectorIP8PyObjectNS_9allocatorIS3_EEE16__destroy_vectorEEENS_28__exception_guard_exceptionsIT_EES9_, symObjAddr: 0xA164, symBinAddr: 0x100025058, symSize: 0x40 }
  - { offsetInCU: 0x122FD, offset: 0x5C108, size: 0x8, addend: 0x0, symName: __ZNSt3__119__debug_db_insert_cB7v160006INS_6vectorIP8PyObjectNS_9allocatorIS3_EEEEEEvPT_, symObjAddr: 0xA1D8, symBinAddr: 0x100025098, symSize: 0x10 }
  - { offsetInCU: 0x1232F, offset: 0x5C13A, size: 0x8, addend: 0x0, symName: __ZNSt3__130__uninitialized_allocator_copyB7v160006INS_9allocatorIP8PyObjectEES3_S3_LPv0EEEPT0_RT_PKS6_SB_S7_, symObjAddr: 0xA4DC, symBinAddr: 0x10002537C, symSize: 0x38 }
  - { offsetInCU: 0x123A8, offset: 0x5C1B3, size: 0x8, addend: 0x0, symName: __ZNSt3__14copyB7v160006IPKP8PyObjectPS2_EET0_T_S7_S6_, symObjAddr: 0xA514, symBinAddr: 0x1000253B4, symSize: 0x40 }
  - { offsetInCU: 0x12406, offset: 0x5C211, size: 0x8, addend: 0x0, symName: __ZNSt3__16__copyB7v160006INS_17_ClassicAlgPolicyEPKP8PyObjectS5_PS3_EENS_4pairIT0_T2_EES8_T1_S9_, symObjAddr: 0xA554, symBinAddr: 0x1000253F4, symSize: 0x44 }
  - { offsetInCU: 0x12476, offset: 0x5C281, size: 0x8, addend: 0x0, symName: __ZNSt3__123__dispatch_copy_or_moveB7v160006INS_17_ClassicAlgPolicyENS_11__copy_loopIS1_EENS_14__copy_trivialEPKP8PyObjectS8_PS6_EENS_4pairIT2_T4_EESB_T3_SC_, symObjAddr: 0xA598, symBinAddr: 0x100025438, symSize: 0x44 }
  - { offsetInCU: 0x124F8, offset: 0x5C303, size: 0x8, addend: 0x0, symName: __ZNSt3__121__unwrap_and_dispatchB7v160006INS_10__overloadINS_11__copy_loopINS_17_ClassicAlgPolicyEEENS_14__copy_trivialEEEPKP8PyObjectSA_PS8_Li0EEENS_4pairIT0_T2_EESD_T1_SE_, symObjAddr: 0xA5DC, symBinAddr: 0x10002547C, symSize: 0xB4 }
  - { offsetInCU: 0x1258C, offset: 0x5C397, size: 0x8, addend: 0x0, symName: __ZNSt3__114__unwrap_rangeB7v160006IPKP8PyObjectS4_EEDaT_T0_, symObjAddr: 0xA690, symBinAddr: 0x100025530, symSize: 0x3C }
  - { offsetInCU: 0x12723, offset: 0x5C52E, size: 0x8, addend: 0x0, symName: __ZNSt3__19make_pairB7v160006IPKP8PyObjectPS2_EENS_4pairINS_18__unwrap_ref_decayIT_E4typeENS7_IT0_E4typeEEEOS8_OSB_, symObjAddr: 0xA714, symBinAddr: 0x1000255B4, symSize: 0x38 }
  - { offsetInCU: 0x12773, offset: 0x5C57E, size: 0x8, addend: 0x0, symName: __ZNSt3__114__rewrap_rangeB7v160006IPKP8PyObjectS4_S4_EET0_S5_T1_, symObjAddr: 0xA74C, symBinAddr: 0x1000255EC, symSize: 0x2C }
  - { offsetInCU: 0x128E7, offset: 0x5C6F2, size: 0x8, addend: 0x0, symName: __ZNSt3__113__unwrap_iterB7v160006IPKP8PyObjectNS_18__unwrap_iter_implIS4_Lb1EEELi0EEEDTclsrT0_8__unwrapclsr3stdE7declvalIT_EEEES8_, symObjAddr: 0xA7D0, symBinAddr: 0x100025670, symSize: 0x24 }
  - { offsetInCU: 0x12980, offset: 0x5C78B, size: 0x8, addend: 0x0, symName: __ZNSt3__112__to_addressB7v160006IKP8PyObjectEEPT_S5_, symObjAddr: 0xA854, symBinAddr: 0x1000256F4, symSize: 0x14 }
  - { offsetInCU: 0x129B7, offset: 0x5C7C2, size: 0x8, addend: 0x0, symName: __ZNSt3__119__copy_trivial_implB7v160006IKP8PyObjectS2_EENS_4pairIPT_PT0_EES6_S6_S8_, symObjAddr: 0xA89C, symBinAddr: 0x10002573C, symSize: 0x84 }
  - { offsetInCU: 0x12A23, offset: 0x5C82E, size: 0x8, addend: 0x0, symName: __ZNSt3__19make_pairB7v160006IRPKP8PyObjectPS2_EENS_4pairINS_18__unwrap_ref_decayIT_E4typeENS8_IT0_E4typeEEEOS9_OSC_, symObjAddr: 0xA920, symBinAddr: 0x1000257C0, symSize: 0x38 }
  - { offsetInCU: 0x12A73, offset: 0x5C87E, size: 0x8, addend: 0x0, symName: __ZNSt3__113__rewrap_iterB7v160006IPKP8PyObjectS4_NS_18__unwrap_iter_implIS4_Lb1EEEEET_S7_T0_, symObjAddr: 0xAA64, symBinAddr: 0x100025904, symSize: 0x3C }
  - { offsetInCU: 0x12ACA, offset: 0x5C8D5, size: 0x8, addend: 0x0, symName: __ZNSt3__130__uninitialized_allocator_copyB7v160006INS_9allocatorIP8PyObjectEEPS3_S5_S5_EET2_RT_T0_T1_S6_, symObjAddr: 0xAEE4, symBinAddr: 0x100025C24, symSize: 0xF4 }
  - { offsetInCU: 0x12B69, offset: 0x5C974, size: 0x8, addend: 0x0, symName: __ZNSt3__122__make_exception_guardB7v160006INS_29_AllocatorDestroyRangeReverseINS_9allocatorIP8PyObjectEEPS4_EEEENS_28__exception_guard_exceptionsIT_EES9_, symObjAddr: 0xAFD8, symBinAddr: 0x100025D18, symSize: 0x4C }
  - { offsetInCU: 0x12BA1, offset: 0x5C9AC, size: 0x8, addend: 0x0, symName: __ZNSt3__112construct_atB7v160006IP8PyObjectJRS2_EPS2_EEPT_S6_DpOT0_, symObjAddr: 0xB17C, symBinAddr: 0x100025EBC, symSize: 0x2C }
  - { offsetInCU: 0x12C16, offset: 0x5CA21, size: 0x8, addend: 0x0, symName: __ZNSt3__119__allocator_destroyB7v160006INS_9allocatorIP8PyObjectEENS_16reverse_iteratorIPS3_EES7_EEvRT_T0_T1_, symObjAddr: 0xB260, symBinAddr: 0x100025FA0, symSize: 0x70 }
  - { offsetInCU: 0x12C79, offset: 0x5CA84, size: 0x8, addend: 0x0, symName: __ZNSt3__112__to_addressB7v160006INS_16reverse_iteratorIPP8PyObjectEEvEENS_5decayIDTclsr19__to_address_helperIT_EE6__callclsr3stdE7declvalIRKS7_EEEEE4typeES9_, symObjAddr: 0xB2D0, symBinAddr: 0x100026010, symSize: 0x24 }
  - { offsetInCU: 0x12CDA, offset: 0x5CAE5, size: 0x8, addend: 0x0, symName: __ZNSt3__14prevB7v160006IPP8PyObjectEENS_9enable_ifIXsr25__is_cpp17_input_iteratorIT_EE5valueES5_E4typeES5_NS_15iterator_traitsIS5_E15difference_typeE, symObjAddr: 0xB358, symBinAddr: 0x100026098, symSize: 0x50 }
  - { offsetInCU: 0x12D20, offset: 0x5CB2B, size: 0x8, addend: 0x0, symName: __ZNSt3__19__advanceB7v160006IPP8PyObjectEEvRT_NS_15iterator_traitsIS4_E15difference_typeENS_26random_access_iterator_tagE, symObjAddr: 0xB40C, symBinAddr: 0x100026138, symSize: 0x28 }
  - { offsetInCU: 0x12E22, offset: 0x5CC2D, size: 0x8, addend: 0x0, symName: '__ZNSt3__116forward_as_tupleB7v160006IJZN11InterpreterC1EvE3$_0EEENS_5tupleIJDpOT_EEES6_', symObjAddr: 0xCA84, symBinAddr: 0x100026D0C, symSize: 0x2C }
  - { offsetInCU: 0x12E5C, offset: 0x5CC67, size: 0x8, addend: 0x0, symName: '__ZNSt3__116forward_as_tupleB7v160006IJNS_9allocatorIZN11InterpreterC1EvE3$_0EEEEENS_5tupleIJDpOT_EEES8_', symObjAddr: 0xCAB0, symBinAddr: 0x100026D38, symSize: 0x2C }
  - { offsetInCU: 0x12EDB, offset: 0x5CCE6, size: 0x8, addend: 0x0, symName: '__ZNSt3__13getB7v160006ILm0EJOZN11InterpreterC1EvE3$_0EEERNS_13tuple_elementIXT_ENS_5tupleIJDpT0_EEEE4typeERS8_', symObjAddr: 0xCDBC, symBinAddr: 0x100027044, symSize: 0x24 }
  - { offsetInCU: 0x12F1F, offset: 0x5CD2A, size: 0x8, addend: 0x0, symName: '__ZNSt3__13getB7v160006ILm0EJONS_9allocatorIZN11InterpreterC1EvE3$_0EEEEERNS_13tuple_elementIXT_ENS_5tupleIJDpT0_EEEE4typeERSA_', symObjAddr: 0xCDF8, symBinAddr: 0x100027080, symSize: 0x24 }
  - { offsetInCU: 0x1346D, offset: 0x5D278, size: 0x8, addend: 0x0, symName: '__ZNSt3__116forward_as_tupleB7v160006IJRKZN11InterpreterC1EvE3$_0EEENS_5tupleIJDpOT_EEES8_', symObjAddr: 0xD37C, symBinAddr: 0x100027604, symSize: 0x2C }
  - { offsetInCU: 0x134BC, offset: 0x5D2C7, size: 0x8, addend: 0x0, symName: '__ZNSt3__13getB7v160006ILm0EJRKZN11InterpreterC1EvE3$_0EEERNS_13tuple_elementIXT_ENS_5tupleIJDpT0_EEEE4typeERS9_', symObjAddr: 0xD560, symBinAddr: 0x1000277E8, symSize: 0x24 }
  - { offsetInCU: 0x13500, offset: 0x5D30B, size: 0x8, addend: 0x0, symName: '__ZNSt3__116forward_as_tupleB7v160006IJRKNS_9allocatorIZN11InterpreterC1EvE3$_0EEEEENS_5tupleIJDpOT_EEESA_', symObjAddr: 0xD8BC, symBinAddr: 0x100027B44, symSize: 0x2C }
  - { offsetInCU: 0x1354F, offset: 0x5D35A, size: 0x8, addend: 0x0, symName: '__ZNSt3__13getB7v160006ILm0EJRKNS_9allocatorIZN11InterpreterC1EvE3$_0EEEEERNS_13tuple_elementIXT_ENS_5tupleIJDpT0_EEEE4typeERSB_', symObjAddr: 0xDAA0, symBinAddr: 0x100027D28, symSize: 0x24 }
  - { offsetInCU: 0x135E3, offset: 0x5D3EE, size: 0x8, addend: 0x0, symName: '__ZNSt3__18__invokeB7v160006IRZN11InterpreterC1EvE3$_0JRNS_6vectorIP8PyObjectNS_9allocatorIS6_EEEEPS1_EEEDTclclsr3stdE7declvalIT_EEspclsr3stdE7declvalIT0_EEEEOSC_DpOSD_', symObjAddr: 0xDB7C, symBinAddr: 0x100027E04, symSize: 0x84 }
  - { offsetInCU: 0x13997, offset: 0x5D7A2, size: 0x8, addend: 0x0, symName: __ZNSt3__17getlineB7v160006IcNS_11char_traitsIcEENS_9allocatorIcEEEERNS_13basic_istreamIT_T0_EES9_RNS_12basic_stringIS6_S7_T1_EE, symObjAddr: 0xDFB4, symBinAddr: 0x1000281F4, symSize: 0x5C }
  - { offsetInCU: 0x139EF, offset: 0x5D7FA, size: 0x8, addend: 0x0, symName: __ZNSt3__17getlineB7v160006IcNS_11char_traitsIcEENS_9allocatorIcEEEERNS_13basic_istreamIT_T0_EES9_RNS_12basic_stringIS6_S7_T1_EES6_, symObjAddr: 0xE2B0, symBinAddr: 0x100028444, symSize: 0x238 }
  - { offsetInCU: 0x1403A, offset: 0x5DE45, size: 0x8, addend: 0x0, symName: __ZNSt3__125__debug_db_invalidate_allB7v160006INS_12basic_stringIcNS_11char_traitsIcEENS_9allocatorIcEEEEEEvPT_, symObjAddr: 0xE7CC, symBinAddr: 0x10002887C, symSize: 0x10 }
  - { offsetInCU: 0x19384, offset: 0x6318F, size: 0x8, addend: 0x0, symName: __ZNSt3__16vectorIP5ScopeNS_9allocatorIS2_EEE26__swap_out_circular_bufferERNS_14__split_bufferIS2_RS4_EE, symObjAddr: 0x5638, symBinAddr: 0x10002130C, symSize: 0x118 }
  - { offsetInCU: 0x19401, offset: 0x6320C, size: 0x8, addend: 0x0, symName: __ZNSt3__16vectorIP8PyObjectNS_9allocatorIS2_EEE26__swap_out_circular_bufferERNS_14__split_bufferIS2_RS4_EEPS2_, symObjAddr: 0x7914, symBinAddr: 0x100022AE8, symSize: 0x154 }
  - { offsetInCU: 0x194CA, offset: 0x632D5, size: 0x8, addend: 0x0, symName: __ZNSt3__16vectorIP8PyObjectNS_9allocatorIS2_EEE26__swap_out_circular_bufferERNS_14__split_bufferIS2_RS4_EE, symObjAddr: 0xB594, symBinAddr: 0x1000261B4, symSize: 0x118 }
  - { offsetInCU: 0x1950D, offset: 0x63318, size: 0x8, addend: 0x0, symName: __ZN11InterpreterC1Ev, symObjAddr: 0x424, symBinAddr: 0x10001C2F0, symSize: 0x2C }
  - { offsetInCU: 0x1B648, offset: 0x65453, size: 0x8, addend: 0x0, symName: __ZN11InterpreterC2Ev, symObjAddr: 0x0, symBinAddr: 0x10001BF58, symSize: 0x25C }
  - { offsetInCU: 0x1B69A, offset: 0x654A5, size: 0x8, addend: 0x0, symName: __ZN11NodeVisitorC2Ev, symObjAddr: 0x25C, symBinAddr: 0x10001C1B4, symSize: 0x24 }
  - { offsetInCU: 0x1B6C7, offset: 0x654D2, size: 0x8, addend: 0x0, symName: __ZN16GarbageCollectorC1Ev, symObjAddr: 0x280, symBinAddr: 0x10001C1D8, symSize: 0x2C }
  - { offsetInCU: 0x1B6F1, offset: 0x654FC, size: 0x8, addend: 0x0, symName: __ZNSt3__16vectorIP5ScopeNS_9allocatorIS2_EEEC1B7v160006Ev, symObjAddr: 0x2AC, symBinAddr: 0x10001C204, symSize: 0x2C }
  - { offsetInCU: 0x1B71B, offset: 0x65526, size: 0x8, addend: 0x0, symName: __ZN5ScopeC1EPS_, symObjAddr: 0x2D8, symBinAddr: 0x10001C230, symSize: 0x34 }
  - { offsetInCU: 0x1B754, offset: 0x6555F, size: 0x8, addend: 0x0, symName: __ZN11Interpreter11pushContextEP5Scope, symObjAddr: 0x30C, symBinAddr: 0x10001C264, symSize: 0x34 }
  - { offsetInCU: 0x1B78F, offset: 0x6559A, size: 0x8, addend: 0x0, symName: '__ZNSt3__18functionIFP8PyObjectRNS_6vectorIS2_NS_9allocatorIS2_EEEEP11InterpreterEEC1IZNS8_C1EvE3$_0vEET_', symObjAddr: 0x374, symBinAddr: 0x10001C298, symSize: 0x2C }
  - { offsetInCU: 0x1B7D4, offset: 0x655DF, size: 0x8, addend: 0x0, symName: __ZNSt3__18functionIFP8PyObjectRNS_6vectorIS2_NS_9allocatorIS2_EEEEP11InterpreterEED1Ev, symObjAddr: 0x3A0, symBinAddr: 0x10001C2C4, symSize: 0x2C }
  - { offsetInCU: 0x1B800, offset: 0x6560B, size: 0x8, addend: 0x0, symName: __ZN11Interpreter9interpretEP11ProgramNode, symObjAddr: 0x450, symBinAddr: 0x10001C31C, symSize: 0x38 }
  - { offsetInCU: 0x1B837, offset: 0x65642, size: 0x8, addend: 0x0, symName: __ZN11Interpreter7resolveERKNSt3__112basic_stringIcNS0_11char_traitsIcEENS0_9allocatorIcEEEEP8PyObjectNS0_6vectorISA_NS4_ISA_EEEE, symObjAddr: 0x488, symBinAddr: 0x10001C354, symSize: 0xEC }
  - { offsetInCU: 0x1B8B9, offset: 0x656C4, size: 0x8, addend: 0x0, symName: __ZN15PyMethodWrapper4callERNSt3__16vectorIP8PyObjectNS0_9allocatorIS3_EEEEP11Interpreter, symObjAddr: 0x574, symBinAddr: 0x10001C440, symSize: 0x94 }
  - { offsetInCU: 0x1B8FD, offset: 0x65708, size: 0x8, addend: 0x0, symName: __ZN11Interpreter14visitPrintNodeEP9PrintNode, symObjAddr: 0x608, symBinAddr: 0x10001C4D4, symSize: 0x100 }
  - { offsetInCU: 0x1B943, offset: 0x6574E, size: 0x8, addend: 0x0, symName: __ZN11Interpreter9getStringEP8PyObject, symObjAddr: 0x754, symBinAddr: 0x10001C5D4, symSize: 0xC4 }
  - { offsetInCU: 0x1B989, offset: 0x65794, size: 0x8, addend: 0x0, symName: __ZN11Interpreter12visitIntNodeEP7IntNode, symObjAddr: 0x8A0, symBinAddr: 0x10001C698, symSize: 0x8C }
  - { offsetInCU: 0x1B9DE, offset: 0x657E9, size: 0x8, addend: 0x0, symName: __ZN7IntNode10get_lexemeEv, symObjAddr: 0x92C, symBinAddr: 0x10001C724, symSize: 0x18 }
  - { offsetInCU: 0x1BA04, offset: 0x6580F, size: 0x8, addend: 0x0, symName: __ZN11Interpreter14visitFloatNodeEP9FloatNode, symObjAddr: 0x944, symBinAddr: 0x10001C73C, symSize: 0x8C }
  - { offsetInCU: 0x1BA59, offset: 0x65864, size: 0x8, addend: 0x0, symName: __ZN9FloatNode10get_lexemeEv, symObjAddr: 0x9D0, symBinAddr: 0x10001C7C8, symSize: 0x18 }
  - { offsetInCU: 0x1BA7F, offset: 0x6588A, size: 0x8, addend: 0x0, symName: __ZN11Interpreter17visitFunctionNodeEP12FunctionNode, symObjAddr: 0x9E8, symBinAddr: 0x10001C7E0, symSize: 0xE0 }
  - { offsetInCU: 0x1BAD4, offset: 0x658DF, size: 0x8, addend: 0x0, symName: __ZNK12FunctionNode8get_nameEv, symObjAddr: 0xAC8, symBinAddr: 0x10001C8C0, symSize: 0x18 }
  - { offsetInCU: 0x1BAFA, offset: 0x65905, size: 0x8, addend: 0x0, symName: __ZN11Interpreter14currentContextEv, symObjAddr: 0xAE0, symBinAddr: 0x10001C8D8, symSize: 0x58 }
  - { offsetInCU: 0x1BB20, offset: 0x6592B, size: 0x8, addend: 0x0, symName: __ZN11Interpreter15defineOnContextERKNSt3__112basic_stringIcNS0_11char_traitsIcEENS0_9allocatorIcEEEEP8PyObject, symObjAddr: 0xB38, symBinAddr: 0x10001C930, symSize: 0xBC }
  - { offsetInCU: 0x1BB81, offset: 0x6598C, size: 0x8, addend: 0x0, symName: __ZN11Interpreter14visitClassNodeEP9ClassNode, symObjAddr: 0xBF4, symBinAddr: 0x10001C9EC, symSize: 0x130 }
  - { offsetInCU: 0x1BBF4, offset: 0x659FF, size: 0x8, addend: 0x0, symName: __ZNK9ClassNode8get_bodyEv, symObjAddr: 0xD24, symBinAddr: 0x10001CB1C, symSize: 0x18 }
  - { offsetInCU: 0x1BC1A, offset: 0x65A25, size: 0x8, addend: 0x0, symName: __ZN11Interpreter10popContextEv, symObjAddr: 0xD3C, symBinAddr: 0x10001CB34, symSize: 0x9C }
  - { offsetInCU: 0x1BC40, offset: 0x65A4B, size: 0x8, addend: 0x0, symName: __ZNK9ClassNode8get_nameEv, symObjAddr: 0xDD8, symBinAddr: 0x10001CBD0, symSize: 0x18 }
  - { offsetInCU: 0x1BC66, offset: 0x65A71, size: 0x8, addend: 0x0, symName: __ZN11Interpreter17visitPropertyNodeEP12PropertyNode, symObjAddr: 0xDF0, symBinAddr: 0x10001CBE8, symSize: 0xA0 }
  - { offsetInCU: 0x1BCCA, offset: 0x65AD5, size: 0x8, addend: 0x0, symName: __ZN8NameNode10get_lexemeEv, symObjAddr: 0xE90, symBinAddr: 0x10001CC88, symSize: 0x18 }
  - { offsetInCU: 0x1BCF0, offset: 0x65AFB, size: 0x8, addend: 0x0, symName: __ZN11Interpreter14visitBlockNodeEP9BlockNode, symObjAddr: 0xEA8, symBinAddr: 0x10001CCA0, symSize: 0xD4 }
  - { offsetInCU: 0x1BD79, offset: 0x65B84, size: 0x8, addend: 0x0, symName: __ZNSt3__16vectorIP7AstNodeNS_9allocatorIS2_EEE5beginB7v160006Ev, symObjAddr: 0xF7C, symBinAddr: 0x10001CD74, symSize: 0x30 }
  - { offsetInCU: 0x1BDA1, offset: 0x65BAC, size: 0x8, addend: 0x0, symName: __ZNSt3__16vectorIP7AstNodeNS_9allocatorIS2_EEE3endB7v160006Ev, symObjAddr: 0xFAC, symBinAddr: 0x10001CDA4, symSize: 0x30 }
  - { offsetInCU: 0x1BDC9, offset: 0x65BD4, size: 0x8, addend: 0x0, symName: __ZNKSt3__111__wrap_iterIPP7AstNodeEdeB7v160006Ev, symObjAddr: 0x1010, symBinAddr: 0x10001CE08, symSize: 0x18 }
  - { offsetInCU: 0x1BDEF, offset: 0x65BFA, size: 0x8, addend: 0x0, symName: __ZNSt3__111__wrap_iterIPP7AstNodeEppB7v160006Ev, symObjAddr: 0x1028, symBinAddr: 0x10001CE20, symSize: 0x20 }
  - { offsetInCU: 0x1BE15, offset: 0x65C20, size: 0x8, addend: 0x0, symName: __ZN11Interpreter14visitWhileNodeEP9WhileNode, symObjAddr: 0x1048, symBinAddr: 0x10001CE40, symSize: 0x138 }
  - { offsetInCU: 0x1BE80, offset: 0x65C8B, size: 0x8, addend: 0x0, symName: __ZN11Interpreter8isTruthyEP8PyObject, symObjAddr: 0x1180, symBinAddr: 0x10001CF78, symSize: 0x288 }
  - { offsetInCU: 0x1BF0A, offset: 0x65D15, size: 0x8, addend: 0x0, symName: __ZN11Interpreter14visitBreakNodeEP9BreakNode, symObjAddr: 0x1408, symBinAddr: 0x10001D200, symSize: 0x64 }
  - { offsetInCU: 0x1BF7E, offset: 0x65D89, size: 0x8, addend: 0x0, symName: __ZN14BreakExceptionC1Ev, symObjAddr: 0x146C, symBinAddr: 0x10001D264, symSize: 0x2C }
  - { offsetInCU: 0x1BFA8, offset: 0x65DB3, size: 0x8, addend: 0x0, symName: __ZN14BreakExceptionD1Ev, symObjAddr: 0x1498, symBinAddr: 0x10001D290, symSize: 0x2C }
  - { offsetInCU: 0x1BFD4, offset: 0x65DDF, size: 0x8, addend: 0x0, symName: __ZN11Interpreter17visitContinueNodeEP12ContinueNode, symObjAddr: 0x14C4, symBinAddr: 0x10001D2BC, symSize: 0x64 }
  - { offsetInCU: 0x1C048, offset: 0x65E53, size: 0x8, addend: 0x0, symName: __ZN17ContinueExceptionC1Ev, symObjAddr: 0x1528, symBinAddr: 0x10001D320, symSize: 0x2C }
  - { offsetInCU: 0x1C072, offset: 0x65E7D, size: 0x8, addend: 0x0, symName: __ZN17ContinueExceptionD1Ev, symObjAddr: 0x1554, symBinAddr: 0x10001D34C, symSize: 0x2C }
  - { offsetInCU: 0x1C09E, offset: 0x65EA9, size: 0x8, addend: 0x0, symName: __ZN11Interpreter13visitPassNodeEP8PassNode, symObjAddr: 0x1580, symBinAddr: 0x10001D378, symSize: 0x5C }
  - { offsetInCU: 0x1C0D5, offset: 0x65EE0, size: 0x8, addend: 0x0, symName: __ZN11Interpreter11visitIfNodeEP6IfNode, symObjAddr: 0x15DC, symBinAddr: 0x10001D3D4, symSize: 0x1A8 }
  - { offsetInCU: 0x1C18A, offset: 0x65F95, size: 0x8, addend: 0x0, symName: __ZNSt3__16vectorINS_4pairIP7AstNodeS3_EENS_9allocatorIS4_EEE5beginB7v160006Ev, symObjAddr: 0x1784, symBinAddr: 0x10001D57C, symSize: 0x30 }
  - { offsetInCU: 0x1C1B2, offset: 0x65FBD, size: 0x8, addend: 0x0, symName: __ZNSt3__16vectorINS_4pairIP7AstNodeS3_EENS_9allocatorIS4_EEE3endB7v160006Ev, symObjAddr: 0x17B4, symBinAddr: 0x10001D5AC, symSize: 0x30 }
  - { offsetInCU: 0x1C1DA, offset: 0x65FE5, size: 0x8, addend: 0x0, symName: __ZNKSt3__111__wrap_iterIPNS_4pairIP7AstNodeS3_EEEdeB7v160006Ev, symObjAddr: 0x1818, symBinAddr: 0x10001D610, symSize: 0x18 }
  - { offsetInCU: 0x1C200, offset: 0x6600B, size: 0x8, addend: 0x0, symName: __ZNSt3__111__wrap_iterIPNS_4pairIP7AstNodeS3_EEEppB7v160006Ev, symObjAddr: 0x1830, symBinAddr: 0x10001D628, symSize: 0x20 }
  - { offsetInCU: 0x1C226, offset: 0x66031, size: 0x8, addend: 0x0, symName: __ZN11Interpreter18visitTernaryOpNodeEP13TernaryOpNode, symObjAddr: 0x1850, symBinAddr: 0x10001D648, symSize: 0x9C }
  - { offsetInCU: 0x1C26C, offset: 0x66077, size: 0x8, addend: 0x0, symName: __ZN11Interpreter17visitBinaryOpNodeEP12BinaryOpNode, symObjAddr: 0x18EC, symBinAddr: 0x10001D6E4, symSize: 0x179C }
  - { offsetInCU: 0x1C416, offset: 0x66221, size: 0x8, addend: 0x0, symName: __ZNSt3__16vectorIP8PyObjectNS_9allocatorIS2_EEEC1B7v160006ESt16initializer_listIS2_E, symObjAddr: 0x30EC, symBinAddr: 0x10001EEE4, symSize: 0x3C }
  - { offsetInCU: 0x1C451, offset: 0x6625C, size: 0x8, addend: 0x0, symName: __ZNSt3__16vectorIP8PyObjectNS_9allocatorIS2_EEEC1ERKS5_, symObjAddr: 0x3128, symBinAddr: 0x10001EF20, symSize: 0x34 }
  - { offsetInCU: 0x1C48C, offset: 0x66297, size: 0x8, addend: 0x0, symName: __ZN11Interpreter15visitAssignNodeEP10AssignNode, symObjAddr: 0x3194, symBinAddr: 0x10001EF54, symSize: 0x9AC }
  - { offsetInCU: 0x1C55E, offset: 0x66369, size: 0x8, addend: 0x0, symName: __ZN7AstNode12is_name_nodeEv, symObjAddr: 0x3B94, symBinAddr: 0x10001F928, symSize: 0x24 }
  - { offsetInCU: 0x1C584, offset: 0x6638F, size: 0x8, addend: 0x0, symName: __ZN7AstNode16is_property_nodeEv, symObjAddr: 0x3BB8, symBinAddr: 0x10001F94C, symSize: 0x24 }
  - { offsetInCU: 0x1C5AA, offset: 0x663B5, size: 0x8, addend: 0x0, symName: __ZN11Interpreter13visitNameNodeEP8NameNode, symObjAddr: 0x3BDC, symBinAddr: 0x10001F970, symSize: 0x44 }
  - { offsetInCU: 0x1C5F1, offset: 0x663FC, size: 0x8, addend: 0x0, symName: __ZN11Interpreter14getFromContextERKNSt3__112basic_stringIcNS0_11char_traitsIcEENS0_9allocatorIcEEEE, symObjAddr: 0x3C20, symBinAddr: 0x10001F9B4, symSize: 0xB0 }
  - { offsetInCU: 0x1C643, offset: 0x6644E, size: 0x8, addend: 0x0, symName: __ZN11Interpreter16visitBooleanNodeEP11BooleanNode, symObjAddr: 0x3CD0, symBinAddr: 0x10001FA64, symSize: 0x98 }
  - { offsetInCU: 0x1C699, offset: 0x664A4, size: 0x8, addend: 0x0, symName: __ZN11Interpreter15visitStringNodeEP10StringNode, symObjAddr: 0x3D68, symBinAddr: 0x10001FAFC, symSize: 0x8C }
  - { offsetInCU: 0x1C6EF, offset: 0x664FA, size: 0x8, addend: 0x0, symName: __ZN10StringNode10get_lexemeEv, symObjAddr: 0x3DF4, symBinAddr: 0x10001FB88, symSize: 0x18 }
  - { offsetInCU: 0x1C715, offset: 0x66520, size: 0x8, addend: 0x0, symName: __ZN11Interpreter16visitUnaryOpNodeEP11UnaryOpNode, symObjAddr: 0x3E0C, symBinAddr: 0x10001FBA0, symSize: 0x260 }
  - { offsetInCU: 0x1C76B, offset: 0x66576, size: 0x8, addend: 0x0, symName: __ZNSt3__16vectorIP8PyObjectNS_9allocatorIS2_EEEC1B7v160006Ev, symObjAddr: 0x406C, symBinAddr: 0x10001FE00, symSize: 0x2C }
  - { offsetInCU: 0x1C795, offset: 0x665A0, size: 0x8, addend: 0x0, symName: __ZN11Interpreter13visitNullNodeEP8NullNode, symObjAddr: 0x4098, symBinAddr: 0x10001FE2C, symSize: 0x7C }
  - { offsetInCU: 0x1C7DC, offset: 0x665E7, size: 0x8, addend: 0x0, symName: __ZN11Interpreter13visitCallNodeEP8CallNode, symObjAddr: 0x4114, symBinAddr: 0x10001FEA8, symSize: 0x4B0 }
  - { offsetInCU: 0x1C910, offset: 0x6671B, size: 0x8, addend: 0x0, symName: __ZNSt3__16vectorIP8PyObjectNS_9allocatorIS2_EEE7reserveEm, symObjAddr: 0x45C4, symBinAddr: 0x100020358, symSize: 0xE8 }
  - { offsetInCU: 0x1C96D, offset: 0x66778, size: 0x8, addend: 0x0, symName: __ZNKSt3__16vectorIP7AstNodeNS_9allocatorIS2_EEE4sizeB7v160006Ev, symObjAddr: 0x46AC, symBinAddr: 0x100020440, symSize: 0x28 }
  - { offsetInCU: 0x1C993, offset: 0x6679E, size: 0x8, addend: 0x0, symName: __ZNSt3__16vectorIP8PyObjectNS_9allocatorIS2_EEE9push_backB7v160006EOS2_, symObjAddr: 0x46D4, symBinAddr: 0x100020468, symSize: 0x6C }
  - { offsetInCU: 0x1C9CA, offset: 0x667D5, size: 0x8, addend: 0x0, symName: __ZN11Interpreter15visitReturnNodeEP10ReturnNode, symObjAddr: 0x4740, symBinAddr: 0x1000204D4, symSize: 0x124 }
  - { offsetInCU: 0x1CA20, offset: 0x6682B, size: 0x8, addend: 0x0, symName: __ZN15ReturnExceptionC1EP8PyObject, symObjAddr: 0x4864, symBinAddr: 0x1000205F8, symSize: 0x34 }
  - { offsetInCU: 0x1CA59, offset: 0x66864, size: 0x8, addend: 0x0, symName: __ZN15ReturnExceptionD1Ev, symObjAddr: 0x4898, symBinAddr: 0x10002062C, symSize: 0x2C }
  - { offsetInCU: 0x1CA85, offset: 0x66890, size: 0x8, addend: 0x0, symName: __ZN11Interpreter16visitProgramNodeEP11ProgramNode, symObjAddr: 0x48C4, symBinAddr: 0x100020658, symSize: 0x18 }
  - { offsetInCU: 0x1CABA, offset: 0x668C5, size: 0x8, addend: 0x0, symName: __ZN16GarbageCollectorC2Ev, symObjAddr: 0x48DC, symBinAddr: 0x100020670, symSize: 0x30 }
  - { offsetInCU: 0x1CAE4, offset: 0x668EF, size: 0x8, addend: 0x0, symName: __ZNSt3__16vectorIP5ScopeNS_9allocatorIS2_EEEC2B7v160006Ev, symObjAddr: 0x490C, symBinAddr: 0x1000206A0, symSize: 0x58 }
  - { offsetInCU: 0x1CB1A, offset: 0x66925, size: 0x8, addend: 0x0, symName: __ZNSt3__117__compressed_pairIPP5ScopeNS_9allocatorIS2_EEEC1B7v160006IDnNS_18__default_init_tagEEEOT_OT0_, symObjAddr: 0x4964, symBinAddr: 0x1000206F8, symSize: 0x3C }
  - { offsetInCU: 0x1CB74, offset: 0x6697F, size: 0x8, addend: 0x0, symName: __ZNSt3__117__compressed_pairIPP5ScopeNS_9allocatorIS2_EEEC2B7v160006IDnNS_18__default_init_tagEEEOT_OT0_, symObjAddr: 0x49B0, symBinAddr: 0x100020744, symSize: 0x40 }
  - { offsetInCU: 0x1CBCE, offset: 0x669D9, size: 0x8, addend: 0x0, symName: __ZNSt3__122__compressed_pair_elemIPP5ScopeLi0ELb0EEC2B7v160006IDnvEEOT_, symObjAddr: 0x49F0, symBinAddr: 0x100020784, symSize: 0x1C }
  - { offsetInCU: 0x1CC11, offset: 0x66A1C, size: 0x8, addend: 0x0, symName: __ZNSt3__122__compressed_pair_elemINS_9allocatorIP5ScopeEELi1ELb1EEC2B7v160006ENS_18__default_init_tagE, symObjAddr: 0x4A0C, symBinAddr: 0x1000207A0, symSize: 0x2C }
  - { offsetInCU: 0x1CC46, offset: 0x66A51, size: 0x8, addend: 0x0, symName: __ZNSt3__19allocatorIP5ScopeEC2B7v160006Ev, symObjAddr: 0x4A38, symBinAddr: 0x1000207CC, symSize: 0x2C }
  - { offsetInCU: 0x1CC70, offset: 0x66A7B, size: 0x8, addend: 0x0, symName: __ZNSt3__116__non_trivial_ifILb1ENS_9allocatorIP5ScopeEEEC2B7v160006Ev, symObjAddr: 0x4A64, symBinAddr: 0x1000207F8, symSize: 0x14 }
  - { offsetInCU: 0x1CC9A, offset: 0x66AA5, size: 0x8, addend: 0x0, symName: __ZN5ScopeC2EPS_, symObjAddr: 0x4A78, symBinAddr: 0x10002080C, symSize: 0x38 }
  - { offsetInCU: 0x1CCD3, offset: 0x66ADE, size: 0x8, addend: 0x0, symName: __ZNSt3__113unordered_mapINS_12basic_stringIcNS_11char_traitsIcEENS_9allocatorIcEEEEP8PyObjectNS_4hashIS6_EENS_8equal_toIS6_EENS4_INS_4pairIKS6_S8_EEEEEC1B7v160006Ev, symObjAddr: 0x4AB0, symBinAddr: 0x100020844, symSize: 0x2C }
  - { offsetInCU: 0x1CCFD, offset: 0x66B08, size: 0x8, addend: 0x0, symName: __ZNSt3__113unordered_mapINS_12basic_stringIcNS_11char_traitsIcEENS_9allocatorIcEEEEP8PyObjectNS_4hashIS6_EENS_8equal_toIS6_EENS4_INS_4pairIKS6_S8_EEEEEC2B7v160006Ev, symObjAddr: 0x4ADC, symBinAddr: 0x100020870, symSize: 0x3C }
  - { offsetInCU: 0x1CD27, offset: 0x66B32, size: 0x8, addend: 0x0, symName: __ZNSt3__112__hash_tableINS_17__hash_value_typeINS_12basic_stringIcNS_11char_traitsIcEENS_9allocatorIcEEEEP8PyObjectEENS_22__unordered_map_hasherIS7_SA_NS_4hashIS7_EENS_8equal_toIS7_EELb1EEENS_21__unordered_map_equalIS7_SA_SF_SD_Lb1EEENS5_ISA_EEEC1Ev, symObjAddr: 0x4B18, symBinAddr: 0x1000208AC, symSize: 0x2C }
  - { offsetInCU: 0x1CD53, offset: 0x66B5E, size: 0x8, addend: 0x0, symName: __ZNSt3__112__hash_tableINS_17__hash_value_typeINS_12basic_stringIcNS_11char_traitsIcEENS_9allocatorIcEEEEP8PyObjectEENS_22__unordered_map_hasherIS7_SA_NS_4hashIS7_EENS_8equal_toIS7_EELb1EEENS_21__unordered_map_equalIS7_SA_SF_SD_Lb1EEENS5_ISA_EEEC2Ev, symObjAddr: 0x4B54, symBinAddr: 0x1000208E8, symSize: 0x7C }
  - { offsetInCU: 0x1CD7F, offset: 0x66B8A, size: 0x8, addend: 0x0, symName: __ZNSt3__110unique_ptrIA_PNS_16__hash_node_baseIPNS_11__hash_nodeINS_17__hash_value_typeINS_12basic_stringIcNS_11char_traitsIcEENS_9allocatorIcEEEEP8PyObjectEEPvEEEENS_25__bucket_list_deallocatorINS7_ISH_EEEEEC1B7v160006ILb1EvEEv, symObjAddr: 0x4BD0, symBinAddr: 0x100020964, symSize: 0x2C }
  - { offsetInCU: 0x1CDB4, offset: 0x66BBF, size: 0x8, addend: 0x0, symName: __ZNSt3__117__compressed_pairINS_16__hash_node_baseIPNS_11__hash_nodeINS_17__hash_value_typeINS_12basic_stringIcNS_11char_traitsIcEENS_9allocatorIcEEEEP8PyObjectEEPvEEEENS7_ISE_EEEC1B7v160006ILb1EvEEv, symObjAddr: 0x4BFC, symBinAddr: 0x100020990, symSize: 0x2C }
  - { offsetInCU: 0x1CDE9, offset: 0x66BF4, size: 0x8, addend: 0x0, symName: __ZNSt3__117__compressed_pairImNS_22__unordered_map_hasherINS_12basic_stringIcNS_11char_traitsIcEENS_9allocatorIcEEEENS_17__hash_value_typeIS7_P8PyObjectEENS_4hashIS7_EENS_8equal_toIS7_EELb1EEEEC1B7v160006IiNS_18__default_init_tagEEEOT_OT0_, symObjAddr: 0x4C28, symBinAddr: 0x1000209BC, symSize: 0x3C }
  - { offsetInCU: 0x1CE49, offset: 0x66C54, size: 0x8, addend: 0x0, symName: __ZNSt3__117__compressed_pairIfNS_21__unordered_map_equalINS_12basic_stringIcNS_11char_traitsIcEENS_9allocatorIcEEEENS_17__hash_value_typeIS7_P8PyObjectEENS_8equal_toIS7_EENS_4hashIS7_EELb1EEEEC1B7v160006IfNS_18__default_init_tagEEEOT_OT0_, symObjAddr: 0x4C64, symBinAddr: 0x1000209F8, symSize: 0x3C }
  - { offsetInCU: 0x1CEA3, offset: 0x66CAE, size: 0x8, addend: 0x0, symName: __ZNSt3__110unique_ptrIA_PNS_16__hash_node_baseIPNS_11__hash_nodeINS_17__hash_value_typeINS_12basic_stringIcNS_11char_traitsIcEENS_9allocatorIcEEEEP8PyObjectEEPvEEEENS_25__bucket_list_deallocatorINS7_ISH_EEEEEC2B7v160006ILb1EvEEv, symObjAddr: 0x4CA0, symBinAddr: 0x100020A34, symSize: 0x3C }
  - { offsetInCU: 0x1CEDE, offset: 0x66CE9, size: 0x8, addend: 0x0, symName: __ZNSt3__117__compressed_pairIPPNS_16__hash_node_baseIPNS_11__hash_nodeINS_17__hash_value_typeINS_12basic_stringIcNS_11char_traitsIcEENS_9allocatorIcEEEEP8PyObjectEEPvEEEENS_25__bucket_list_deallocatorINS7_ISH_EEEEEC1B7v160006INS_16__value_init_tagESO_EEOT_OT0_, symObjAddr: 0x4CDC, symBinAddr: 0x100020A70, symSize: 0x3C }
  - { offsetInCU: 0x1CF38, offset: 0x66D43, size: 0x8, addend: 0x0, symName: __ZNSt3__117__compressed_pairIPPNS_16__hash_node_baseIPNS_11__hash_nodeINS_17__hash_value_typeINS_12basic_stringIcNS_11char_traitsIcEENS_9allocatorIcEEEEP8PyObjectEEPvEEEENS_25__bucket_list_deallocatorINS7_ISH_EEEEEC2B7v160006INS_16__value_init_tagESO_EEOT_OT0_, symObjAddr: 0x4D18, symBinAddr: 0x100020AAC, symSize: 0x40 }
  - { offsetInCU: 0x1CF92, offset: 0x66D9D, size: 0x8, addend: 0x0, symName: __ZNSt3__122__compressed_pair_elemIPPNS_16__hash_node_baseIPNS_11__hash_nodeINS_17__hash_value_typeINS_12basic_stringIcNS_11char_traitsIcEENS_9allocatorIcEEEEP8PyObjectEEPvEEEELi0ELb0EEC2B7v160006ENS_16__value_init_tagE, symObjAddr: 0x4D58, symBinAddr: 0x100020AEC, symSize: 0x18 }
  - { offsetInCU: 0x1CFC7, offset: 0x66DD2, size: 0x8, addend: 0x0, symName: __ZNSt3__122__compressed_pair_elemINS_25__bucket_list_deallocatorINS_9allocatorIPNS_16__hash_node_baseIPNS_11__hash_nodeINS_17__hash_value_typeINS_12basic_stringIcNS_11char_traitsIcEENS2_IcEEEEP8PyObjectEEPvEEEEEEEELi1ELb0EEC2B7v160006ENS_16__value_init_tagE, symObjAddr: 0x4D70, symBinAddr: 0x100020B04, symSize: 0x2C }
  - { offsetInCU: 0x1CFFC, offset: 0x66E07, size: 0x8, addend: 0x0, symName: __ZNSt3__125__bucket_list_deallocatorINS_9allocatorIPNS_16__hash_node_baseIPNS_11__hash_nodeINS_17__hash_value_typeINS_12basic_stringIcNS_11char_traitsIcEENS1_IcEEEEP8PyObjectEEPvEEEEEEEC1B7v160006Ev, symObjAddr: 0x4D9C, symBinAddr: 0x100020B30, symSize: 0x2C }
  - { offsetInCU: 0x1D026, offset: 0x66E31, size: 0x8, addend: 0x0, symName: __ZNSt3__125__bucket_list_deallocatorINS_9allocatorIPNS_16__hash_node_baseIPNS_11__hash_nodeINS_17__hash_value_typeINS_12basic_stringIcNS_11char_traitsIcEENS1_IcEEEEP8PyObjectEEPvEEEEEEEC2B7v160006Ev, symObjAddr: 0x4DC8, symBinAddr: 0x100020B5C, symSize: 0x40 }
  - { offsetInCU: 0x1D050, offset: 0x66E5B, size: 0x8, addend: 0x0, symName: __ZNSt3__117__compressed_pairImNS_9allocatorIPNS_16__hash_node_baseIPNS_11__hash_nodeINS_17__hash_value_typeINS_12basic_stringIcNS_11char_traitsIcEENS1_IcEEEEP8PyObjectEEPvEEEEEEEC1B7v160006IiNS_18__default_init_tagEEEOT_OT0_, symObjAddr: 0x4E08, symBinAddr: 0x100020B9C, symSize: 0x3C }
  - { offsetInCU: 0x1D0AA, offset: 0x66EB5, size: 0x8, addend: 0x0, symName: __ZNSt3__117__compressed_pairImNS_9allocatorIPNS_16__hash_node_baseIPNS_11__hash_nodeINS_17__hash_value_typeINS_12basic_stringIcNS_11char_traitsIcEENS1_IcEEEEP8PyObjectEEPvEEEEEEEC2B7v160006IiNS_18__default_init_tagEEEOT_OT0_, symObjAddr: 0x4E44, symBinAddr: 0x100020BD8, symSize: 0x40 }
  - { offsetInCU: 0x1D104, offset: 0x66F0F, size: 0x8, addend: 0x0, symName: __ZNSt3__122__compressed_pair_elemINS_9allocatorIPNS_16__hash_node_baseIPNS_11__hash_nodeINS_17__hash_value_typeINS_12basic_stringIcNS_11char_traitsIcEENS1_IcEEEEP8PyObjectEEPvEEEEEELi1ELb1EEC2B7v160006ENS_18__default_init_tagE, symObjAddr: 0x4EA8, symBinAddr: 0x100020C18, symSize: 0x2C }
  - { offsetInCU: 0x1D139, offset: 0x66F44, size: 0x8, addend: 0x0, symName: __ZNSt3__19allocatorIPNS_16__hash_node_baseIPNS_11__hash_nodeINS_17__hash_value_typeINS_12basic_stringIcNS_11char_traitsIcEENS0_IcEEEEP8PyObjectEEPvEEEEEC2B7v160006Ev, symObjAddr: 0x4ED4, symBinAddr: 0x100020C44, symSize: 0x2C }
  - { offsetInCU: 0x1D163, offset: 0x66F6E, size: 0x8, addend: 0x0, symName: __ZNSt3__116__non_trivial_ifILb1ENS_9allocatorIPNS_16__hash_node_baseIPNS_11__hash_nodeINS_17__hash_value_typeINS_12basic_stringIcNS_11char_traitsIcEENS1_IcEEEEP8PyObjectEEPvEEEEEEEC2B7v160006Ev, symObjAddr: 0x4F00, symBinAddr: 0x100020C70, symSize: 0x14 }
  - { offsetInCU: 0x1D18D, offset: 0x66F98, size: 0x8, addend: 0x0, symName: __ZNSt3__117__compressed_pairINS_16__hash_node_baseIPNS_11__hash_nodeINS_17__hash_value_typeINS_12basic_stringIcNS_11char_traitsIcEENS_9allocatorIcEEEEP8PyObjectEEPvEEEENS7_ISE_EEEC2B7v160006ILb1EvEEv, symObjAddr: 0x4F14, symBinAddr: 0x100020C84, symSize: 0x34 }
  - { offsetInCU: 0x1D1C2, offset: 0x66FCD, size: 0x8, addend: 0x0, symName: __ZNSt3__122__compressed_pair_elemINS_16__hash_node_baseIPNS_11__hash_nodeINS_17__hash_value_typeINS_12basic_stringIcNS_11char_traitsIcEENS_9allocatorIcEEEEP8PyObjectEEPvEEEELi0ELb0EEC2B7v160006ENS_16__value_init_tagE, symObjAddr: 0x4F48, symBinAddr: 0x100020CB8, symSize: 0x2C }
  - { offsetInCU: 0x1D1F7, offset: 0x67002, size: 0x8, addend: 0x0, symName: __ZNSt3__122__compressed_pair_elemINS_9allocatorINS_11__hash_nodeINS_17__hash_value_typeINS_12basic_stringIcNS_11char_traitsIcEENS1_IcEEEEP8PyObjectEEPvEEEELi1ELb1EEC2B7v160006ENS_16__value_init_tagE, symObjAddr: 0x4F74, symBinAddr: 0x100020CE4, symSize: 0x2C }
  - { offsetInCU: 0x1D22C, offset: 0x67037, size: 0x8, addend: 0x0, symName: __ZNSt3__116__hash_node_baseIPNS_11__hash_nodeINS_17__hash_value_typeINS_12basic_stringIcNS_11char_traitsIcEENS_9allocatorIcEEEEP8PyObjectEEPvEEEC1B7v160006Ev, symObjAddr: 0x4FA0, symBinAddr: 0x100020D10, symSize: 0x2C }
  - { offsetInCU: 0x1D256, offset: 0x67061, size: 0x8, addend: 0x0, symName: __ZNSt3__116__hash_node_baseIPNS_11__hash_nodeINS_17__hash_value_typeINS_12basic_stringIcNS_11char_traitsIcEENS_9allocatorIcEEEEP8PyObjectEEPvEEEC2B7v160006Ev, symObjAddr: 0x4FCC, symBinAddr: 0x100020D3C, symSize: 0x18 }
  - { offsetInCU: 0x1D280, offset: 0x6708B, size: 0x8, addend: 0x0, symName: __ZNSt3__19allocatorINS_11__hash_nodeINS_17__hash_value_typeINS_12basic_stringIcNS_11char_traitsIcEENS0_IcEEEEP8PyObjectEEPvEEEC2B7v160006Ev, symObjAddr: 0x4FE4, symBinAddr: 0x100020D54, symSize: 0x2C }
  - { offsetInCU: 0x1D2AA, offset: 0x670B5, size: 0x8, addend: 0x0, symName: __ZNSt3__116__non_trivial_ifILb1ENS_9allocatorINS_11__hash_nodeINS_17__hash_value_typeINS_12basic_stringIcNS_11char_traitsIcEENS1_IcEEEEP8PyObjectEEPvEEEEEC2B7v160006Ev, symObjAddr: 0x5010, symBinAddr: 0x100020D80, symSize: 0x14 }
  - { offsetInCU: 0x1D2D4, offset: 0x670DF, size: 0x8, addend: 0x0, symName: __ZNSt3__117__compressed_pairImNS_22__unordered_map_hasherINS_12basic_stringIcNS_11char_traitsIcEENS_9allocatorIcEEEENS_17__hash_value_typeIS7_P8PyObjectEENS_4hashIS7_EENS_8equal_toIS7_EELb1EEEEC2B7v160006IiNS_18__default_init_tagEEEOT_OT0_, symObjAddr: 0x5024, symBinAddr: 0x100020D94, symSize: 0x40 }
  - { offsetInCU: 0x1D32E, offset: 0x67139, size: 0x8, addend: 0x0, symName: __ZNSt3__122__compressed_pair_elemINS_22__unordered_map_hasherINS_12basic_stringIcNS_11char_traitsIcEENS_9allocatorIcEEEENS_17__hash_value_typeIS7_P8PyObjectEENS_4hashIS7_EENS_8equal_toIS7_EELb1EEELi1ELb1EEC2B7v160006ENS_18__default_init_tagE, symObjAddr: 0x5064, symBinAddr: 0x100020DD4, symSize: 0x2C }
  - { offsetInCU: 0x1D363, offset: 0x6716E, size: 0x8, addend: 0x0, symName: __ZNSt3__122__unordered_map_hasherINS_12basic_stringIcNS_11char_traitsIcEENS_9allocatorIcEEEENS_17__hash_value_typeIS6_P8PyObjectEENS_4hashIS6_EENS_8equal_toIS6_EELb1EEC2B7v160006Ev, symObjAddr: 0x5090, symBinAddr: 0x100020E00, symSize: 0x14 }
  - { offsetInCU: 0x1D38D, offset: 0x67198, size: 0x8, addend: 0x0, symName: __ZNSt3__117__compressed_pairIfNS_21__unordered_map_equalINS_12basic_stringIcNS_11char_traitsIcEENS_9allocatorIcEEEENS_17__hash_value_typeIS7_P8PyObjectEENS_8equal_toIS7_EENS_4hashIS7_EELb1EEEEC2B7v160006IfNS_18__default_init_tagEEEOT_OT0_, symObjAddr: 0x50A4, symBinAddr: 0x100020E14, symSize: 0x40 }
  - { offsetInCU: 0x1D3E7, offset: 0x671F2, size: 0x8, addend: 0x0, symName: __ZNSt3__122__compressed_pair_elemIfLi0ELb0EEC2B7v160006IfvEEOT_, symObjAddr: 0x50E4, symBinAddr: 0x100020E54, symSize: 0x24 }
  - { offsetInCU: 0x1D42A, offset: 0x67235, size: 0x8, addend: 0x0, symName: __ZNSt3__122__compressed_pair_elemINS_21__unordered_map_equalINS_12basic_stringIcNS_11char_traitsIcEENS_9allocatorIcEEEENS_17__hash_value_typeIS7_P8PyObjectEENS_8equal_toIS7_EENS_4hashIS7_EELb1EEELi1ELb1EEC2B7v160006ENS_18__default_init_tagE, symObjAddr: 0x5108, symBinAddr: 0x100020E78, symSize: 0x2C }
  - { offsetInCU: 0x1D45F, offset: 0x6726A, size: 0x8, addend: 0x0, symName: __ZNSt3__121__unordered_map_equalINS_12basic_stringIcNS_11char_traitsIcEENS_9allocatorIcEEEENS_17__hash_value_typeIS6_P8PyObjectEENS_8equal_toIS6_EENS_4hashIS6_EELb1EEC2B7v160006Ev, symObjAddr: 0x5134, symBinAddr: 0x100020EA4, symSize: 0x14 }
  - { offsetInCU: 0x1D489, offset: 0x67294, size: 0x8, addend: 0x0, symName: __ZNSt3__16vectorIP5ScopeNS_9allocatorIS2_EEE9push_backB7v160006ERKS2_, symObjAddr: 0x5148, symBinAddr: 0x100020EB8, symSize: 0x6C }
  - { offsetInCU: 0x1D4C0, offset: 0x672CB, size: 0x8, addend: 0x0, symName: __ZNSt3__16vectorIP5ScopeNS_9allocatorIS2_EEE9__end_capB7v160006Ev, symObjAddr: 0x51B4, symBinAddr: 0x100020F24, symSize: 0x28 }
  - { offsetInCU: 0x1D4EC, offset: 0x672F7, size: 0x8, addend: 0x0, symName: __ZNSt3__16vectorIP5ScopeNS_9allocatorIS2_EEE22__construct_one_at_endB7v160006IJRKS2_EEEvDpOT_, symObjAddr: 0x51DC, symBinAddr: 0x100020F4C, symSize: 0x90 }
  - { offsetInCU: 0x1D53B, offset: 0x67346, size: 0x8, addend: 0x0, symName: __ZNSt3__16vectorIP5ScopeNS_9allocatorIS2_EEE21__push_back_slow_pathIRKS2_EEvOT_, symObjAddr: 0x526C, symBinAddr: 0x100020FDC, symSize: 0xD8 }
  - { offsetInCU: 0x1D599, offset: 0x673A4, size: 0x8, addend: 0x0, symName: __ZNSt3__117__compressed_pairIPP5ScopeNS_9allocatorIS2_EEE5firstB7v160006Ev, symObjAddr: 0x5344, symBinAddr: 0x1000210B4, symSize: 0x24 }
  - { offsetInCU: 0x1D5BF, offset: 0x673CA, size: 0x8, addend: 0x0, symName: __ZNSt3__122__compressed_pair_elemIPP5ScopeLi0ELb0EE5__getB7v160006Ev, symObjAddr: 0x5368, symBinAddr: 0x1000210D8, symSize: 0x14 }
  - { offsetInCU: 0x1D601, offset: 0x6740C, size: 0x8, addend: 0x0, symName: __ZNSt3__16vectorIP5ScopeNS_9allocatorIS2_EEE21_ConstructTransactionC1B7v160006ERS5_m, symObjAddr: 0x537C, symBinAddr: 0x1000210EC, symSize: 0x3C }
  - { offsetInCU: 0x1D649, offset: 0x67454, size: 0x8, addend: 0x0, symName: __ZNSt3__116allocator_traitsINS_9allocatorIP5ScopeEEE9constructB7v160006IS3_JRKS3_EvvEEvRS4_PT_DpOT0_, symObjAddr: 0x53B8, symBinAddr: 0x100021128, symSize: 0x30 }
  - { offsetInCU: 0x1D69D, offset: 0x674A8, size: 0x8, addend: 0x0, symName: __ZNSt3__16vectorIP5ScopeNS_9allocatorIS2_EEE21_ConstructTransactionD1B7v160006Ev, symObjAddr: 0x5424, symBinAddr: 0x100021158, symSize: 0x2C }
  - { offsetInCU: 0x1D6C7, offset: 0x674D2, size: 0x8, addend: 0x0, symName: __ZNSt3__16vectorIP5ScopeNS_9allocatorIS2_EEE21_ConstructTransactionC2B7v160006ERS5_m, symObjAddr: 0x5450, symBinAddr: 0x100021184, symSize: 0x44 }
  - { offsetInCU: 0x1D70F, offset: 0x6751A, size: 0x8, addend: 0x0, symName: __ZNSt3__16vectorIP5ScopeNS_9allocatorIS2_EEE21_ConstructTransactionD2B7v160006Ev, symObjAddr: 0x54F8, symBinAddr: 0x1000211F4, symSize: 0x20 }
  - { offsetInCU: 0x1D739, offset: 0x67544, size: 0x8, addend: 0x0, symName: __ZNKSt3__16vectorIP5ScopeNS_9allocatorIS2_EEE11__recommendB7v160006Em, symObjAddr: 0x5518, symBinAddr: 0x100021214, symSize: 0xB4 }
  - { offsetInCU: 0x1D78E, offset: 0x67599, size: 0x8, addend: 0x0, symName: __ZNSt3__114__split_bufferIP5ScopeRNS_9allocatorIS2_EEEC1EmmS5_, symObjAddr: 0x55F4, symBinAddr: 0x1000212C8, symSize: 0x44 }
  - { offsetInCU: 0x1D7E7, offset: 0x675F2, size: 0x8, addend: 0x0, symName: __ZNSt3__114__split_bufferIP5ScopeRNS_9allocatorIS2_EEED1Ev, symObjAddr: 0x5750, symBinAddr: 0x100021424, symSize: 0x2C }
  - { offsetInCU: 0x1D813, offset: 0x6761E, size: 0x8, addend: 0x0, symName: __ZNKSt3__16vectorIP5ScopeNS_9allocatorIS2_EEE8max_sizeEv, symObjAddr: 0x577C, symBinAddr: 0x100021450, symSize: 0x60 }
  - { offsetInCU: 0x1D83B, offset: 0x67646, size: 0x8, addend: 0x0, symName: __ZNKSt3__16vectorIP5ScopeNS_9allocatorIS2_EEE20__throw_length_errorB7v160006Ev, symObjAddr: 0x57DC, symBinAddr: 0x1000214B0, symSize: 0x1C }
  - { offsetInCU: 0x1D86C, offset: 0x67677, size: 0x8, addend: 0x0, symName: __ZNSt3__116allocator_traitsINS_9allocatorIP5ScopeEEE8max_sizeB7v160006IS4_vvEEmRKS4_, symObjAddr: 0x5890, symBinAddr: 0x1000214CC, symSize: 0x28 }
  - { offsetInCU: 0x1D897, offset: 0x676A2, size: 0x8, addend: 0x0, symName: __ZNKSt3__16vectorIP5ScopeNS_9allocatorIS2_EEE7__allocB7v160006Ev, symObjAddr: 0x58B8, symBinAddr: 0x1000214F4, symSize: 0x28 }
  - { offsetInCU: 0x1D8BD, offset: 0x676C8, size: 0x8, addend: 0x0, symName: __ZNKSt3__117__compressed_pairIPP5ScopeNS_9allocatorIS2_EEE6secondB7v160006Ev, symObjAddr: 0x5998, symBinAddr: 0x10002151C, symSize: 0x24 }
  - { offsetInCU: 0x1D8E3, offset: 0x676EE, size: 0x8, addend: 0x0, symName: __ZNKSt3__122__compressed_pair_elemINS_9allocatorIP5ScopeEELi1ELb1EE5__getB7v160006Ev, symObjAddr: 0x59BC, symBinAddr: 0x100021540, symSize: 0x14 }
  - { offsetInCU: 0x1D909, offset: 0x67714, size: 0x8, addend: 0x0, symName: __ZNSt3__114__split_bufferIP5ScopeRNS_9allocatorIS2_EEEC2EmmS5_, symObjAddr: 0x5B70, symBinAddr: 0x100021554, symSize: 0xD4 }
  - { offsetInCU: 0x1D97F, offset: 0x6778A, size: 0x8, addend: 0x0, symName: __ZNSt3__117__compressed_pairIPP5ScopeRNS_9allocatorIS2_EEEC1B7v160006IDnS6_EEOT_OT0_, symObjAddr: 0x5C44, symBinAddr: 0x100021628, symSize: 0x3C }
  - { offsetInCU: 0x1D9D9, offset: 0x677E4, size: 0x8, addend: 0x0, symName: __ZNSt3__114__split_bufferIP5ScopeRNS_9allocatorIS2_EEE7__allocB7v160006Ev, symObjAddr: 0x5CC0, symBinAddr: 0x1000216A4, symSize: 0x28 }
  - { offsetInCU: 0x1D9FF, offset: 0x6780A, size: 0x8, addend: 0x0, symName: __ZNSt3__114__split_bufferIP5ScopeRNS_9allocatorIS2_EEE9__end_capB7v160006Ev, symObjAddr: 0x5CE8, symBinAddr: 0x1000216CC, symSize: 0x28 }
  - { offsetInCU: 0x1DA25, offset: 0x67830, size: 0x8, addend: 0x0, symName: __ZNSt3__117__compressed_pairIPP5ScopeRNS_9allocatorIS2_EEEC2B7v160006IDnS6_EEOT_OT0_, symObjAddr: 0x5D10, symBinAddr: 0x1000216F4, symSize: 0x48 }
  - { offsetInCU: 0x1DA7F, offset: 0x6788A, size: 0x8, addend: 0x0, symName: __ZNSt3__122__compressed_pair_elemIRNS_9allocatorIP5ScopeEELi1ELb0EEC2B7v160006IS5_vEEOT_, symObjAddr: 0x5D58, symBinAddr: 0x10002173C, symSize: 0x20 }
  - { offsetInCU: 0x1DAC2, offset: 0x678CD, size: 0x8, addend: 0x0, symName: __ZNSt3__19allocatorIP5ScopeE8allocateB7v160006Em, symObjAddr: 0x5D78, symBinAddr: 0x10002175C, symSize: 0x58 }
  - { offsetInCU: 0x1DAF7, offset: 0x67902, size: 0x8, addend: 0x0, symName: __ZNSt3__117__compressed_pairIPP5ScopeRNS_9allocatorIS2_EEE6secondB7v160006Ev, symObjAddr: 0x5ED4, symBinAddr: 0x1000217B4, symSize: 0x28 }
  - { offsetInCU: 0x1DB1D, offset: 0x67928, size: 0x8, addend: 0x0, symName: __ZNSt3__122__compressed_pair_elemIRNS_9allocatorIP5ScopeEELi1ELb0EE5__getB7v160006Ev, symObjAddr: 0x5EFC, symBinAddr: 0x1000217DC, symSize: 0x18 }
  - { offsetInCU: 0x1DB43, offset: 0x6794E, size: 0x8, addend: 0x0, symName: __ZNSt3__117__compressed_pairIPP5ScopeRNS_9allocatorIS2_EEE5firstB7v160006Ev, symObjAddr: 0x5F14, symBinAddr: 0x1000217F4, symSize: 0x24 }
  - { offsetInCU: 0x1DB69, offset: 0x67974, size: 0x8, addend: 0x0, symName: __ZNSt3__116reverse_iteratorIPP5ScopeEC1B7v160006ES3_, symObjAddr: 0x6068, symBinAddr: 0x100021890, symSize: 0x34 }
  - { offsetInCU: 0x1DBA2, offset: 0x679AD, size: 0x8, addend: 0x0, symName: __ZNKSt3__116reverse_iteratorIPP5ScopeE4baseB7v160006Ev, symObjAddr: 0x609C, symBinAddr: 0x1000218C4, symSize: 0x18 }
